
Lab4-Proj.elf:     file format elf32-avr

Sections:
Idx Name          Size      VMA       LMA       File off  Algn
  0 .data         00000038  00800100  000033aa  0000343e  2**0
                  CONTENTS, ALLOC, LOAD, DATA
  1 .text         000033aa  00000000  00000000  00000094  2**1
                  CONTENTS, ALLOC, LOAD, READONLY, CODE
  2 .bss          00000353  00800138  00800138  00003476  2**0
                  ALLOC
  3 .comment      00000030  00000000  00000000  00003476  2**0
                  CONTENTS, READONLY
  4 .note.gnu.avr.deviceinfo 00000040  00000000  00000000  000034a8  2**2
                  CONTENTS, READONLY
  5 .debug_info   000007b6  00000000  00000000  000034e8  2**0
                  CONTENTS, READONLY, DEBUGGING
  6 .debug_abbrev 0000074b  00000000  00000000  00003c9e  2**0
                  CONTENTS, READONLY, DEBUGGING
  7 .debug_line   00000122  00000000  00000000  000043e9  2**0
                  CONTENTS, READONLY, DEBUGGING
  8 .debug_str    000002b3  00000000  00000000  0000450b  2**0
                  CONTENTS, READONLY, DEBUGGING

Disassembly of section .text:

00000000 <__vectors>:
       0:	0c 94 2e 00 	jmp	0x5c	; 0x5c <__ctors_end>
       4:	0c 94 c2 07 	jmp	0xf84	; 0xf84 <__vector_1>
       8:	0c 94 4a 08 	jmp	0x1094	; 0x1094 <__vector_2>
       c:	0c 94 d2 08 	jmp	0x11a4	; 0x11a4 <__vector_3>
      10:	0c 94 5a 09 	jmp	0x12b4	; 0x12b4 <__vector_4>
      14:	0c 94 e2 09 	jmp	0x13c4	; 0x13c4 <__vector_5>
      18:	0c 94 4b 00 	jmp	0x96	; 0x96 <__bad_interrupt>
      1c:	0c 94 41 13 	jmp	0x2682	; 0x2682 <__vector_7>
      20:	0c 94 4b 00 	jmp	0x96	; 0x96 <__bad_interrupt>
      24:	0c 94 b3 12 	jmp	0x2566	; 0x2566 <__vector_9>
      28:	0c 94 6a 0a 	jmp	0x14d4	; 0x14d4 <__vector_10>
      2c:	0c 94 f2 0a 	jmp	0x15e4	; 0x15e4 <__vector_11>
      30:	0c 94 7a 0b 	jmp	0x16f4	; 0x16f4 <__vector_12>
      34:	0c 94 02 0c 	jmp	0x1804	; 0x1804 <__vector_13>
      38:	0c 94 8a 0c 	jmp	0x1914	; 0x1914 <__vector_14>
      3c:	0c 94 12 0d 	jmp	0x1a24	; 0x1a24 <__vector_15>
      40:	0c 94 9a 0d 	jmp	0x1b34	; 0x1b34 <__vector_16>
      44:	0c 94 22 0e 	jmp	0x1c44	; 0x1c44 <__vector_17>
      48:	0c 94 aa 0e 	jmp	0x1d54	; 0x1d54 <__vector_18>
      4c:	0c 94 32 0f 	jmp	0x1e64	; 0x1e64 <__vector_19>
      50:	0c 94 ba 0f 	jmp	0x1f74	; 0x1f74 <__vector_20>
      54:	0c 94 42 10 	jmp	0x2084	; 0x2084 <__vector_21>
      58:	0c 94 ca 10 	jmp	0x2194	; 0x2194 <__vector_22>

0000005c <__ctors_end>:
      5c:	11 24       	eor	r1, r1
      5e:	1f be       	out	0x3f, r1	; 63
      60:	cf ef       	ldi	r28, 0xFF	; 255
      62:	d4 e0       	ldi	r29, 0x04	; 4
      64:	de bf       	out	0x3e, r29	; 62
      66:	cd bf       	out	0x3d, r28	; 61

00000068 <__do_copy_data>:
      68:	11 e0       	ldi	r17, 0x01	; 1
      6a:	a0 e0       	ldi	r26, 0x00	; 0
      6c:	b1 e0       	ldi	r27, 0x01	; 1
      6e:	ea ea       	ldi	r30, 0xAA	; 170
      70:	f3 e3       	ldi	r31, 0x33	; 51
      72:	02 c0       	rjmp	.+4      	; 0x78 <__do_copy_data+0x10>
      74:	05 90       	lpm	r0, Z+
      76:	0d 92       	st	X+, r0
      78:	a8 33       	cpi	r26, 0x38	; 56
      7a:	b1 07       	cpc	r27, r17
      7c:	d9 f7       	brne	.-10     	; 0x74 <__do_copy_data+0xc>

0000007e <__do_clear_bss>:
      7e:	24 e0       	ldi	r18, 0x04	; 4
      80:	a8 e3       	ldi	r26, 0x38	; 56
      82:	b1 e0       	ldi	r27, 0x01	; 1
      84:	01 c0       	rjmp	.+2      	; 0x88 <.do_clear_bss_start>

00000086 <.do_clear_bss_loop>:
      86:	1d 92       	st	X+, r1

00000088 <.do_clear_bss_start>:
      88:	ab 38       	cpi	r26, 0x8B	; 139
      8a:	b2 07       	cpc	r27, r18
      8c:	e1 f7       	brne	.-8      	; 0x86 <.do_clear_bss_loop>
      8e:	0e 94 62 04 	call	0x8c4	; 0x8c4 <main>
      92:	0c 94 d3 19 	jmp	0x33a6	; 0x33a6 <_exit>

00000096 <__bad_interrupt>:
      96:	0c 94 00 00 	jmp	0	; 0x0 <__vectors>

0000009a <freqUp>:
      9a:	cf 92       	push	r12
      9c:	df 92       	push	r13
      9e:	ef 92       	push	r14
      a0:	ff 92       	push	r15
      a2:	0f 93       	push	r16
      a4:	1f 93       	push	r17
      a6:	cf 93       	push	r28
      a8:	df 93       	push	r29
      aa:	00 d0       	rcall	.+0      	; 0xac <freqUp+0x12>
      ac:	00 d0       	rcall	.+0      	; 0xae <freqUp+0x14>
      ae:	cd b7       	in	r28, 0x3d	; 61
      b0:	de b7       	in	r29, 0x3e	; 62
      b2:	9a 83       	std	Y+2, r25	; 0x02
      b4:	89 83       	std	Y+1, r24	; 0x01
      b6:	7c 83       	std	Y+4, r23	; 0x04
      b8:	6b 83       	std	Y+3, r22	; 0x03
      ba:	89 81       	ldd	r24, Y+1	; 0x01
      bc:	9a 81       	ldd	r25, Y+2	; 0x02
      be:	fc 01       	movw	r30, r24
      c0:	84 81       	ldd	r24, Z+4	; 0x04
      c2:	88 23       	and	r24, r24
      c4:	b9 f0       	breq	.+46     	; 0xf4 <freqUp+0x5a>
      c6:	89 81       	ldd	r24, Y+1	; 0x01
      c8:	9a 81       	ldd	r25, Y+2	; 0x02
      ca:	fc 01       	movw	r30, r24
      cc:	85 81       	ldd	r24, Z+5	; 0x05
      ce:	96 81       	ldd	r25, Z+6	; 0x06
      d0:	c1 2c       	mov	r12, r1
      d2:	d1 2c       	mov	r13, r1
      d4:	0f 2e       	mov	r0, r31
      d6:	f8 e7       	ldi	r31, 0x78	; 120
      d8:	ef 2e       	mov	r14, r31
      da:	f5 e0       	ldi	r31, 0x05	; 5
      dc:	ff 2e       	mov	r15, r31
      de:	f0 2d       	mov	r31, r0
      e0:	8c 01       	movw	r16, r24
      e2:	20 e0       	ldi	r18, 0x00	; 0
      e4:	30 e0       	ldi	r19, 0x00	; 0
      e6:	a9 01       	movw	r20, r18
      e8:	60 e0       	ldi	r22, 0x00	; 0
      ea:	70 e0       	ldi	r23, 0x00	; 0
      ec:	cb 01       	movw	r24, r22
      ee:	0e 94 62 15 	call	0x2ac4	; 0x2ac4 <async>
      f2:	16 c0       	rjmp	.+44     	; 0x120 <freqUp+0x86>
      f4:	89 81       	ldd	r24, Y+1	; 0x01
      f6:	9a 81       	ldd	r25, Y+2	; 0x02
      f8:	fc 01       	movw	r30, r24
      fa:	87 81       	ldd	r24, Z+7	; 0x07
      fc:	90 85       	ldd	r25, Z+8	; 0x08
      fe:	c1 2c       	mov	r12, r1
     100:	d1 2c       	mov	r13, r1
     102:	0f 2e       	mov	r0, r31
     104:	f8 e7       	ldi	r31, 0x78	; 120
     106:	ef 2e       	mov	r14, r31
     108:	f5 e0       	ldi	r31, 0x05	; 5
     10a:	ff 2e       	mov	r15, r31
     10c:	f0 2d       	mov	r31, r0
     10e:	8c 01       	movw	r16, r24
     110:	20 e0       	ldi	r18, 0x00	; 0
     112:	30 e0       	ldi	r19, 0x00	; 0
     114:	a9 01       	movw	r20, r18
     116:	60 e0       	ldi	r22, 0x00	; 0
     118:	70 e0       	ldi	r23, 0x00	; 0
     11a:	cb 01       	movw	r24, r22
     11c:	0e 94 62 15 	call	0x2ac4	; 0x2ac4 <async>
     120:	80 e0       	ldi	r24, 0x00	; 0
     122:	90 e0       	ldi	r25, 0x00	; 0
     124:	0f 90       	pop	r0
     126:	0f 90       	pop	r0
     128:	0f 90       	pop	r0
     12a:	0f 90       	pop	r0
     12c:	df 91       	pop	r29
     12e:	cf 91       	pop	r28
     130:	1f 91       	pop	r17
     132:	0f 91       	pop	r16
     134:	ff 90       	pop	r15
     136:	ef 90       	pop	r14
     138:	df 90       	pop	r13
     13a:	cf 90       	pop	r12
     13c:	08 95       	ret

0000013e <freqDown>:
     13e:	cf 92       	push	r12
     140:	df 92       	push	r13
     142:	ef 92       	push	r14
     144:	ff 92       	push	r15
     146:	0f 93       	push	r16
     148:	1f 93       	push	r17
     14a:	cf 93       	push	r28
     14c:	df 93       	push	r29
     14e:	00 d0       	rcall	.+0      	; 0x150 <freqDown+0x12>
     150:	00 d0       	rcall	.+0      	; 0x152 <freqDown+0x14>
     152:	cd b7       	in	r28, 0x3d	; 61
     154:	de b7       	in	r29, 0x3e	; 62
     156:	9a 83       	std	Y+2, r25	; 0x02
     158:	89 83       	std	Y+1, r24	; 0x01
     15a:	7c 83       	std	Y+4, r23	; 0x04
     15c:	6b 83       	std	Y+3, r22	; 0x03
     15e:	89 81       	ldd	r24, Y+1	; 0x01
     160:	9a 81       	ldd	r25, Y+2	; 0x02
     162:	fc 01       	movw	r30, r24
     164:	84 81       	ldd	r24, Z+4	; 0x04
     166:	88 23       	and	r24, r24
     168:	b9 f0       	breq	.+46     	; 0x198 <freqDown+0x5a>
     16a:	89 81       	ldd	r24, Y+1	; 0x01
     16c:	9a 81       	ldd	r25, Y+2	; 0x02
     16e:	fc 01       	movw	r30, r24
     170:	85 81       	ldd	r24, Z+5	; 0x05
     172:	96 81       	ldd	r25, Z+6	; 0x06
     174:	c1 2c       	mov	r12, r1
     176:	d1 2c       	mov	r13, r1
     178:	0f 2e       	mov	r0, r31
     17a:	f4 e0       	ldi	r31, 0x04	; 4
     17c:	ef 2e       	mov	r14, r31
     17e:	f6 e0       	ldi	r31, 0x06	; 6
     180:	ff 2e       	mov	r15, r31
     182:	f0 2d       	mov	r31, r0
     184:	8c 01       	movw	r16, r24
     186:	20 e0       	ldi	r18, 0x00	; 0
     188:	30 e0       	ldi	r19, 0x00	; 0
     18a:	a9 01       	movw	r20, r18
     18c:	60 e0       	ldi	r22, 0x00	; 0
     18e:	70 e0       	ldi	r23, 0x00	; 0
     190:	cb 01       	movw	r24, r22
     192:	0e 94 62 15 	call	0x2ac4	; 0x2ac4 <async>
     196:	16 c0       	rjmp	.+44     	; 0x1c4 <freqDown+0x86>
     198:	89 81       	ldd	r24, Y+1	; 0x01
     19a:	9a 81       	ldd	r25, Y+2	; 0x02
     19c:	fc 01       	movw	r30, r24
     19e:	87 81       	ldd	r24, Z+7	; 0x07
     1a0:	90 85       	ldd	r25, Z+8	; 0x08
     1a2:	c1 2c       	mov	r12, r1
     1a4:	d1 2c       	mov	r13, r1
     1a6:	0f 2e       	mov	r0, r31
     1a8:	f4 e0       	ldi	r31, 0x04	; 4
     1aa:	ef 2e       	mov	r14, r31
     1ac:	f6 e0       	ldi	r31, 0x06	; 6
     1ae:	ff 2e       	mov	r15, r31
     1b0:	f0 2d       	mov	r31, r0
     1b2:	8c 01       	movw	r16, r24
     1b4:	20 e0       	ldi	r18, 0x00	; 0
     1b6:	30 e0       	ldi	r19, 0x00	; 0
     1b8:	a9 01       	movw	r20, r18
     1ba:	60 e0       	ldi	r22, 0x00	; 0
     1bc:	70 e0       	ldi	r23, 0x00	; 0
     1be:	cb 01       	movw	r24, r22
     1c0:	0e 94 62 15 	call	0x2ac4	; 0x2ac4 <async>
     1c4:	80 e0       	ldi	r24, 0x00	; 0
     1c6:	90 e0       	ldi	r25, 0x00	; 0
     1c8:	0f 90       	pop	r0
     1ca:	0f 90       	pop	r0
     1cc:	0f 90       	pop	r0
     1ce:	0f 90       	pop	r0
     1d0:	df 91       	pop	r29
     1d2:	cf 91       	pop	r28
     1d4:	1f 91       	pop	r17
     1d6:	0f 91       	pop	r16
     1d8:	ff 90       	pop	r15
     1da:	ef 90       	pop	r14
     1dc:	df 90       	pop	r13
     1de:	cf 90       	pop	r12
     1e0:	08 95       	ret

000001e2 <switchState>:
     1e2:	cf 92       	push	r12
     1e4:	df 92       	push	r13
     1e6:	ef 92       	push	r14
     1e8:	ff 92       	push	r15
     1ea:	0f 93       	push	r16
     1ec:	1f 93       	push	r17
     1ee:	cf 93       	push	r28
     1f0:	df 93       	push	r29
     1f2:	00 d0       	rcall	.+0      	; 0x1f4 <switchState+0x12>
     1f4:	00 d0       	rcall	.+0      	; 0x1f6 <switchState+0x14>
     1f6:	cd b7       	in	r28, 0x3d	; 61
     1f8:	de b7       	in	r29, 0x3e	; 62
     1fa:	9a 83       	std	Y+2, r25	; 0x02
     1fc:	89 83       	std	Y+1, r24	; 0x01
     1fe:	7c 83       	std	Y+4, r23	; 0x04
     200:	6b 83       	std	Y+3, r22	; 0x03
     202:	89 81       	ldd	r24, Y+1	; 0x01
     204:	9a 81       	ldd	r25, Y+2	; 0x02
     206:	fc 01       	movw	r30, r24
     208:	94 81       	ldd	r25, Z+4	; 0x04
     20a:	81 e0       	ldi	r24, 0x01	; 1
     20c:	89 27       	eor	r24, r25
     20e:	88 2f       	mov	r24, r24
     210:	90 e0       	ldi	r25, 0x00	; 0
     212:	21 e0       	ldi	r18, 0x01	; 1
     214:	89 2b       	or	r24, r25
     216:	09 f4       	brne	.+2      	; 0x21a <__EEPROM_REGION_LENGTH__+0x1a>
     218:	20 e0       	ldi	r18, 0x00	; 0
     21a:	89 81       	ldd	r24, Y+1	; 0x01
     21c:	9a 81       	ldd	r25, Y+2	; 0x02
     21e:	fc 01       	movw	r30, r24
     220:	24 83       	std	Z+4, r18	; 0x04
     222:	89 81       	ldd	r24, Y+1	; 0x01
     224:	9a 81       	ldd	r25, Y+2	; 0x02
     226:	c1 2c       	mov	r12, r1
     228:	d1 2c       	mov	r13, r1
     22a:	0f 2e       	mov	r0, r31
     22c:	f5 e4       	ldi	r31, 0x45	; 69
     22e:	ef 2e       	mov	r14, r31
     230:	f4 e0       	ldi	r31, 0x04	; 4
     232:	ff 2e       	mov	r15, r31
     234:	f0 2d       	mov	r31, r0
     236:	8c 01       	movw	r16, r24
     238:	20 e0       	ldi	r18, 0x00	; 0
     23a:	30 e0       	ldi	r19, 0x00	; 0
     23c:	a9 01       	movw	r20, r18
     23e:	60 e0       	ldi	r22, 0x00	; 0
     240:	70 e0       	ldi	r23, 0x00	; 0
     242:	cb 01       	movw	r24, r22
     244:	0e 94 62 15 	call	0x2ac4	; 0x2ac4 <async>
     248:	80 e0       	ldi	r24, 0x00	; 0
     24a:	90 e0       	ldi	r25, 0x00	; 0
     24c:	0f 90       	pop	r0
     24e:	0f 90       	pop	r0
     250:	0f 90       	pop	r0
     252:	0f 90       	pop	r0
     254:	df 91       	pop	r29
     256:	cf 91       	pop	r28
     258:	1f 91       	pop	r17
     25a:	0f 91       	pop	r16
     25c:	ff 90       	pop	r15
     25e:	ef 90       	pop	r14
     260:	df 90       	pop	r13
     262:	cf 90       	pop	r12
     264:	08 95       	ret

00000266 <press>:
     266:	cf 92       	push	r12
     268:	df 92       	push	r13
     26a:	ef 92       	push	r14
     26c:	ff 92       	push	r15
     26e:	0f 93       	push	r16
     270:	1f 93       	push	r17
     272:	cf 93       	push	r28
     274:	df 93       	push	r29
     276:	00 d0       	rcall	.+0      	; 0x278 <press+0x12>
     278:	00 d0       	rcall	.+0      	; 0x27a <press+0x14>
     27a:	cd b7       	in	r28, 0x3d	; 61
     27c:	de b7       	in	r29, 0x3e	; 62
     27e:	9a 83       	std	Y+2, r25	; 0x02
     280:	89 83       	std	Y+1, r24	; 0x01
     282:	7c 83       	std	Y+4, r23	; 0x04
     284:	6b 83       	std	Y+3, r22	; 0x03
     286:	89 81       	ldd	r24, Y+1	; 0x01
     288:	9a 81       	ldd	r25, Y+2	; 0x02
     28a:	fc 01       	movw	r30, r24
     28c:	84 81       	ldd	r24, Z+4	; 0x04
     28e:	88 23       	and	r24, r24
     290:	b9 f0       	breq	.+46     	; 0x2c0 <press+0x5a>
     292:	89 81       	ldd	r24, Y+1	; 0x01
     294:	9a 81       	ldd	r25, Y+2	; 0x02
     296:	fc 01       	movw	r30, r24
     298:	85 81       	ldd	r24, Z+5	; 0x05
     29a:	96 81       	ldd	r25, Z+6	; 0x06
     29c:	c1 2c       	mov	r12, r1
     29e:	d1 2c       	mov	r13, r1
     2a0:	0f 2e       	mov	r0, r31
     2a2:	fc e8       	ldi	r31, 0x8C	; 140
     2a4:	ef 2e       	mov	r14, r31
     2a6:	f6 e0       	ldi	r31, 0x06	; 6
     2a8:	ff 2e       	mov	r15, r31
     2aa:	f0 2d       	mov	r31, r0
     2ac:	8c 01       	movw	r16, r24
     2ae:	20 e0       	ldi	r18, 0x00	; 0
     2b0:	30 e0       	ldi	r19, 0x00	; 0
     2b2:	a9 01       	movw	r20, r18
     2b4:	60 e0       	ldi	r22, 0x00	; 0
     2b6:	70 e0       	ldi	r23, 0x00	; 0
     2b8:	cb 01       	movw	r24, r22
     2ba:	0e 94 62 15 	call	0x2ac4	; 0x2ac4 <async>
     2be:	16 c0       	rjmp	.+44     	; 0x2ec <press+0x86>
     2c0:	89 81       	ldd	r24, Y+1	; 0x01
     2c2:	9a 81       	ldd	r25, Y+2	; 0x02
     2c4:	fc 01       	movw	r30, r24
     2c6:	87 81       	ldd	r24, Z+7	; 0x07
     2c8:	90 85       	ldd	r25, Z+8	; 0x08
     2ca:	c1 2c       	mov	r12, r1
     2cc:	d1 2c       	mov	r13, r1
     2ce:	0f 2e       	mov	r0, r31
     2d0:	fc e8       	ldi	r31, 0x8C	; 140
     2d2:	ef 2e       	mov	r14, r31
     2d4:	f6 e0       	ldi	r31, 0x06	; 6
     2d6:	ff 2e       	mov	r15, r31
     2d8:	f0 2d       	mov	r31, r0
     2da:	8c 01       	movw	r16, r24
     2dc:	20 e0       	ldi	r18, 0x00	; 0
     2de:	30 e0       	ldi	r19, 0x00	; 0
     2e0:	a9 01       	movw	r20, r18
     2e2:	60 e0       	ldi	r22, 0x00	; 0
     2e4:	70 e0       	ldi	r23, 0x00	; 0
     2e6:	cb 01       	movw	r24, r22
     2e8:	0e 94 62 15 	call	0x2ac4	; 0x2ac4 <async>
     2ec:	80 e0       	ldi	r24, 0x00	; 0
     2ee:	90 e0       	ldi	r25, 0x00	; 0
     2f0:	0f 90       	pop	r0
     2f2:	0f 90       	pop	r0
     2f4:	0f 90       	pop	r0
     2f6:	0f 90       	pop	r0
     2f8:	df 91       	pop	r29
     2fa:	cf 91       	pop	r28
     2fc:	1f 91       	pop	r17
     2fe:	0f 91       	pop	r16
     300:	ff 90       	pop	r15
     302:	ef 90       	pop	r14
     304:	df 90       	pop	r13
     306:	cf 90       	pop	r12
     308:	08 95       	ret

0000030a <joyStickHorizontalControll>:
     30a:	cf 92       	push	r12
     30c:	df 92       	push	r13
     30e:	ef 92       	push	r14
     310:	ff 92       	push	r15
     312:	0f 93       	push	r16
     314:	1f 93       	push	r17
     316:	cf 93       	push	r28
     318:	df 93       	push	r29
     31a:	00 d0       	rcall	.+0      	; 0x31c <joyStickHorizontalControll+0x12>
     31c:	00 d0       	rcall	.+0      	; 0x31e <joyStickHorizontalControll+0x14>
     31e:	cd b7       	in	r28, 0x3d	; 61
     320:	de b7       	in	r29, 0x3e	; 62
     322:	9a 83       	std	Y+2, r25	; 0x02
     324:	89 83       	std	Y+1, r24	; 0x01
     326:	7c 83       	std	Y+4, r23	; 0x04
     328:	6b 83       	std	Y+3, r22	; 0x03
     32a:	8c e2       	ldi	r24, 0x2C	; 44
     32c:	90 e0       	ldi	r25, 0x00	; 0
     32e:	fc 01       	movw	r30, r24
     330:	80 81       	ld	r24, Z
     332:	88 2f       	mov	r24, r24
     334:	90 e0       	ldi	r25, 0x00	; 0
     336:	82 70       	andi	r24, 0x02	; 2
     338:	99 27       	eor	r25, r25
     33a:	89 2b       	or	r24, r25
     33c:	51 f0       	breq	.+20     	; 0x352 <joyStickHorizontalControll+0x48>
     33e:	8c e2       	ldi	r24, 0x2C	; 44
     340:	90 e0       	ldi	r25, 0x00	; 0
     342:	fc 01       	movw	r30, r24
     344:	80 81       	ld	r24, Z
     346:	88 2f       	mov	r24, r24
     348:	90 e0       	ldi	r25, 0x00	; 0
     34a:	80 74       	andi	r24, 0x40	; 64
     34c:	99 27       	eor	r25, r25
     34e:	89 2b       	or	r24, r25
     350:	99 f4       	brne	.+38     	; 0x378 <joyStickHorizontalControll+0x6e>
     352:	89 81       	ldd	r24, Y+1	; 0x01
     354:	9a 81       	ldd	r25, Y+2	; 0x02
     356:	c1 2c       	mov	r12, r1
     358:	d1 2c       	mov	r13, r1
     35a:	0f 2e       	mov	r0, r31
     35c:	f1 ef       	ldi	r31, 0xF1	; 241
     35e:	ef 2e       	mov	r14, r31
     360:	f0 e0       	ldi	r31, 0x00	; 0
     362:	ff 2e       	mov	r15, r31
     364:	f0 2d       	mov	r31, r0
     366:	8c 01       	movw	r16, r24
     368:	20 e0       	ldi	r18, 0x00	; 0
     36a:	30 e0       	ldi	r19, 0x00	; 0
     36c:	a9 01       	movw	r20, r18
     36e:	60 e0       	ldi	r22, 0x00	; 0
     370:	70 e0       	ldi	r23, 0x00	; 0
     372:	cb 01       	movw	r24, r22
     374:	0e 94 62 15 	call	0x2ac4	; 0x2ac4 <async>
     378:	80 e0       	ldi	r24, 0x00	; 0
     37a:	90 e0       	ldi	r25, 0x00	; 0
     37c:	0f 90       	pop	r0
     37e:	0f 90       	pop	r0
     380:	0f 90       	pop	r0
     382:	0f 90       	pop	r0
     384:	df 91       	pop	r29
     386:	cf 91       	pop	r28
     388:	1f 91       	pop	r17
     38a:	0f 91       	pop	r16
     38c:	ff 90       	pop	r15
     38e:	ef 90       	pop	r14
     390:	df 90       	pop	r13
     392:	cf 90       	pop	r12
     394:	08 95       	ret

00000396 <joyStickVerticalControll>:
     396:	cf 92       	push	r12
     398:	df 92       	push	r13
     39a:	ef 92       	push	r14
     39c:	ff 92       	push	r15
     39e:	0f 93       	push	r16
     3a0:	1f 93       	push	r17
     3a2:	cf 93       	push	r28
     3a4:	df 93       	push	r29
     3a6:	00 d0       	rcall	.+0      	; 0x3a8 <joyStickVerticalControll+0x12>
     3a8:	00 d0       	rcall	.+0      	; 0x3aa <joyStickVerticalControll+0x14>
     3aa:	cd b7       	in	r28, 0x3d	; 61
     3ac:	de b7       	in	r29, 0x3e	; 62
     3ae:	9a 83       	std	Y+2, r25	; 0x02
     3b0:	89 83       	std	Y+1, r24	; 0x01
     3b2:	7c 83       	std	Y+4, r23	; 0x04
     3b4:	6b 83       	std	Y+3, r22	; 0x03
     3b6:	83 e2       	ldi	r24, 0x23	; 35
     3b8:	90 e0       	ldi	r25, 0x00	; 0
     3ba:	fc 01       	movw	r30, r24
     3bc:	80 81       	ld	r24, Z
     3be:	88 23       	and	r24, r24
     3c0:	a4 f0       	brlt	.+40     	; 0x3ea <joyStickVerticalControll+0x54>
     3c2:	89 81       	ldd	r24, Y+1	; 0x01
     3c4:	9a 81       	ldd	r25, Y+2	; 0x02
     3c6:	c1 2c       	mov	r12, r1
     3c8:	d1 2c       	mov	r13, r1
     3ca:	0f 2e       	mov	r0, r31
     3cc:	ff e9       	ldi	r31, 0x9F	; 159
     3ce:	ef 2e       	mov	r14, r31
     3d0:	f0 e0       	ldi	r31, 0x00	; 0
     3d2:	ff 2e       	mov	r15, r31
     3d4:	f0 2d       	mov	r31, r0
     3d6:	8c 01       	movw	r16, r24
     3d8:	20 e0       	ldi	r18, 0x00	; 0
     3da:	30 e0       	ldi	r19, 0x00	; 0
     3dc:	a9 01       	movw	r20, r18
     3de:	6a e6       	ldi	r22, 0x6A	; 106
     3e0:	78 e1       	ldi	r23, 0x18	; 24
     3e2:	80 e0       	ldi	r24, 0x00	; 0
     3e4:	90 e0       	ldi	r25, 0x00	; 0
     3e6:	0e 94 62 15 	call	0x2ac4	; 0x2ac4 <async>
     3ea:	83 e2       	ldi	r24, 0x23	; 35
     3ec:	90 e0       	ldi	r25, 0x00	; 0
     3ee:	fc 01       	movw	r30, r24
     3f0:	80 81       	ld	r24, Z
     3f2:	88 2f       	mov	r24, r24
     3f4:	90 e0       	ldi	r25, 0x00	; 0
     3f6:	80 74       	andi	r24, 0x40	; 64
     3f8:	99 27       	eor	r25, r25
     3fa:	89 2b       	or	r24, r25
     3fc:	99 f4       	brne	.+38     	; 0x424 <__DATA_REGION_LENGTH__+0x24>
     3fe:	89 81       	ldd	r24, Y+1	; 0x01
     400:	9a 81       	ldd	r25, Y+2	; 0x02
     402:	c1 2c       	mov	r12, r1
     404:	d1 2c       	mov	r13, r1
     406:	0f 2e       	mov	r0, r31
     408:	fd e4       	ldi	r31, 0x4D	; 77
     40a:	ef 2e       	mov	r14, r31
     40c:	f0 e0       	ldi	r31, 0x00	; 0
     40e:	ff 2e       	mov	r15, r31
     410:	f0 2d       	mov	r31, r0
     412:	8c 01       	movw	r16, r24
     414:	20 e0       	ldi	r18, 0x00	; 0
     416:	30 e0       	ldi	r19, 0x00	; 0
     418:	a9 01       	movw	r20, r18
     41a:	60 e0       	ldi	r22, 0x00	; 0
     41c:	70 e0       	ldi	r23, 0x00	; 0
     41e:	cb 01       	movw	r24, r22
     420:	0e 94 62 15 	call	0x2ac4	; 0x2ac4 <async>
     424:	83 e2       	ldi	r24, 0x23	; 35
     426:	90 e0       	ldi	r25, 0x00	; 0
     428:	fc 01       	movw	r30, r24
     42a:	80 81       	ld	r24, Z
     42c:	88 2f       	mov	r24, r24
     42e:	90 e0       	ldi	r25, 0x00	; 0
     430:	80 71       	andi	r24, 0x10	; 16
     432:	99 27       	eor	r25, r25
     434:	89 2b       	or	r24, r25
     436:	a1 f4       	brne	.+40     	; 0x460 <__DATA_REGION_LENGTH__+0x60>
     438:	89 81       	ldd	r24, Y+1	; 0x01
     43a:	9a 81       	ldd	r25, Y+2	; 0x02
     43c:	c1 2c       	mov	r12, r1
     43e:	d1 2c       	mov	r13, r1
     440:	0f 2e       	mov	r0, r31
     442:	f3 e3       	ldi	r31, 0x33	; 51
     444:	ef 2e       	mov	r14, r31
     446:	f1 e0       	ldi	r31, 0x01	; 1
     448:	ff 2e       	mov	r15, r31
     44a:	f0 2d       	mov	r31, r0
     44c:	8c 01       	movw	r16, r24
     44e:	20 e0       	ldi	r18, 0x00	; 0
     450:	30 e0       	ldi	r19, 0x00	; 0
     452:	a9 01       	movw	r20, r18
     454:	6a e6       	ldi	r22, 0x6A	; 106
     456:	78 e1       	ldi	r23, 0x18	; 24
     458:	80 e0       	ldi	r24, 0x00	; 0
     45a:	90 e0       	ldi	r25, 0x00	; 0
     45c:	0e 94 62 15 	call	0x2ac4	; 0x2ac4 <async>
     460:	80 e0       	ldi	r24, 0x00	; 0
     462:	90 e0       	ldi	r25, 0x00	; 0
     464:	0f 90       	pop	r0
     466:	0f 90       	pop	r0
     468:	0f 90       	pop	r0
     46a:	0f 90       	pop	r0
     46c:	df 91       	pop	r29
     46e:	cf 91       	pop	r28
     470:	1f 91       	pop	r17
     472:	0f 91       	pop	r16
     474:	ff 90       	pop	r15
     476:	ef 90       	pop	r14
     478:	df 90       	pop	r13
     47a:	cf 90       	pop	r12
     47c:	08 95       	ret

0000047e <CPUCLK_Init>:
     47e:	cf 93       	push	r28
     480:	df 93       	push	r29
     482:	cd b7       	in	r28, 0x3d	; 61
     484:	de b7       	in	r29, 0x3e	; 62
     486:	81 e6       	ldi	r24, 0x61	; 97
     488:	90 e0       	ldi	r25, 0x00	; 0
     48a:	20 e8       	ldi	r18, 0x80	; 128
     48c:	fc 01       	movw	r30, r24
     48e:	20 83       	st	Z, r18
     490:	81 e6       	ldi	r24, 0x61	; 97
     492:	90 e0       	ldi	r25, 0x00	; 0
     494:	fc 01       	movw	r30, r24
     496:	10 82       	st	Z, r1
     498:	00 00       	nop
     49a:	df 91       	pop	r29
     49c:	cf 91       	pop	r28
     49e:	08 95       	ret

000004a0 <LCD_Init>:
     4a0:	cf 93       	push	r28
     4a2:	df 93       	push	r29
     4a4:	cd b7       	in	r28, 0x3d	; 61
     4a6:	de b7       	in	r29, 0x3e	; 62
     4a8:	85 ee       	ldi	r24, 0xE5	; 229
     4aa:	90 e0       	ldi	r25, 0x00	; 0
     4ac:	27 eb       	ldi	r18, 0xB7	; 183
     4ae:	fc 01       	movw	r30, r24
     4b0:	20 83       	st	Z, r18
     4b2:	86 ee       	ldi	r24, 0xE6	; 230
     4b4:	90 e0       	ldi	r25, 0x00	; 0
     4b6:	27 e0       	ldi	r18, 0x07	; 7
     4b8:	fc 01       	movw	r30, r24
     4ba:	20 83       	st	Z, r18
     4bc:	87 ee       	ldi	r24, 0xE7	; 231
     4be:	90 e0       	ldi	r25, 0x00	; 0
     4c0:	2e e2       	ldi	r18, 0x2E	; 46
     4c2:	fc 01       	movw	r30, r24
     4c4:	20 83       	st	Z, r18
     4c6:	84 ee       	ldi	r24, 0xE4	; 228
     4c8:	90 e0       	ldi	r25, 0x00	; 0
     4ca:	20 e8       	ldi	r18, 0x80	; 128
     4cc:	fc 01       	movw	r30, r24
     4ce:	20 83       	st	Z, r18
     4d0:	89 ef       	ldi	r24, 0xF9	; 249
     4d2:	90 e0       	ldi	r25, 0x00	; 0
     4d4:	29 ef       	ldi	r18, 0xF9	; 249
     4d6:	30 e0       	ldi	r19, 0x00	; 0
     4d8:	f9 01       	movw	r30, r18
     4da:	30 81       	ld	r19, Z
     4dc:	21 e0       	ldi	r18, 0x01	; 1
     4de:	23 27       	eor	r18, r19
     4e0:	fc 01       	movw	r30, r24
     4e2:	20 83       	st	Z, r18
     4e4:	00 00       	nop
     4e6:	df 91       	pop	r29
     4e8:	cf 91       	pop	r28
     4ea:	08 95       	ret

000004ec <CLK_Init>:
     4ec:	cf 93       	push	r28
     4ee:	df 93       	push	r29
     4f0:	cd b7       	in	r28, 0x3d	; 61
     4f2:	de b7       	in	r29, 0x3e	; 62
     4f4:	84 e2       	ldi	r24, 0x24	; 36
     4f6:	90 e0       	ldi	r25, 0x00	; 0
     4f8:	20 e8       	ldi	r18, 0x80	; 128
     4fa:	fc 01       	movw	r30, r24
     4fc:	20 83       	st	Z, r18
     4fe:	00 00       	nop
     500:	df 91       	pop	r29
     502:	cf 91       	pop	r28
     504:	08 95       	ret

00000506 <BUTTON_Init>:
     506:	cf 93       	push	r28
     508:	df 93       	push	r29
     50a:	cd b7       	in	r28, 0x3d	; 61
     50c:	de b7       	in	r29, 0x3e	; 62
     50e:	85 e2       	ldi	r24, 0x25	; 37
     510:	90 e0       	ldi	r25, 0x00	; 0
     512:	25 e2       	ldi	r18, 0x25	; 37
     514:	30 e0       	ldi	r19, 0x00	; 0
     516:	f9 01       	movw	r30, r18
     518:	20 81       	ld	r18, Z
     51a:	20 6d       	ori	r18, 0xD0	; 208
     51c:	fc 01       	movw	r30, r24
     51e:	20 83       	st	Z, r18
     520:	8e e2       	ldi	r24, 0x2E	; 46
     522:	90 e0       	ldi	r25, 0x00	; 0
     524:	2e e2       	ldi	r18, 0x2E	; 46
     526:	30 e0       	ldi	r19, 0x00	; 0
     528:	f9 01       	movw	r30, r18
     52a:	20 81       	ld	r18, Z
     52c:	2c 60       	ori	r18, 0x0C	; 12
     52e:	fc 01       	movw	r30, r24
     530:	20 83       	st	Z, r18
     532:	8d e3       	ldi	r24, 0x3D	; 61
     534:	90 e0       	ldi	r25, 0x00	; 0
     536:	2d e3       	ldi	r18, 0x3D	; 61
     538:	30 e0       	ldi	r19, 0x00	; 0
     53a:	f9 01       	movw	r30, r18
     53c:	20 81       	ld	r18, Z
     53e:	20 6c       	ori	r18, 0xC0	; 192
     540:	fc 01       	movw	r30, r24
     542:	20 83       	st	Z, r18
     544:	8c e6       	ldi	r24, 0x6C	; 108
     546:	90 e0       	ldi	r25, 0x00	; 0
     548:	2c e6       	ldi	r18, 0x6C	; 108
     54a:	30 e0       	ldi	r19, 0x00	; 0
     54c:	f9 01       	movw	r30, r18
     54e:	20 81       	ld	r18, Z
     550:	28 6f       	ori	r18, 0xF8	; 248
     552:	fc 01       	movw	r30, r24
     554:	20 83       	st	Z, r18
     556:	8b e6       	ldi	r24, 0x6B	; 107
     558:	90 e0       	ldi	r25, 0x00	; 0
     55a:	2b e6       	ldi	r18, 0x6B	; 107
     55c:	30 e0       	ldi	r19, 0x00	; 0
     55e:	f9 01       	movw	r30, r18
     560:	20 81       	ld	r18, Z
     562:	2c 60       	ori	r18, 0x0C	; 12
     564:	fc 01       	movw	r30, r24
     566:	20 83       	st	Z, r18
     568:	00 00       	nop
     56a:	df 91       	pop	r29
     56c:	cf 91       	pop	r28
     56e:	08 95       	ret

00000570 <INIT>:
     570:	cf 93       	push	r28
     572:	df 93       	push	r29
     574:	cd b7       	in	r28, 0x3d	; 61
     576:	de b7       	in	r29, 0x3e	; 62
     578:	0e 94 3f 02 	call	0x47e	; 0x47e <CPUCLK_Init>
     57c:	0e 94 50 02 	call	0x4a0	; 0x4a0 <LCD_Init>
     580:	0e 94 76 02 	call	0x4ec	; 0x4ec <CLK_Init>
     584:	0e 94 83 02 	call	0x506	; 0x506 <BUTTON_Init>
     588:	00 00       	nop
     58a:	df 91       	pop	r29
     58c:	cf 91       	pop	r28
     58e:	08 95       	ret

00000590 <writeChar>:
     590:	cf 93       	push	r28
     592:	df 93       	push	r29
     594:	cd b7       	in	r28, 0x3d	; 61
     596:	de b7       	in	r29, 0x3e	; 62
     598:	29 97       	sbiw	r28, 0x09	; 9
     59a:	0f b6       	in	r0, 0x3f	; 63
     59c:	f8 94       	cli
     59e:	de bf       	out	0x3e, r29	; 62
     5a0:	0f be       	out	0x3f, r0	; 63
     5a2:	cd bf       	out	0x3d, r28	; 61
     5a4:	8f 83       	std	Y+7, r24	; 0x07
     5a6:	79 87       	std	Y+9, r23	; 0x09
     5a8:	68 87       	std	Y+8, r22	; 0x08
     5aa:	88 85       	ldd	r24, Y+8	; 0x08
     5ac:	99 85       	ldd	r25, Y+9	; 0x09
     5ae:	99 23       	and	r25, r25
     5b0:	0c f4       	brge	.+2      	; 0x5b4 <writeChar+0x24>
     5b2:	09 c1       	rjmp	.+530    	; 0x7c6 <writeChar+0x236>
     5b4:	88 85       	ldd	r24, Y+8	; 0x08
     5b6:	99 85       	ldd	r25, Y+9	; 0x09
     5b8:	06 97       	sbiw	r24, 0x06	; 6
     5ba:	0c f0       	brlt	.+2      	; 0x5be <writeChar+0x2e>
     5bc:	04 c1       	rjmp	.+520    	; 0x7c6 <writeChar+0x236>
     5be:	8f 81       	ldd	r24, Y+7	; 0x07
     5c0:	80 33       	cpi	r24, 0x30	; 48
     5c2:	08 f4       	brcc	.+2      	; 0x5c6 <writeChar+0x36>
     5c4:	00 c1       	rjmp	.+512    	; 0x7c6 <writeChar+0x236>
     5c6:	8f 81       	ldd	r24, Y+7	; 0x07
     5c8:	8a 33       	cpi	r24, 0x3A	; 58
     5ca:	08 f0       	brcs	.+2      	; 0x5ce <writeChar+0x3e>
     5cc:	fc c0       	rjmp	.+504    	; 0x7c6 <writeChar+0x236>
     5ce:	88 85       	ldd	r24, Y+8	; 0x08
     5d0:	99 85       	ldd	r25, Y+9	; 0x09
     5d2:	88 5d       	subi	r24, 0xD8	; 216
     5d4:	9e 4f       	sbci	r25, 0xFE	; 254
     5d6:	fc 01       	movw	r30, r24
     5d8:	80 81       	ld	r24, Z
     5da:	88 2f       	mov	r24, r24
     5dc:	90 e0       	ldi	r25, 0x00	; 0
     5de:	84 51       	subi	r24, 0x14	; 20
     5e0:	9f 4f       	sbci	r25, 0xFF	; 255
     5e2:	9c 83       	std	Y+4, r25	; 0x04
     5e4:	8b 83       	std	Y+3, r24	; 0x03
     5e6:	8f 81       	ldd	r24, Y+7	; 0x07
     5e8:	88 2f       	mov	r24, r24
     5ea:	90 e0       	ldi	r25, 0x00	; 0
     5ec:	c0 97       	sbiw	r24, 0x30	; 48
     5ee:	9e 83       	std	Y+6, r25	; 0x06
     5f0:	8d 83       	std	Y+5, r24	; 0x05
     5f2:	1a 82       	std	Y+2, r1	; 0x02
     5f4:	19 82       	std	Y+1, r1	; 0x01
     5f6:	88 85       	ldd	r24, Y+8	; 0x08
     5f8:	99 85       	ldd	r25, Y+9	; 0x09
     5fa:	81 70       	andi	r24, 0x01	; 1
     5fc:	90 78       	andi	r25, 0x80	; 128
     5fe:	99 23       	and	r25, r25
     600:	24 f4       	brge	.+8      	; 0x60a <writeChar+0x7a>
     602:	01 97       	sbiw	r24, 0x01	; 1
     604:	8e 6f       	ori	r24, 0xFE	; 254
     606:	9f 6f       	ori	r25, 0xFF	; 255
     608:	01 96       	adiw	r24, 0x01	; 1
     60a:	01 97       	sbiw	r24, 0x01	; 1
     60c:	99 f5       	brne	.+102    	; 0x674 <writeChar+0xe4>
     60e:	84 e0       	ldi	r24, 0x04	; 4
     610:	90 e0       	ldi	r25, 0x00	; 0
     612:	9a 83       	std	Y+2, r25	; 0x02
     614:	89 83       	std	Y+1, r24	; 0x01
     616:	8b 81       	ldd	r24, Y+3	; 0x03
     618:	9c 81       	ldd	r25, Y+4	; 0x04
     61a:	fc 01       	movw	r30, r24
     61c:	80 81       	ld	r24, Z
     61e:	28 2f       	mov	r18, r24
     620:	2f 70       	andi	r18, 0x0F	; 15
     622:	8b 81       	ldd	r24, Y+3	; 0x03
     624:	9c 81       	ldd	r25, Y+4	; 0x04
     626:	fc 01       	movw	r30, r24
     628:	20 83       	st	Z, r18
     62a:	8b 81       	ldd	r24, Y+3	; 0x03
     62c:	9c 81       	ldd	r25, Y+4	; 0x04
     62e:	05 96       	adiw	r24, 0x05	; 5
     630:	2b 81       	ldd	r18, Y+3	; 0x03
     632:	3c 81       	ldd	r19, Y+4	; 0x04
     634:	2b 5f       	subi	r18, 0xFB	; 251
     636:	3f 4f       	sbci	r19, 0xFF	; 255
     638:	f9 01       	movw	r30, r18
     63a:	20 81       	ld	r18, Z
     63c:	2f 70       	andi	r18, 0x0F	; 15
     63e:	fc 01       	movw	r30, r24
     640:	20 83       	st	Z, r18
     642:	8b 81       	ldd	r24, Y+3	; 0x03
     644:	9c 81       	ldd	r25, Y+4	; 0x04
     646:	0a 96       	adiw	r24, 0x0a	; 10
     648:	2b 81       	ldd	r18, Y+3	; 0x03
     64a:	3c 81       	ldd	r19, Y+4	; 0x04
     64c:	26 5f       	subi	r18, 0xF6	; 246
     64e:	3f 4f       	sbci	r19, 0xFF	; 255
     650:	f9 01       	movw	r30, r18
     652:	20 81       	ld	r18, Z
     654:	2f 70       	andi	r18, 0x0F	; 15
     656:	fc 01       	movw	r30, r24
     658:	20 83       	st	Z, r18
     65a:	8b 81       	ldd	r24, Y+3	; 0x03
     65c:	9c 81       	ldd	r25, Y+4	; 0x04
     65e:	0f 96       	adiw	r24, 0x0f	; 15
     660:	2b 81       	ldd	r18, Y+3	; 0x03
     662:	3c 81       	ldd	r19, Y+4	; 0x04
     664:	21 5f       	subi	r18, 0xF1	; 241
     666:	3f 4f       	sbci	r19, 0xFF	; 255
     668:	f9 01       	movw	r30, r18
     66a:	20 81       	ld	r18, Z
     66c:	2f 70       	andi	r18, 0x0F	; 15
     66e:	fc 01       	movw	r30, r24
     670:	20 83       	st	Z, r18
     672:	2e c0       	rjmp	.+92     	; 0x6d0 <writeChar+0x140>
     674:	8b 81       	ldd	r24, Y+3	; 0x03
     676:	9c 81       	ldd	r25, Y+4	; 0x04
     678:	fc 01       	movw	r30, r24
     67a:	80 81       	ld	r24, Z
     67c:	28 2f       	mov	r18, r24
     67e:	20 7f       	andi	r18, 0xF0	; 240
     680:	8b 81       	ldd	r24, Y+3	; 0x03
     682:	9c 81       	ldd	r25, Y+4	; 0x04
     684:	fc 01       	movw	r30, r24
     686:	20 83       	st	Z, r18
     688:	8b 81       	ldd	r24, Y+3	; 0x03
     68a:	9c 81       	ldd	r25, Y+4	; 0x04
     68c:	05 96       	adiw	r24, 0x05	; 5
     68e:	2b 81       	ldd	r18, Y+3	; 0x03
     690:	3c 81       	ldd	r19, Y+4	; 0x04
     692:	2b 5f       	subi	r18, 0xFB	; 251
     694:	3f 4f       	sbci	r19, 0xFF	; 255
     696:	f9 01       	movw	r30, r18
     698:	20 81       	ld	r18, Z
     69a:	20 7f       	andi	r18, 0xF0	; 240
     69c:	fc 01       	movw	r30, r24
     69e:	20 83       	st	Z, r18
     6a0:	8b 81       	ldd	r24, Y+3	; 0x03
     6a2:	9c 81       	ldd	r25, Y+4	; 0x04
     6a4:	0a 96       	adiw	r24, 0x0a	; 10
     6a6:	2b 81       	ldd	r18, Y+3	; 0x03
     6a8:	3c 81       	ldd	r19, Y+4	; 0x04
     6aa:	26 5f       	subi	r18, 0xF6	; 246
     6ac:	3f 4f       	sbci	r19, 0xFF	; 255
     6ae:	f9 01       	movw	r30, r18
     6b0:	20 81       	ld	r18, Z
     6b2:	20 7f       	andi	r18, 0xF0	; 240
     6b4:	fc 01       	movw	r30, r24
     6b6:	20 83       	st	Z, r18
     6b8:	8b 81       	ldd	r24, Y+3	; 0x03
     6ba:	9c 81       	ldd	r25, Y+4	; 0x04
     6bc:	0f 96       	adiw	r24, 0x0f	; 15
     6be:	2b 81       	ldd	r18, Y+3	; 0x03
     6c0:	3c 81       	ldd	r19, Y+4	; 0x04
     6c2:	21 5f       	subi	r18, 0xF1	; 241
     6c4:	3f 4f       	sbci	r19, 0xFF	; 255
     6c6:	f9 01       	movw	r30, r18
     6c8:	20 81       	ld	r18, Z
     6ca:	20 7f       	andi	r18, 0xF0	; 240
     6cc:	fc 01       	movw	r30, r24
     6ce:	20 83       	st	Z, r18
     6d0:	8d 81       	ldd	r24, Y+5	; 0x05
     6d2:	9e 81       	ldd	r25, Y+6	; 0x06
     6d4:	88 0f       	add	r24, r24
     6d6:	99 1f       	adc	r25, r25
     6d8:	88 0f       	add	r24, r24
     6da:	99 1f       	adc	r25, r25
     6dc:	80 50       	subi	r24, 0x00	; 0
     6de:	9f 4f       	sbci	r25, 0xFF	; 255
     6e0:	fc 01       	movw	r30, r24
     6e2:	80 81       	ld	r24, Z
     6e4:	88 2f       	mov	r24, r24
     6e6:	90 e0       	ldi	r25, 0x00	; 0
     6e8:	09 80       	ldd	r0, Y+1	; 0x01
     6ea:	02 c0       	rjmp	.+4      	; 0x6f0 <writeChar+0x160>
     6ec:	88 0f       	add	r24, r24
     6ee:	99 1f       	adc	r25, r25
     6f0:	0a 94       	dec	r0
     6f2:	e2 f7       	brpl	.-8      	; 0x6ec <writeChar+0x15c>
     6f4:	28 2f       	mov	r18, r24
     6f6:	8b 81       	ldd	r24, Y+3	; 0x03
     6f8:	9c 81       	ldd	r25, Y+4	; 0x04
     6fa:	fc 01       	movw	r30, r24
     6fc:	80 81       	ld	r24, Z
     6fe:	82 2b       	or	r24, r18
     700:	28 2f       	mov	r18, r24
     702:	8b 81       	ldd	r24, Y+3	; 0x03
     704:	9c 81       	ldd	r25, Y+4	; 0x04
     706:	fc 01       	movw	r30, r24
     708:	20 83       	st	Z, r18
     70a:	8b 81       	ldd	r24, Y+3	; 0x03
     70c:	9c 81       	ldd	r25, Y+4	; 0x04
     70e:	05 96       	adiw	r24, 0x05	; 5
     710:	2d 81       	ldd	r18, Y+5	; 0x05
     712:	3e 81       	ldd	r19, Y+6	; 0x06
     714:	22 0f       	add	r18, r18
     716:	33 1f       	adc	r19, r19
     718:	22 0f       	add	r18, r18
     71a:	33 1f       	adc	r19, r19
     71c:	2f 5f       	subi	r18, 0xFF	; 255
     71e:	3e 4f       	sbci	r19, 0xFE	; 254
     720:	f9 01       	movw	r30, r18
     722:	20 81       	ld	r18, Z
     724:	22 2f       	mov	r18, r18
     726:	30 e0       	ldi	r19, 0x00	; 0
     728:	09 80       	ldd	r0, Y+1	; 0x01
     72a:	02 c0       	rjmp	.+4      	; 0x730 <writeChar+0x1a0>
     72c:	22 0f       	add	r18, r18
     72e:	33 1f       	adc	r19, r19
     730:	0a 94       	dec	r0
     732:	e2 f7       	brpl	.-8      	; 0x72c <writeChar+0x19c>
     734:	42 2f       	mov	r20, r18
     736:	2b 81       	ldd	r18, Y+3	; 0x03
     738:	3c 81       	ldd	r19, Y+4	; 0x04
     73a:	2b 5f       	subi	r18, 0xFB	; 251
     73c:	3f 4f       	sbci	r19, 0xFF	; 255
     73e:	f9 01       	movw	r30, r18
     740:	20 81       	ld	r18, Z
     742:	24 2b       	or	r18, r20
     744:	fc 01       	movw	r30, r24
     746:	20 83       	st	Z, r18
     748:	8b 81       	ldd	r24, Y+3	; 0x03
     74a:	9c 81       	ldd	r25, Y+4	; 0x04
     74c:	0a 96       	adiw	r24, 0x0a	; 10
     74e:	2d 81       	ldd	r18, Y+5	; 0x05
     750:	3e 81       	ldd	r19, Y+6	; 0x06
     752:	22 0f       	add	r18, r18
     754:	33 1f       	adc	r19, r19
     756:	22 0f       	add	r18, r18
     758:	33 1f       	adc	r19, r19
     75a:	2e 5f       	subi	r18, 0xFE	; 254
     75c:	3e 4f       	sbci	r19, 0xFE	; 254
     75e:	f9 01       	movw	r30, r18
     760:	20 81       	ld	r18, Z
     762:	22 2f       	mov	r18, r18
     764:	30 e0       	ldi	r19, 0x00	; 0
     766:	09 80       	ldd	r0, Y+1	; 0x01
     768:	02 c0       	rjmp	.+4      	; 0x76e <writeChar+0x1de>
     76a:	22 0f       	add	r18, r18
     76c:	33 1f       	adc	r19, r19
     76e:	0a 94       	dec	r0
     770:	e2 f7       	brpl	.-8      	; 0x76a <writeChar+0x1da>
     772:	42 2f       	mov	r20, r18
     774:	2b 81       	ldd	r18, Y+3	; 0x03
     776:	3c 81       	ldd	r19, Y+4	; 0x04
     778:	26 5f       	subi	r18, 0xF6	; 246
     77a:	3f 4f       	sbci	r19, 0xFF	; 255
     77c:	f9 01       	movw	r30, r18
     77e:	20 81       	ld	r18, Z
     780:	24 2b       	or	r18, r20
     782:	fc 01       	movw	r30, r24
     784:	20 83       	st	Z, r18
     786:	8b 81       	ldd	r24, Y+3	; 0x03
     788:	9c 81       	ldd	r25, Y+4	; 0x04
     78a:	0f 96       	adiw	r24, 0x0f	; 15
     78c:	2d 81       	ldd	r18, Y+5	; 0x05
     78e:	3e 81       	ldd	r19, Y+6	; 0x06
     790:	22 0f       	add	r18, r18
     792:	33 1f       	adc	r19, r19
     794:	22 0f       	add	r18, r18
     796:	33 1f       	adc	r19, r19
     798:	2d 5f       	subi	r18, 0xFD	; 253
     79a:	3e 4f       	sbci	r19, 0xFE	; 254
     79c:	f9 01       	movw	r30, r18
     79e:	20 81       	ld	r18, Z
     7a0:	22 2f       	mov	r18, r18
     7a2:	30 e0       	ldi	r19, 0x00	; 0
     7a4:	09 80       	ldd	r0, Y+1	; 0x01
     7a6:	02 c0       	rjmp	.+4      	; 0x7ac <writeChar+0x21c>
     7a8:	22 0f       	add	r18, r18
     7aa:	33 1f       	adc	r19, r19
     7ac:	0a 94       	dec	r0
     7ae:	e2 f7       	brpl	.-8      	; 0x7a8 <writeChar+0x218>
     7b0:	42 2f       	mov	r20, r18
     7b2:	2b 81       	ldd	r18, Y+3	; 0x03
     7b4:	3c 81       	ldd	r19, Y+4	; 0x04
     7b6:	21 5f       	subi	r18, 0xF1	; 241
     7b8:	3f 4f       	sbci	r19, 0xFF	; 255
     7ba:	f9 01       	movw	r30, r18
     7bc:	20 81       	ld	r18, Z
     7be:	24 2b       	or	r18, r20
     7c0:	fc 01       	movw	r30, r24
     7c2:	20 83       	st	Z, r18
     7c4:	01 c0       	rjmp	.+2      	; 0x7c8 <writeChar+0x238>
     7c6:	00 00       	nop
     7c8:	29 96       	adiw	r28, 0x09	; 9
     7ca:	0f b6       	in	r0, 0x3f	; 63
     7cc:	f8 94       	cli
     7ce:	de bf       	out	0x3e, r29	; 62
     7d0:	0f be       	out	0x3f, r0	; 63
     7d2:	cd bf       	out	0x3d, r28	; 61
     7d4:	df 91       	pop	r29
     7d6:	cf 91       	pop	r28
     7d8:	08 95       	ret

000007da <printAt>:
     7da:	cf 93       	push	r28
     7dc:	df 93       	push	r29
     7de:	cd b7       	in	r28, 0x3d	; 61
     7e0:	de b7       	in	r29, 0x3e	; 62
     7e2:	2a 97       	sbiw	r28, 0x0a	; 10
     7e4:	0f b6       	in	r0, 0x3f	; 63
     7e6:	f8 94       	cli
     7e8:	de bf       	out	0x3e, r29	; 62
     7ea:	0f be       	out	0x3f, r0	; 63
     7ec:	cd bf       	out	0x3d, r28	; 61
     7ee:	98 87       	std	Y+8, r25	; 0x08
     7f0:	8f 83       	std	Y+7, r24	; 0x07
     7f2:	7a 87       	std	Y+10, r23	; 0x0a
     7f4:	69 87       	std	Y+9, r22	; 0x09
     7f6:	89 85       	ldd	r24, Y+9	; 0x09
     7f8:	9a 85       	ldd	r25, Y+10	; 0x0a
     7fa:	9e 83       	std	Y+6, r25	; 0x06
     7fc:	8d 83       	std	Y+5, r24	; 0x05
     7fe:	8d 81       	ldd	r24, Y+5	; 0x05
     800:	88 1f       	adc	r24, r24
     802:	88 27       	eor	r24, r24
     804:	88 1f       	adc	r24, r24
     806:	9e 81       	ldd	r25, Y+6	; 0x06
     808:	93 70       	andi	r25, 0x03	; 3
     80a:	99 0f       	add	r25, r25
     80c:	89 2b       	or	r24, r25
     80e:	88 2f       	mov	r24, r24
     810:	90 e0       	ldi	r25, 0x00	; 0
     812:	9a 83       	std	Y+2, r25	; 0x02
     814:	89 83       	std	Y+1, r24	; 0x01
     816:	8d 81       	ldd	r24, Y+5	; 0x05
     818:	8f 77       	andi	r24, 0x7F	; 127
     81a:	88 2f       	mov	r24, r24
     81c:	90 e0       	ldi	r25, 0x00	; 0
     81e:	9c 83       	std	Y+4, r25	; 0x04
     820:	8b 83       	std	Y+3, r24	; 0x03
     822:	8b 81       	ldd	r24, Y+3	; 0x03
     824:	9c 81       	ldd	r25, Y+4	; 0x04
     826:	24 e6       	ldi	r18, 0x64	; 100
     828:	30 e0       	ldi	r19, 0x00	; 0
     82a:	b9 01       	movw	r22, r18
     82c:	0e 94 50 19 	call	0x32a0	; 0x32a0 <__divmodhi4>
     830:	2a e0       	ldi	r18, 0x0A	; 10
     832:	30 e0       	ldi	r19, 0x00	; 0
     834:	b9 01       	movw	r22, r18
     836:	0e 94 50 19 	call	0x32a0	; 0x32a0 <__divmodhi4>
     83a:	cb 01       	movw	r24, r22
     83c:	20 e3       	ldi	r18, 0x30	; 48
     83e:	28 0f       	add	r18, r24
     840:	89 81       	ldd	r24, Y+1	; 0x01
     842:	9a 81       	ldd	r25, Y+2	; 0x02
     844:	bc 01       	movw	r22, r24
     846:	82 2f       	mov	r24, r18
     848:	0e 94 c8 02 	call	0x590	; 0x590 <writeChar>
     84c:	89 81       	ldd	r24, Y+1	; 0x01
     84e:	9a 81       	ldd	r25, Y+2	; 0x02
     850:	01 96       	adiw	r24, 0x01	; 1
     852:	9a 83       	std	Y+2, r25	; 0x02
     854:	89 83       	std	Y+1, r24	; 0x01
     856:	8b 81       	ldd	r24, Y+3	; 0x03
     858:	9c 81       	ldd	r25, Y+4	; 0x04
     85a:	2a e0       	ldi	r18, 0x0A	; 10
     85c:	30 e0       	ldi	r19, 0x00	; 0
     85e:	b9 01       	movw	r22, r18
     860:	0e 94 50 19 	call	0x32a0	; 0x32a0 <__divmodhi4>
     864:	20 e3       	ldi	r18, 0x30	; 48
     866:	28 0f       	add	r18, r24
     868:	89 81       	ldd	r24, Y+1	; 0x01
     86a:	9a 81       	ldd	r25, Y+2	; 0x02
     86c:	bc 01       	movw	r22, r24
     86e:	82 2f       	mov	r24, r18
     870:	0e 94 c8 02 	call	0x590	; 0x590 <writeChar>
     874:	80 e0       	ldi	r24, 0x00	; 0
     876:	90 e0       	ldi	r25, 0x00	; 0
     878:	2a 96       	adiw	r28, 0x0a	; 10
     87a:	0f b6       	in	r0, 0x3f	; 63
     87c:	f8 94       	cli
     87e:	de bf       	out	0x3e, r29	; 62
     880:	0f be       	out	0x3f, r0	; 63
     882:	cd bf       	out	0x3d, r28	; 61
     884:	df 91       	pop	r29
     886:	cf 91       	pop	r28
     888:	08 95       	ret

0000088a <switchIndicator>:
     88a:	cf 93       	push	r28
     88c:	df 93       	push	r29
     88e:	00 d0       	rcall	.+0      	; 0x890 <switchIndicator+0x6>
     890:	00 d0       	rcall	.+0      	; 0x892 <switchIndicator+0x8>
     892:	cd b7       	in	r28, 0x3d	; 61
     894:	de b7       	in	r29, 0x3e	; 62
     896:	9a 83       	std	Y+2, r25	; 0x02
     898:	89 83       	std	Y+1, r24	; 0x01
     89a:	7c 83       	std	Y+4, r23	; 0x04
     89c:	6b 83       	std	Y+3, r22	; 0x03
     89e:	89 ef       	ldi	r24, 0xF9	; 249
     8a0:	90 e0       	ldi	r25, 0x00	; 0
     8a2:	29 ef       	ldi	r18, 0xF9	; 249
     8a4:	30 e0       	ldi	r19, 0x00	; 0
     8a6:	f9 01       	movw	r30, r18
     8a8:	30 81       	ld	r19, Z
     8aa:	21 e0       	ldi	r18, 0x01	; 1
     8ac:	23 27       	eor	r18, r19
     8ae:	fc 01       	movw	r30, r24
     8b0:	20 83       	st	Z, r18
     8b2:	80 e0       	ldi	r24, 0x00	; 0
     8b4:	90 e0       	ldi	r25, 0x00	; 0
     8b6:	0f 90       	pop	r0
     8b8:	0f 90       	pop	r0
     8ba:	0f 90       	pop	r0
     8bc:	0f 90       	pop	r0
     8be:	df 91       	pop	r29
     8c0:	cf 91       	pop	r28
     8c2:	08 95       	ret

000008c4 <main>:
     8c4:	cf 93       	push	r28
     8c6:	df 93       	push	r29
     8c8:	cd b7       	in	r28, 0x3d	; 61
     8ca:	de b7       	in	r29, 0x3e	; 62
     8cc:	e5 97       	sbiw	r28, 0x35	; 53
     8ce:	0f b6       	in	r0, 0x3f	; 63
     8d0:	f8 94       	cli
     8d2:	de bf       	out	0x3e, r29	; 62
     8d4:	0f be       	out	0x3f, r0	; 63
     8d6:	cd bf       	out	0x3d, r28	; 61
     8d8:	0e 94 b8 02 	call	0x570	; 0x570 <INIT>
     8dc:	1e 82       	std	Y+6, r1	; 0x06
     8de:	1d 82       	std	Y+5, r1	; 0x05
     8e0:	18 86       	std	Y+8, r1	; 0x08
     8e2:	1f 82       	std	Y+7, r1	; 0x07
     8e4:	1a 86       	std	Y+10, r1	; 0x0a
     8e6:	19 86       	std	Y+9, r1	; 0x09
     8e8:	1c 86       	std	Y+12, r1	; 0x0c
     8ea:	1b 86       	std	Y+11, r1	; 0x0b
     8ec:	1e 86       	std	Y+14, r1	; 0x0e
     8ee:	1d 86       	std	Y+13, r1	; 0x0d
     8f0:	18 8a       	std	Y+16, r1	; 0x10
     8f2:	1f 86       	std	Y+15, r1	; 0x0f
     8f4:	1a 8a       	std	Y+18, r1	; 0x12
     8f6:	19 8a       	std	Y+17, r1	; 0x11
     8f8:	1c 8a       	std	Y+20, r1	; 0x14
     8fa:	1b 8a       	std	Y+19, r1	; 0x13
     8fc:	81 e0       	ldi	r24, 0x01	; 1
     8fe:	90 e0       	ldi	r25, 0x00	; 0
     900:	9e 8b       	std	Y+22, r25	; 0x16
     902:	8d 8b       	std	Y+21, r24	; 0x15
     904:	81 e0       	ldi	r24, 0x01	; 1
     906:	90 e0       	ldi	r25, 0x00	; 0
     908:	98 8f       	std	Y+24, r25	; 0x18
     90a:	8f 8b       	std	Y+23, r24	; 0x17
     90c:	ce 01       	movw	r24, r28
     90e:	05 96       	adiw	r24, 0x05	; 5
     910:	9a 8f       	std	Y+26, r25	; 0x1a
     912:	89 8f       	std	Y+25, r24	; 0x19
     914:	ce 01       	movw	r24, r28
     916:	09 96       	adiw	r24, 0x09	; 9
     918:	9c 8f       	std	Y+28, r25	; 0x1c
     91a:	8b 8f       	std	Y+27, r24	; 0x1b
     91c:	1e 8e       	std	Y+30, r1	; 0x1e
     91e:	1d 8e       	std	Y+29, r1	; 0x1d
     920:	18 a2       	std	Y+32, r1	; 0x20
     922:	1f 8e       	std	Y+31, r1	; 0x1f
     924:	1a a2       	std	Y+34, r1	; 0x22
     926:	19 a2       	std	Y+33, r1	; 0x21
     928:	1c a2       	std	Y+36, r1	; 0x24
     92a:	1b a2       	std	Y+35, r1	; 0x23
     92c:	84 e0       	ldi	r24, 0x04	; 4
     92e:	90 e0       	ldi	r25, 0x00	; 0
     930:	9e a3       	std	Y+38, r25	; 0x26
     932:	8d a3       	std	Y+37, r24	; 0x25
     934:	83 e0       	ldi	r24, 0x03	; 3
     936:	90 e0       	ldi	r25, 0x00	; 0
     938:	98 a7       	std	Y+40, r25	; 0x28
     93a:	8f a3       	std	Y+39, r24	; 0x27
     93c:	ce 01       	movw	r24, r28
     93e:	05 96       	adiw	r24, 0x05	; 5
     940:	9a a7       	std	Y+42, r25	; 0x2a
     942:	89 a7       	std	Y+41, r24	; 0x29
     944:	ce 01       	movw	r24, r28
     946:	09 96       	adiw	r24, 0x09	; 9
     948:	9c a7       	std	Y+44, r25	; 0x2c
     94a:	8b a7       	std	Y+43, r24	; 0x2b
     94c:	1e a6       	std	Y+46, r1	; 0x2e
     94e:	1d a6       	std	Y+45, r1	; 0x2d
     950:	18 aa       	std	Y+48, r1	; 0x30
     952:	1f a6       	std	Y+47, r1	; 0x2f
     954:	19 aa       	std	Y+49, r1	; 0x31
     956:	ce 01       	movw	r24, r28
     958:	0d 96       	adiw	r24, 0x0d	; 13
     95a:	9b ab       	std	Y+51, r25	; 0x33
     95c:	8a ab       	std	Y+50, r24	; 0x32
     95e:	ce 01       	movw	r24, r28
     960:	4d 96       	adiw	r24, 0x1d	; 29
     962:	9d ab       	std	Y+53, r25	; 0x35
     964:	8c ab       	std	Y+52, r24	; 0x34
     966:	89 89       	ldd	r24, Y+17	; 0x11
     968:	9a 89       	ldd	r25, Y+18	; 0x12
     96a:	8f 77       	andi	r24, 0x7F	; 127
     96c:	8f 77       	andi	r24, 0x7F	; 127
     96e:	9b 81       	ldd	r25, Y+3	; 0x03
     970:	90 78       	andi	r25, 0x80	; 128
     972:	89 2b       	or	r24, r25
     974:	8b 83       	std	Y+3, r24	; 0x03
     976:	8d 89       	ldd	r24, Y+21	; 0x15
     978:	9e 89       	ldd	r25, Y+22	; 0x16
     97a:	87 70       	andi	r24, 0x07	; 7
     97c:	98 2f       	mov	r25, r24
     97e:	91 70       	andi	r25, 0x01	; 1
     980:	97 95       	ror	r25
     982:	99 27       	eor	r25, r25
     984:	97 95       	ror	r25
     986:	2b 81       	ldd	r18, Y+3	; 0x03
     988:	2f 77       	andi	r18, 0x7F	; 127
     98a:	92 2b       	or	r25, r18
     98c:	9b 83       	std	Y+3, r25	; 0x03
     98e:	86 95       	lsr	r24
     990:	83 70       	andi	r24, 0x03	; 3
     992:	83 70       	andi	r24, 0x03	; 3
     994:	9c 81       	ldd	r25, Y+4	; 0x04
     996:	9c 7f       	andi	r25, 0xFC	; 252
     998:	89 2b       	or	r24, r25
     99a:	8c 83       	std	Y+4, r24	; 0x04
     99c:	2b 81       	ldd	r18, Y+3	; 0x03
     99e:	3c 81       	ldd	r19, Y+4	; 0x04
     9a0:	ce 01       	movw	r24, r28
     9a2:	09 96       	adiw	r24, 0x09	; 9
     9a4:	a9 01       	movw	r20, r18
     9a6:	6d ee       	ldi	r22, 0xED	; 237
     9a8:	73 e0       	ldi	r23, 0x03	; 3
     9aa:	0e 94 f9 16 	call	0x2df2	; 0x2df2 <sync>
     9ae:	89 a1       	ldd	r24, Y+33	; 0x21
     9b0:	9a a1       	ldd	r25, Y+34	; 0x22
     9b2:	8f 77       	andi	r24, 0x7F	; 127
     9b4:	8f 77       	andi	r24, 0x7F	; 127
     9b6:	99 81       	ldd	r25, Y+1	; 0x01
     9b8:	90 78       	andi	r25, 0x80	; 128
     9ba:	89 2b       	or	r24, r25
     9bc:	89 83       	std	Y+1, r24	; 0x01
     9be:	8d a1       	ldd	r24, Y+37	; 0x25
     9c0:	9e a1       	ldd	r25, Y+38	; 0x26
     9c2:	87 70       	andi	r24, 0x07	; 7
     9c4:	98 2f       	mov	r25, r24
     9c6:	91 70       	andi	r25, 0x01	; 1
     9c8:	97 95       	ror	r25
     9ca:	99 27       	eor	r25, r25
     9cc:	97 95       	ror	r25
     9ce:	29 81       	ldd	r18, Y+1	; 0x01
     9d0:	2f 77       	andi	r18, 0x7F	; 127
     9d2:	92 2b       	or	r25, r18
     9d4:	99 83       	std	Y+1, r25	; 0x01
     9d6:	86 95       	lsr	r24
     9d8:	83 70       	andi	r24, 0x03	; 3
     9da:	83 70       	andi	r24, 0x03	; 3
     9dc:	9a 81       	ldd	r25, Y+2	; 0x02
     9de:	9c 7f       	andi	r25, 0xFC	; 252
     9e0:	89 2b       	or	r24, r25
     9e2:	8a 83       	std	Y+2, r24	; 0x02
     9e4:	29 81       	ldd	r18, Y+1	; 0x01
     9e6:	3a 81       	ldd	r19, Y+2	; 0x02
     9e8:	ce 01       	movw	r24, r28
     9ea:	09 96       	adiw	r24, 0x09	; 9
     9ec:	a9 01       	movw	r20, r18
     9ee:	6d ee       	ldi	r22, 0xED	; 237
     9f0:	73 e0       	ldi	r23, 0x03	; 3
     9f2:	0e 94 f9 16 	call	0x2df2	; 0x2df2 <sync>
     9f6:	ce 01       	movw	r24, r28
     9f8:	8d 96       	adiw	r24, 0x2d	; 45
     9fa:	42 e0       	ldi	r20, 0x02	; 2
     9fc:	6b ec       	ldi	r22, 0xCB	; 203
     9fe:	71 e0       	ldi	r23, 0x01	; 1
     a00:	0e 94 be 18 	call	0x317c	; 0x317c <install>
     a04:	ce 01       	movw	r24, r28
     a06:	8d 96       	adiw	r24, 0x2d	; 45
     a08:	41 e0       	ldi	r20, 0x01	; 1
     a0a:	65 e8       	ldi	r22, 0x85	; 133
     a0c:	71 e0       	ldi	r23, 0x01	; 1
     a0e:	0e 94 be 18 	call	0x317c	; 0x317c <install>
     a12:	40 e0       	ldi	r20, 0x00	; 0
     a14:	50 e0       	ldi	r21, 0x00	; 0
     a16:	60 e0       	ldi	r22, 0x00	; 0
     a18:	70 e0       	ldi	r23, 0x00	; 0
     a1a:	80 e0       	ldi	r24, 0x00	; 0
     a1c:	90 e0       	ldi	r25, 0x00	; 0
     a1e:	0e 94 01 19 	call	0x3202	; 0x3202 <tinytimber>
     a22:	e5 96       	adiw	r28, 0x35	; 53
     a24:	0f b6       	in	r0, 0x3f	; 63
     a26:	f8 94       	cli
     a28:	de bf       	out	0x3e, r29	; 62
     a2a:	0f be       	out	0x3f, r0	; 63
     a2c:	cd bf       	out	0x3d, r28	; 61
     a2e:	df 91       	pop	r29
     a30:	cf 91       	pop	r28
     a32:	08 95       	ret

00000a34 <sendSignal>:
     a34:	cf 93       	push	r28
     a36:	df 93       	push	r29
     a38:	00 d0       	rcall	.+0      	; 0xa3a <sendSignal+0x6>
     a3a:	00 d0       	rcall	.+0      	; 0xa3c <sendSignal+0x8>
     a3c:	cd b7       	in	r28, 0x3d	; 61
     a3e:	de b7       	in	r29, 0x3e	; 62
     a40:	9a 83       	std	Y+2, r25	; 0x02
     a42:	89 83       	std	Y+1, r24	; 0x01
     a44:	7c 83       	std	Y+4, r23	; 0x04
     a46:	6b 83       	std	Y+3, r22	; 0x03
     a48:	8b 81       	ldd	r24, Y+3	; 0x03
     a4a:	9c 81       	ldd	r25, Y+4	; 0x04
     a4c:	01 97       	sbiw	r24, 0x01	; 1
     a4e:	59 f4       	brne	.+22     	; 0xa66 <sendSignal+0x32>
     a50:	8e e2       	ldi	r24, 0x2E	; 46
     a52:	90 e0       	ldi	r25, 0x00	; 0
     a54:	2e e2       	ldi	r18, 0x2E	; 46
     a56:	30 e0       	ldi	r19, 0x00	; 0
     a58:	f9 01       	movw	r30, r18
     a5a:	30 81       	ld	r19, Z
     a5c:	20 e1       	ldi	r18, 0x10	; 16
     a5e:	23 27       	eor	r18, r19
     a60:	fc 01       	movw	r30, r24
     a62:	20 83       	st	Z, r18
     a64:	0e c0       	rjmp	.+28     	; 0xa82 <sendSignal+0x4e>
     a66:	8b 81       	ldd	r24, Y+3	; 0x03
     a68:	9c 81       	ldd	r25, Y+4	; 0x04
     a6a:	03 97       	sbiw	r24, 0x03	; 3
     a6c:	51 f4       	brne	.+20     	; 0xa82 <sendSignal+0x4e>
     a6e:	8e e2       	ldi	r24, 0x2E	; 46
     a70:	90 e0       	ldi	r25, 0x00	; 0
     a72:	2e e2       	ldi	r18, 0x2E	; 46
     a74:	30 e0       	ldi	r19, 0x00	; 0
     a76:	f9 01       	movw	r30, r18
     a78:	30 81       	ld	r19, Z
     a7a:	20 e4       	ldi	r18, 0x40	; 64
     a7c:	23 27       	eor	r18, r19
     a7e:	fc 01       	movw	r30, r24
     a80:	20 83       	st	Z, r18
     a82:	8e ef       	ldi	r24, 0xFE	; 254
     a84:	90 e0       	ldi	r25, 0x00	; 0
     a86:	2e ef       	ldi	r18, 0xFE	; 254
     a88:	30 e0       	ldi	r19, 0x00	; 0
     a8a:	f9 01       	movw	r30, r18
     a8c:	30 81       	ld	r19, Z
     a8e:	21 e0       	ldi	r18, 0x01	; 1
     a90:	23 27       	eor	r18, r19
     a92:	fc 01       	movw	r30, r24
     a94:	20 83       	st	Z, r18
     a96:	80 e0       	ldi	r24, 0x00	; 0
     a98:	90 e0       	ldi	r25, 0x00	; 0
     a9a:	0f 90       	pop	r0
     a9c:	0f 90       	pop	r0
     a9e:	0f 90       	pop	r0
     aa0:	0f 90       	pop	r0
     aa2:	df 91       	pop	r29
     aa4:	cf 91       	pop	r28
     aa6:	08 95       	ret

00000aa8 <setLow>:
     aa8:	cf 93       	push	r28
     aaa:	df 93       	push	r29
     aac:	00 d0       	rcall	.+0      	; 0xaae <setLow+0x6>
     aae:	00 d0       	rcall	.+0      	; 0xab0 <setLow+0x8>
     ab0:	cd b7       	in	r28, 0x3d	; 61
     ab2:	de b7       	in	r29, 0x3e	; 62
     ab4:	9a 83       	std	Y+2, r25	; 0x02
     ab6:	89 83       	std	Y+1, r24	; 0x01
     ab8:	7c 83       	std	Y+4, r23	; 0x04
     aba:	6b 83       	std	Y+3, r22	; 0x03
     abc:	8b 81       	ldd	r24, Y+3	; 0x03
     abe:	9c 81       	ldd	r25, Y+4	; 0x04
     ac0:	01 97       	sbiw	r24, 0x01	; 1
     ac2:	29 f4       	brne	.+10     	; 0xace <setLow+0x26>
     ac4:	8e e2       	ldi	r24, 0x2E	; 46
     ac6:	90 e0       	ldi	r25, 0x00	; 0
     ac8:	fc 01       	movw	r30, r24
     aca:	10 82       	st	Z, r1
     acc:	08 c0       	rjmp	.+16     	; 0xade <setLow+0x36>
     ace:	8b 81       	ldd	r24, Y+3	; 0x03
     ad0:	9c 81       	ldd	r25, Y+4	; 0x04
     ad2:	03 97       	sbiw	r24, 0x03	; 3
     ad4:	21 f4       	brne	.+8      	; 0xade <setLow+0x36>
     ad6:	8e e2       	ldi	r24, 0x2E	; 46
     ad8:	90 e0       	ldi	r25, 0x00	; 0
     ada:	fc 01       	movw	r30, r24
     adc:	10 82       	st	Z, r1
     ade:	80 e0       	ldi	r24, 0x00	; 0
     ae0:	90 e0       	ldi	r25, 0x00	; 0
     ae2:	0f 90       	pop	r0
     ae4:	0f 90       	pop	r0
     ae6:	0f 90       	pop	r0
     ae8:	0f 90       	pop	r0
     aea:	df 91       	pop	r29
     aec:	cf 91       	pop	r28
     aee:	08 95       	ret

00000af0 <increase>:
     af0:	cf 92       	push	r12
     af2:	df 92       	push	r13
     af4:	ef 92       	push	r14
     af6:	ff 92       	push	r15
     af8:	0f 93       	push	r16
     afa:	1f 93       	push	r17
     afc:	cf 93       	push	r28
     afe:	df 93       	push	r29
     b00:	00 d0       	rcall	.+0      	; 0xb02 <increase+0x12>
     b02:	00 d0       	rcall	.+0      	; 0xb04 <increase+0x14>
     b04:	00 d0       	rcall	.+0      	; 0xb06 <increase+0x16>
     b06:	cd b7       	in	r28, 0x3d	; 61
     b08:	de b7       	in	r29, 0x3e	; 62
     b0a:	9c 83       	std	Y+4, r25	; 0x04
     b0c:	8b 83       	std	Y+3, r24	; 0x03
     b0e:	7e 83       	std	Y+6, r23	; 0x06
     b10:	6d 83       	std	Y+5, r22	; 0x05
     b12:	8b 81       	ldd	r24, Y+3	; 0x03
     b14:	9c 81       	ldd	r25, Y+4	; 0x04
     b16:	fc 01       	movw	r30, r24
     b18:	84 81       	ldd	r24, Z+4	; 0x04
     b1a:	95 81       	ldd	r25, Z+5	; 0x05
     b1c:	83 36       	cpi	r24, 0x63	; 99
     b1e:	91 05       	cpc	r25, r1
     b20:	6c f4       	brge	.+26     	; 0xb3c <increase+0x4c>
     b22:	8b 81       	ldd	r24, Y+3	; 0x03
     b24:	9c 81       	ldd	r25, Y+4	; 0x04
     b26:	fc 01       	movw	r30, r24
     b28:	84 81       	ldd	r24, Z+4	; 0x04
     b2a:	95 81       	ldd	r25, Z+5	; 0x05
     b2c:	9c 01       	movw	r18, r24
     b2e:	2f 5f       	subi	r18, 0xFF	; 255
     b30:	3f 4f       	sbci	r19, 0xFF	; 255
     b32:	8b 81       	ldd	r24, Y+3	; 0x03
     b34:	9c 81       	ldd	r25, Y+4	; 0x04
     b36:	fc 01       	movw	r30, r24
     b38:	35 83       	std	Z+5, r19	; 0x05
     b3a:	24 83       	std	Z+4, r18	; 0x04
     b3c:	8b 81       	ldd	r24, Y+3	; 0x03
     b3e:	9c 81       	ldd	r25, Y+4	; 0x04
     b40:	fc 01       	movw	r30, r24
     b42:	84 81       	ldd	r24, Z+4	; 0x04
     b44:	95 81       	ldd	r25, Z+5	; 0x05
     b46:	8f 77       	andi	r24, 0x7F	; 127
     b48:	8f 77       	andi	r24, 0x7F	; 127
     b4a:	99 81       	ldd	r25, Y+1	; 0x01
     b4c:	90 78       	andi	r25, 0x80	; 128
     b4e:	89 2b       	or	r24, r25
     b50:	89 83       	std	Y+1, r24	; 0x01
     b52:	8b 81       	ldd	r24, Y+3	; 0x03
     b54:	9c 81       	ldd	r25, Y+4	; 0x04
     b56:	fc 01       	movw	r30, r24
     b58:	80 85       	ldd	r24, Z+8	; 0x08
     b5a:	91 85       	ldd	r25, Z+9	; 0x09
     b5c:	87 70       	andi	r24, 0x07	; 7
     b5e:	98 2f       	mov	r25, r24
     b60:	91 70       	andi	r25, 0x01	; 1
     b62:	97 95       	ror	r25
     b64:	99 27       	eor	r25, r25
     b66:	97 95       	ror	r25
     b68:	29 81       	ldd	r18, Y+1	; 0x01
     b6a:	2f 77       	andi	r18, 0x7F	; 127
     b6c:	92 2b       	or	r25, r18
     b6e:	99 83       	std	Y+1, r25	; 0x01
     b70:	86 95       	lsr	r24
     b72:	83 70       	andi	r24, 0x03	; 3
     b74:	83 70       	andi	r24, 0x03	; 3
     b76:	9a 81       	ldd	r25, Y+2	; 0x02
     b78:	9c 7f       	andi	r25, 0xFC	; 252
     b7a:	89 2b       	or	r24, r25
     b7c:	8a 83       	std	Y+2, r24	; 0x02
     b7e:	29 81       	ldd	r18, Y+1	; 0x01
     b80:	3a 81       	ldd	r19, Y+2	; 0x02
     b82:	8b 81       	ldd	r24, Y+3	; 0x03
     b84:	9c 81       	ldd	r25, Y+4	; 0x04
     b86:	fc 01       	movw	r30, r24
     b88:	86 85       	ldd	r24, Z+14	; 0x0e
     b8a:	97 85       	ldd	r25, Z+15	; 0x0f
     b8c:	69 01       	movw	r12, r18
     b8e:	0f 2e       	mov	r0, r31
     b90:	fd ee       	ldi	r31, 0xED	; 237
     b92:	ef 2e       	mov	r14, r31
     b94:	f3 e0       	ldi	r31, 0x03	; 3
     b96:	ff 2e       	mov	r15, r31
     b98:	f0 2d       	mov	r31, r0
     b9a:	8c 01       	movw	r16, r24
     b9c:	20 e0       	ldi	r18, 0x00	; 0
     b9e:	30 e0       	ldi	r19, 0x00	; 0
     ba0:	a9 01       	movw	r20, r18
     ba2:	60 e0       	ldi	r22, 0x00	; 0
     ba4:	70 e0       	ldi	r23, 0x00	; 0
     ba6:	cb 01       	movw	r24, r22
     ba8:	0e 94 62 15 	call	0x2ac4	; 0x2ac4 <async>
     bac:	8b 81       	ldd	r24, Y+3	; 0x03
     bae:	9c 81       	ldd	r25, Y+4	; 0x04
     bb0:	fc 01       	movw	r30, r24
     bb2:	84 81       	ldd	r24, Z+4	; 0x04
     bb4:	95 81       	ldd	r25, Z+5	; 0x05
     bb6:	01 97       	sbiw	r24, 0x01	; 1
     bb8:	99 f4       	brne	.+38     	; 0xbe0 <increase+0xf0>
     bba:	8b 81       	ldd	r24, Y+3	; 0x03
     bbc:	9c 81       	ldd	r25, Y+4	; 0x04
     bbe:	c1 2c       	mov	r12, r1
     bc0:	d1 2c       	mov	r13, r1
     bc2:	0f 2e       	mov	r0, r31
     bc4:	fb e3       	ldi	r31, 0x3B	; 59
     bc6:	ef 2e       	mov	r14, r31
     bc8:	f7 e0       	ldi	r31, 0x07	; 7
     bca:	ff 2e       	mov	r15, r31
     bcc:	f0 2d       	mov	r31, r0
     bce:	8c 01       	movw	r16, r24
     bd0:	20 e0       	ldi	r18, 0x00	; 0
     bd2:	30 e0       	ldi	r19, 0x00	; 0
     bd4:	a9 01       	movw	r20, r18
     bd6:	60 e0       	ldi	r22, 0x00	; 0
     bd8:	70 e0       	ldi	r23, 0x00	; 0
     bda:	cb 01       	movw	r24, r22
     bdc:	0e 94 62 15 	call	0x2ac4	; 0x2ac4 <async>
     be0:	8b 81       	ldd	r24, Y+3	; 0x03
     be2:	9c 81       	ldd	r25, Y+4	; 0x04
     be4:	fc 01       	movw	r30, r24
     be6:	84 81       	ldd	r24, Z+4	; 0x04
     be8:	95 81       	ldd	r25, Z+5	; 0x05
     bea:	26 96       	adiw	r28, 0x06	; 6
     bec:	0f b6       	in	r0, 0x3f	; 63
     bee:	f8 94       	cli
     bf0:	de bf       	out	0x3e, r29	; 62
     bf2:	0f be       	out	0x3f, r0	; 63
     bf4:	cd bf       	out	0x3d, r28	; 61
     bf6:	df 91       	pop	r29
     bf8:	cf 91       	pop	r28
     bfa:	1f 91       	pop	r17
     bfc:	0f 91       	pop	r16
     bfe:	ff 90       	pop	r15
     c00:	ef 90       	pop	r14
     c02:	df 90       	pop	r13
     c04:	cf 90       	pop	r12
     c06:	08 95       	ret

00000c08 <decrease>:
     c08:	cf 92       	push	r12
     c0a:	df 92       	push	r13
     c0c:	ef 92       	push	r14
     c0e:	ff 92       	push	r15
     c10:	0f 93       	push	r16
     c12:	1f 93       	push	r17
     c14:	cf 93       	push	r28
     c16:	df 93       	push	r29
     c18:	00 d0       	rcall	.+0      	; 0xc1a <decrease+0x12>
     c1a:	00 d0       	rcall	.+0      	; 0xc1c <decrease+0x14>
     c1c:	00 d0       	rcall	.+0      	; 0xc1e <decrease+0x16>
     c1e:	cd b7       	in	r28, 0x3d	; 61
     c20:	de b7       	in	r29, 0x3e	; 62
     c22:	9c 83       	std	Y+4, r25	; 0x04
     c24:	8b 83       	std	Y+3, r24	; 0x03
     c26:	7e 83       	std	Y+6, r23	; 0x06
     c28:	6d 83       	std	Y+5, r22	; 0x05
     c2a:	8b 81       	ldd	r24, Y+3	; 0x03
     c2c:	9c 81       	ldd	r25, Y+4	; 0x04
     c2e:	fc 01       	movw	r30, r24
     c30:	84 81       	ldd	r24, Z+4	; 0x04
     c32:	95 81       	ldd	r25, Z+5	; 0x05
     c34:	89 2b       	or	r24, r25
     c36:	69 f0       	breq	.+26     	; 0xc52 <decrease+0x4a>
     c38:	8b 81       	ldd	r24, Y+3	; 0x03
     c3a:	9c 81       	ldd	r25, Y+4	; 0x04
     c3c:	fc 01       	movw	r30, r24
     c3e:	84 81       	ldd	r24, Z+4	; 0x04
     c40:	95 81       	ldd	r25, Z+5	; 0x05
     c42:	9c 01       	movw	r18, r24
     c44:	21 50       	subi	r18, 0x01	; 1
     c46:	31 09       	sbc	r19, r1
     c48:	8b 81       	ldd	r24, Y+3	; 0x03
     c4a:	9c 81       	ldd	r25, Y+4	; 0x04
     c4c:	fc 01       	movw	r30, r24
     c4e:	35 83       	std	Z+5, r19	; 0x05
     c50:	24 83       	std	Z+4, r18	; 0x04
     c52:	8b 81       	ldd	r24, Y+3	; 0x03
     c54:	9c 81       	ldd	r25, Y+4	; 0x04
     c56:	fc 01       	movw	r30, r24
     c58:	22 85       	ldd	r18, Z+10	; 0x0a
     c5a:	33 85       	ldd	r19, Z+11	; 0x0b
     c5c:	8b 81       	ldd	r24, Y+3	; 0x03
     c5e:	9c 81       	ldd	r25, Y+4	; 0x04
     c60:	69 01       	movw	r12, r18
     c62:	0f 2e       	mov	r0, r31
     c64:	f4 e5       	ldi	r31, 0x54	; 84
     c66:	ef 2e       	mov	r14, r31
     c68:	f5 e0       	ldi	r31, 0x05	; 5
     c6a:	ff 2e       	mov	r15, r31
     c6c:	f0 2d       	mov	r31, r0
     c6e:	8c 01       	movw	r16, r24
     c70:	20 e0       	ldi	r18, 0x00	; 0
     c72:	30 e0       	ldi	r19, 0x00	; 0
     c74:	a9 01       	movw	r20, r18
     c76:	60 e0       	ldi	r22, 0x00	; 0
     c78:	70 e0       	ldi	r23, 0x00	; 0
     c7a:	cb 01       	movw	r24, r22
     c7c:	0e 94 62 15 	call	0x2ac4	; 0x2ac4 <async>
     c80:	8b 81       	ldd	r24, Y+3	; 0x03
     c82:	9c 81       	ldd	r25, Y+4	; 0x04
     c84:	fc 01       	movw	r30, r24
     c86:	84 81       	ldd	r24, Z+4	; 0x04
     c88:	95 81       	ldd	r25, Z+5	; 0x05
     c8a:	8f 77       	andi	r24, 0x7F	; 127
     c8c:	8f 77       	andi	r24, 0x7F	; 127
     c8e:	99 81       	ldd	r25, Y+1	; 0x01
     c90:	90 78       	andi	r25, 0x80	; 128
     c92:	89 2b       	or	r24, r25
     c94:	89 83       	std	Y+1, r24	; 0x01
     c96:	8b 81       	ldd	r24, Y+3	; 0x03
     c98:	9c 81       	ldd	r25, Y+4	; 0x04
     c9a:	fc 01       	movw	r30, r24
     c9c:	80 85       	ldd	r24, Z+8	; 0x08
     c9e:	91 85       	ldd	r25, Z+9	; 0x09
     ca0:	87 70       	andi	r24, 0x07	; 7
     ca2:	98 2f       	mov	r25, r24
     ca4:	91 70       	andi	r25, 0x01	; 1
     ca6:	97 95       	ror	r25
     ca8:	99 27       	eor	r25, r25
     caa:	97 95       	ror	r25
     cac:	29 81       	ldd	r18, Y+1	; 0x01
     cae:	2f 77       	andi	r18, 0x7F	; 127
     cb0:	92 2b       	or	r25, r18
     cb2:	99 83       	std	Y+1, r25	; 0x01
     cb4:	86 95       	lsr	r24
     cb6:	83 70       	andi	r24, 0x03	; 3
     cb8:	83 70       	andi	r24, 0x03	; 3
     cba:	9a 81       	ldd	r25, Y+2	; 0x02
     cbc:	9c 7f       	andi	r25, 0xFC	; 252
     cbe:	89 2b       	or	r24, r25
     cc0:	8a 83       	std	Y+2, r24	; 0x02
     cc2:	29 81       	ldd	r18, Y+1	; 0x01
     cc4:	3a 81       	ldd	r19, Y+2	; 0x02
     cc6:	8b 81       	ldd	r24, Y+3	; 0x03
     cc8:	9c 81       	ldd	r25, Y+4	; 0x04
     cca:	fc 01       	movw	r30, r24
     ccc:	86 85       	ldd	r24, Z+14	; 0x0e
     cce:	97 85       	ldd	r25, Z+15	; 0x0f
     cd0:	69 01       	movw	r12, r18
     cd2:	0f 2e       	mov	r0, r31
     cd4:	fd ee       	ldi	r31, 0xED	; 237
     cd6:	ef 2e       	mov	r14, r31
     cd8:	f3 e0       	ldi	r31, 0x03	; 3
     cda:	ff 2e       	mov	r15, r31
     cdc:	f0 2d       	mov	r31, r0
     cde:	8c 01       	movw	r16, r24
     ce0:	20 e0       	ldi	r18, 0x00	; 0
     ce2:	30 e0       	ldi	r19, 0x00	; 0
     ce4:	a9 01       	movw	r20, r18
     ce6:	60 e0       	ldi	r22, 0x00	; 0
     ce8:	70 e0       	ldi	r23, 0x00	; 0
     cea:	cb 01       	movw	r24, r22
     cec:	0e 94 62 15 	call	0x2ac4	; 0x2ac4 <async>
     cf0:	8b 81       	ldd	r24, Y+3	; 0x03
     cf2:	9c 81       	ldd	r25, Y+4	; 0x04
     cf4:	fc 01       	movw	r30, r24
     cf6:	84 81       	ldd	r24, Z+4	; 0x04
     cf8:	95 81       	ldd	r25, Z+5	; 0x05
     cfa:	26 96       	adiw	r28, 0x06	; 6
     cfc:	0f b6       	in	r0, 0x3f	; 63
     cfe:	f8 94       	cli
     d00:	de bf       	out	0x3e, r29	; 62
     d02:	0f be       	out	0x3f, r0	; 63
     d04:	cd bf       	out	0x3d, r28	; 61
     d06:	df 91       	pop	r29
     d08:	cf 91       	pop	r28
     d0a:	1f 91       	pop	r17
     d0c:	0f 91       	pop	r16
     d0e:	ff 90       	pop	r15
     d10:	ef 90       	pop	r14
     d12:	df 90       	pop	r13
     d14:	cf 90       	pop	r12
     d16:	08 95       	ret

00000d18 <reset>:
     d18:	cf 92       	push	r12
     d1a:	df 92       	push	r13
     d1c:	ef 92       	push	r14
     d1e:	ff 92       	push	r15
     d20:	0f 93       	push	r16
     d22:	1f 93       	push	r17
     d24:	cf 93       	push	r28
     d26:	df 93       	push	r29
     d28:	00 d0       	rcall	.+0      	; 0xd2a <reset+0x12>
     d2a:	00 d0       	rcall	.+0      	; 0xd2c <reset+0x14>
     d2c:	00 d0       	rcall	.+0      	; 0xd2e <reset+0x16>
     d2e:	cd b7       	in	r28, 0x3d	; 61
     d30:	de b7       	in	r29, 0x3e	; 62
     d32:	9c 83       	std	Y+4, r25	; 0x04
     d34:	8b 83       	std	Y+3, r24	; 0x03
     d36:	7e 83       	std	Y+6, r23	; 0x06
     d38:	6d 83       	std	Y+5, r22	; 0x05
     d3a:	8b 81       	ldd	r24, Y+3	; 0x03
     d3c:	9c 81       	ldd	r25, Y+4	; 0x04
     d3e:	fc 01       	movw	r30, r24
     d40:	84 81       	ldd	r24, Z+4	; 0x04
     d42:	95 81       	ldd	r25, Z+5	; 0x05
     d44:	89 2b       	or	r24, r25
     d46:	29 f5       	brne	.+74     	; 0xd92 <reset+0x7a>
     d48:	8b 81       	ldd	r24, Y+3	; 0x03
     d4a:	9c 81       	ldd	r25, Y+4	; 0x04
     d4c:	fc 01       	movw	r30, r24
     d4e:	26 81       	ldd	r18, Z+6	; 0x06
     d50:	37 81       	ldd	r19, Z+7	; 0x07
     d52:	8b 81       	ldd	r24, Y+3	; 0x03
     d54:	9c 81       	ldd	r25, Y+4	; 0x04
     d56:	fc 01       	movw	r30, r24
     d58:	35 83       	std	Z+5, r19	; 0x05
     d5a:	24 83       	std	Z+4, r18	; 0x04
     d5c:	8b 81       	ldd	r24, Y+3	; 0x03
     d5e:	9c 81       	ldd	r25, Y+4	; 0x04
     d60:	fc 01       	movw	r30, r24
     d62:	84 81       	ldd	r24, Z+4	; 0x04
     d64:	95 81       	ldd	r25, Z+5	; 0x05
     d66:	89 2b       	or	r24, r25
     d68:	d1 f1       	breq	.+116    	; 0xdde <reset+0xc6>
     d6a:	8b 81       	ldd	r24, Y+3	; 0x03
     d6c:	9c 81       	ldd	r25, Y+4	; 0x04
     d6e:	c1 2c       	mov	r12, r1
     d70:	d1 2c       	mov	r13, r1
     d72:	0f 2e       	mov	r0, r31
     d74:	fb e3       	ldi	r31, 0x3B	; 59
     d76:	ef 2e       	mov	r14, r31
     d78:	f7 e0       	ldi	r31, 0x07	; 7
     d7a:	ff 2e       	mov	r15, r31
     d7c:	f0 2d       	mov	r31, r0
     d7e:	8c 01       	movw	r16, r24
     d80:	20 e0       	ldi	r18, 0x00	; 0
     d82:	30 e0       	ldi	r19, 0x00	; 0
     d84:	a9 01       	movw	r20, r18
     d86:	60 e0       	ldi	r22, 0x00	; 0
     d88:	70 e0       	ldi	r23, 0x00	; 0
     d8a:	cb 01       	movw	r24, r22
     d8c:	0e 94 62 15 	call	0x2ac4	; 0x2ac4 <async>
     d90:	26 c0       	rjmp	.+76     	; 0xdde <reset+0xc6>
     d92:	8b 81       	ldd	r24, Y+3	; 0x03
     d94:	9c 81       	ldd	r25, Y+4	; 0x04
     d96:	fc 01       	movw	r30, r24
     d98:	24 81       	ldd	r18, Z+4	; 0x04
     d9a:	35 81       	ldd	r19, Z+5	; 0x05
     d9c:	8b 81       	ldd	r24, Y+3	; 0x03
     d9e:	9c 81       	ldd	r25, Y+4	; 0x04
     da0:	fc 01       	movw	r30, r24
     da2:	37 83       	std	Z+7, r19	; 0x07
     da4:	26 83       	std	Z+6, r18	; 0x06
     da6:	8b 81       	ldd	r24, Y+3	; 0x03
     da8:	9c 81       	ldd	r25, Y+4	; 0x04
     daa:	fc 01       	movw	r30, r24
     dac:	15 82       	std	Z+5, r1	; 0x05
     dae:	14 82       	std	Z+4, r1	; 0x04
     db0:	8b 81       	ldd	r24, Y+3	; 0x03
     db2:	9c 81       	ldd	r25, Y+4	; 0x04
     db4:	fc 01       	movw	r30, r24
     db6:	22 85       	ldd	r18, Z+10	; 0x0a
     db8:	33 85       	ldd	r19, Z+11	; 0x0b
     dba:	8b 81       	ldd	r24, Y+3	; 0x03
     dbc:	9c 81       	ldd	r25, Y+4	; 0x04
     dbe:	69 01       	movw	r12, r18
     dc0:	0f 2e       	mov	r0, r31
     dc2:	f4 e5       	ldi	r31, 0x54	; 84
     dc4:	ef 2e       	mov	r14, r31
     dc6:	f5 e0       	ldi	r31, 0x05	; 5
     dc8:	ff 2e       	mov	r15, r31
     dca:	f0 2d       	mov	r31, r0
     dcc:	8c 01       	movw	r16, r24
     dce:	20 e0       	ldi	r18, 0x00	; 0
     dd0:	30 e0       	ldi	r19, 0x00	; 0
     dd2:	a9 01       	movw	r20, r18
     dd4:	60 e0       	ldi	r22, 0x00	; 0
     dd6:	70 e0       	ldi	r23, 0x00	; 0
     dd8:	cb 01       	movw	r24, r22
     dda:	0e 94 62 15 	call	0x2ac4	; 0x2ac4 <async>
     dde:	8b 81       	ldd	r24, Y+3	; 0x03
     de0:	9c 81       	ldd	r25, Y+4	; 0x04
     de2:	fc 01       	movw	r30, r24
     de4:	84 81       	ldd	r24, Z+4	; 0x04
     de6:	95 81       	ldd	r25, Z+5	; 0x05
     de8:	8f 77       	andi	r24, 0x7F	; 127
     dea:	8f 77       	andi	r24, 0x7F	; 127
     dec:	99 81       	ldd	r25, Y+1	; 0x01
     dee:	90 78       	andi	r25, 0x80	; 128
     df0:	89 2b       	or	r24, r25
     df2:	89 83       	std	Y+1, r24	; 0x01
     df4:	8b 81       	ldd	r24, Y+3	; 0x03
     df6:	9c 81       	ldd	r25, Y+4	; 0x04
     df8:	fc 01       	movw	r30, r24
     dfa:	80 85       	ldd	r24, Z+8	; 0x08
     dfc:	91 85       	ldd	r25, Z+9	; 0x09
     dfe:	87 70       	andi	r24, 0x07	; 7
     e00:	98 2f       	mov	r25, r24
     e02:	91 70       	andi	r25, 0x01	; 1
     e04:	97 95       	ror	r25
     e06:	99 27       	eor	r25, r25
     e08:	97 95       	ror	r25
     e0a:	29 81       	ldd	r18, Y+1	; 0x01
     e0c:	2f 77       	andi	r18, 0x7F	; 127
     e0e:	92 2b       	or	r25, r18
     e10:	99 83       	std	Y+1, r25	; 0x01
     e12:	86 95       	lsr	r24
     e14:	83 70       	andi	r24, 0x03	; 3
     e16:	83 70       	andi	r24, 0x03	; 3
     e18:	9a 81       	ldd	r25, Y+2	; 0x02
     e1a:	9c 7f       	andi	r25, 0xFC	; 252
     e1c:	89 2b       	or	r24, r25
     e1e:	8a 83       	std	Y+2, r24	; 0x02
     e20:	29 81       	ldd	r18, Y+1	; 0x01
     e22:	3a 81       	ldd	r19, Y+2	; 0x02
     e24:	8b 81       	ldd	r24, Y+3	; 0x03
     e26:	9c 81       	ldd	r25, Y+4	; 0x04
     e28:	fc 01       	movw	r30, r24
     e2a:	86 85       	ldd	r24, Z+14	; 0x0e
     e2c:	97 85       	ldd	r25, Z+15	; 0x0f
     e2e:	69 01       	movw	r12, r18
     e30:	0f 2e       	mov	r0, r31
     e32:	fd ee       	ldi	r31, 0xED	; 237
     e34:	ef 2e       	mov	r14, r31
     e36:	f3 e0       	ldi	r31, 0x03	; 3
     e38:	ff 2e       	mov	r15, r31
     e3a:	f0 2d       	mov	r31, r0
     e3c:	8c 01       	movw	r16, r24
     e3e:	20 e0       	ldi	r18, 0x00	; 0
     e40:	30 e0       	ldi	r19, 0x00	; 0
     e42:	a9 01       	movw	r20, r18
     e44:	60 e0       	ldi	r22, 0x00	; 0
     e46:	70 e0       	ldi	r23, 0x00	; 0
     e48:	cb 01       	movw	r24, r22
     e4a:	0e 94 62 15 	call	0x2ac4	; 0x2ac4 <async>
     e4e:	8b 81       	ldd	r24, Y+3	; 0x03
     e50:	9c 81       	ldd	r25, Y+4	; 0x04
     e52:	fc 01       	movw	r30, r24
     e54:	84 81       	ldd	r24, Z+4	; 0x04
     e56:	95 81       	ldd	r25, Z+5	; 0x05
     e58:	26 96       	adiw	r28, 0x06	; 6
     e5a:	0f b6       	in	r0, 0x3f	; 63
     e5c:	f8 94       	cli
     e5e:	de bf       	out	0x3e, r29	; 62
     e60:	0f be       	out	0x3f, r0	; 63
     e62:	cd bf       	out	0x3d, r28	; 61
     e64:	df 91       	pop	r29
     e66:	cf 91       	pop	r28
     e68:	1f 91       	pop	r17
     e6a:	0f 91       	pop	r16
     e6c:	ff 90       	pop	r15
     e6e:	ef 90       	pop	r14
     e70:	df 90       	pop	r13
     e72:	cf 90       	pop	r12
     e74:	08 95       	ret

00000e76 <generator>:
     e76:	8f 92       	push	r8
     e78:	9f 92       	push	r9
     e7a:	af 92       	push	r10
     e7c:	bf 92       	push	r11
     e7e:	cf 92       	push	r12
     e80:	df 92       	push	r13
     e82:	ef 92       	push	r14
     e84:	ff 92       	push	r15
     e86:	0f 93       	push	r16
     e88:	1f 93       	push	r17
     e8a:	cf 93       	push	r28
     e8c:	df 93       	push	r29
     e8e:	00 d0       	rcall	.+0      	; 0xe90 <generator+0x1a>
     e90:	00 d0       	rcall	.+0      	; 0xe92 <generator+0x1c>
     e92:	00 d0       	rcall	.+0      	; 0xe94 <generator+0x1e>
     e94:	cd b7       	in	r28, 0x3d	; 61
     e96:	de b7       	in	r29, 0x3e	; 62
     e98:	9c 83       	std	Y+4, r25	; 0x04
     e9a:	8b 83       	std	Y+3, r24	; 0x03
     e9c:	7e 83       	std	Y+6, r23	; 0x06
     e9e:	6d 83       	std	Y+5, r22	; 0x05
     ea0:	8b 81       	ldd	r24, Y+3	; 0x03
     ea2:	9c 81       	ldd	r25, Y+4	; 0x04
     ea4:	fc 01       	movw	r30, r24
     ea6:	84 81       	ldd	r24, Z+4	; 0x04
     ea8:	95 81       	ldd	r25, Z+5	; 0x05
     eaa:	89 2b       	or	r24, r25
     eac:	09 f4       	brne	.+2      	; 0xeb0 <generator+0x3a>
     eae:	55 c0       	rjmp	.+170    	; 0xf5a <generator+0xe4>
     eb0:	8b 81       	ldd	r24, Y+3	; 0x03
     eb2:	9c 81       	ldd	r25, Y+4	; 0x04
     eb4:	fc 01       	movw	r30, r24
     eb6:	22 85       	ldd	r18, Z+10	; 0x0a
     eb8:	33 85       	ldd	r19, Z+11	; 0x0b
     eba:	8b 81       	ldd	r24, Y+3	; 0x03
     ebc:	9c 81       	ldd	r25, Y+4	; 0x04
     ebe:	fc 01       	movw	r30, r24
     ec0:	84 85       	ldd	r24, Z+12	; 0x0c
     ec2:	95 85       	ldd	r25, Z+13	; 0x0d
     ec4:	69 01       	movw	r12, r18
     ec6:	0f 2e       	mov	r0, r31
     ec8:	fa e1       	ldi	r31, 0x1A	; 26
     eca:	ef 2e       	mov	r14, r31
     ecc:	f5 e0       	ldi	r31, 0x05	; 5
     ece:	ff 2e       	mov	r15, r31
     ed0:	f0 2d       	mov	r31, r0
     ed2:	8c 01       	movw	r16, r24
     ed4:	20 e0       	ldi	r18, 0x00	; 0
     ed6:	30 e0       	ldi	r19, 0x00	; 0
     ed8:	a9 01       	movw	r20, r18
     eda:	60 e0       	ldi	r22, 0x00	; 0
     edc:	70 e0       	ldi	r23, 0x00	; 0
     ede:	cb 01       	movw	r24, r22
     ee0:	0e 94 62 15 	call	0x2ac4	; 0x2ac4 <async>
     ee4:	8b 81       	ldd	r24, Y+3	; 0x03
     ee6:	9c 81       	ldd	r25, Y+4	; 0x04
     ee8:	fc 01       	movw	r30, r24
     eea:	24 81       	ldd	r18, Z+4	; 0x04
     eec:	35 81       	ldd	r19, Z+5	; 0x05
     eee:	84 ef       	ldi	r24, 0xF4	; 244
     ef0:	91 e0       	ldi	r25, 0x01	; 1
     ef2:	b9 01       	movw	r22, r18
     ef4:	0e 94 50 19 	call	0x32a0	; 0x32a0 <__divmodhi4>
     ef8:	cb 01       	movw	r24, r22
     efa:	9a 83       	std	Y+2, r25	; 0x02
     efc:	89 83       	std	Y+1, r24	; 0x01
     efe:	89 81       	ldd	r24, Y+1	; 0x01
     f00:	9a 81       	ldd	r25, Y+2	; 0x02
     f02:	9c 01       	movw	r18, r24
     f04:	99 0f       	add	r25, r25
     f06:	44 0b       	sbc	r20, r20
     f08:	55 0b       	sbc	r21, r21
     f0a:	8d e7       	ldi	r24, 0x7D	; 125
     f0c:	90 e0       	ldi	r25, 0x00	; 0
     f0e:	dc 01       	movw	r26, r24
     f10:	0e 94 64 19 	call	0x32c8	; 0x32c8 <__muluhisi3>
     f14:	dc 01       	movw	r26, r24
     f16:	cb 01       	movw	r24, r22
     f18:	bb 23       	and	r27, r27
     f1a:	1c f4       	brge	.+6      	; 0xf22 <generator+0xac>
     f1c:	03 96       	adiw	r24, 0x03	; 3
     f1e:	a1 1d       	adc	r26, r1
     f20:	b1 1d       	adc	r27, r1
     f22:	b5 95       	asr	r27
     f24:	a7 95       	ror	r26
     f26:	97 95       	ror	r25
     f28:	87 95       	ror	r24
     f2a:	b5 95       	asr	r27
     f2c:	a7 95       	ror	r26
     f2e:	97 95       	ror	r25
     f30:	87 95       	ror	r24
     f32:	4c 01       	movw	r8, r24
     f34:	5d 01       	movw	r10, r26
     f36:	8b 81       	ldd	r24, Y+3	; 0x03
     f38:	9c 81       	ldd	r25, Y+4	; 0x04
     f3a:	c1 2c       	mov	r12, r1
     f3c:	d1 2c       	mov	r13, r1
     f3e:	0f 2e       	mov	r0, r31
     f40:	fb e3       	ldi	r31, 0x3B	; 59
     f42:	ef 2e       	mov	r14, r31
     f44:	f7 e0       	ldi	r31, 0x07	; 7
     f46:	ff 2e       	mov	r15, r31
     f48:	f0 2d       	mov	r31, r0
     f4a:	8c 01       	movw	r16, r24
     f4c:	20 e0       	ldi	r18, 0x00	; 0
     f4e:	30 e0       	ldi	r19, 0x00	; 0
     f50:	a9 01       	movw	r20, r18
     f52:	c5 01       	movw	r24, r10
     f54:	b4 01       	movw	r22, r8
     f56:	0e 94 62 15 	call	0x2ac4	; 0x2ac4 <async>
     f5a:	80 e0       	ldi	r24, 0x00	; 0
     f5c:	90 e0       	ldi	r25, 0x00	; 0
     f5e:	26 96       	adiw	r28, 0x06	; 6
     f60:	0f b6       	in	r0, 0x3f	; 63
     f62:	f8 94       	cli
     f64:	de bf       	out	0x3e, r29	; 62
     f66:	0f be       	out	0x3f, r0	; 63
     f68:	cd bf       	out	0x3d, r28	; 61
     f6a:	df 91       	pop	r29
     f6c:	cf 91       	pop	r28
     f6e:	1f 91       	pop	r17
     f70:	0f 91       	pop	r16
     f72:	ff 90       	pop	r15
     f74:	ef 90       	pop	r14
     f76:	df 90       	pop	r13
     f78:	cf 90       	pop	r12
     f7a:	bf 90       	pop	r11
     f7c:	af 90       	pop	r10
     f7e:	9f 90       	pop	r9
     f80:	8f 90       	pop	r8
     f82:	08 95       	ret

00000f84 <__vector_1>:
     f84:	1f 92       	push	r1
     f86:	0f 92       	push	r0
     f88:	00 90 5f 00 	lds	r0, 0x005F	; 0x80005f <__TEXT_REGION_LENGTH__+0x7fc05f>
     f8c:	0f 92       	push	r0
     f8e:	11 24       	eor	r1, r1
     f90:	2f 93       	push	r18
     f92:	3f 93       	push	r19
     f94:	4f 93       	push	r20
     f96:	5f 93       	push	r21
     f98:	6f 93       	push	r22
     f9a:	7f 93       	push	r23
     f9c:	8f 93       	push	r24
     f9e:	9f 93       	push	r25
     fa0:	af 93       	push	r26
     fa2:	bf 93       	push	r27
     fa4:	ef 93       	push	r30
     fa6:	ff 93       	push	r31
     fa8:	cf 93       	push	r28
     faa:	df 93       	push	r29
     fac:	cd b7       	in	r28, 0x3d	; 61
     fae:	de b7       	in	r29, 0x3e	; 62
     fb0:	80 91 40 01 	lds	r24, 0x0140	; 0x800140 <overflows>
     fb4:	90 91 41 01 	lds	r25, 0x0141	; 0x800141 <overflows+0x1>
     fb8:	09 2e       	mov	r0, r25
     fba:	00 0c       	add	r0, r0
     fbc:	aa 0b       	sbc	r26, r26
     fbe:	bb 0b       	sbc	r27, r27
     fc0:	ac 01       	movw	r20, r24
     fc2:	33 27       	eor	r19, r19
     fc4:	22 27       	eor	r18, r18
     fc6:	84 e8       	ldi	r24, 0x84	; 132
     fc8:	90 e0       	ldi	r25, 0x00	; 0
     fca:	fc 01       	movw	r30, r24
     fcc:	80 81       	ld	r24, Z
     fce:	91 81       	ldd	r25, Z+1	; 0x01
     fd0:	cc 01       	movw	r24, r24
     fd2:	a0 e0       	ldi	r26, 0x00	; 0
     fd4:	b0 e0       	ldi	r27, 0x00	; 0
     fd6:	82 2b       	or	r24, r18
     fd8:	93 2b       	or	r25, r19
     fda:	a4 2b       	or	r26, r20
     fdc:	b5 2b       	or	r27, r21
     fde:	80 93 3c 01 	sts	0x013C, r24	; 0x80013c <timestamp>
     fe2:	90 93 3d 01 	sts	0x013D, r25	; 0x80013d <timestamp+0x1>
     fe6:	a0 93 3e 01 	sts	0x013E, r26	; 0x80013e <timestamp+0x2>
     fea:	b0 93 3f 01 	sts	0x013F, r27	; 0x80013f <timestamp+0x3>
     fee:	86 e3       	ldi	r24, 0x36	; 54
     ff0:	90 e0       	ldi	r25, 0x00	; 0
     ff2:	fc 01       	movw	r30, r24
     ff4:	80 81       	ld	r24, Z
     ff6:	88 2f       	mov	r24, r24
     ff8:	90 e0       	ldi	r25, 0x00	; 0
     ffa:	81 70       	andi	r24, 0x01	; 1
     ffc:	99 27       	eor	r25, r25
     ffe:	89 2b       	or	r24, r25
    1000:	01 f1       	breq	.+64     	; 0x1042 <__vector_1+0xbe>
    1002:	80 91 40 01 	lds	r24, 0x0140	; 0x800140 <overflows>
    1006:	90 91 41 01 	lds	r25, 0x0141	; 0x800141 <overflows+0x1>
    100a:	01 96       	adiw	r24, 0x01	; 1
    100c:	09 2e       	mov	r0, r25
    100e:	00 0c       	add	r0, r0
    1010:	aa 0b       	sbc	r26, r26
    1012:	bb 0b       	sbc	r27, r27
    1014:	ac 01       	movw	r20, r24
    1016:	33 27       	eor	r19, r19
    1018:	22 27       	eor	r18, r18
    101a:	84 e8       	ldi	r24, 0x84	; 132
    101c:	90 e0       	ldi	r25, 0x00	; 0
    101e:	fc 01       	movw	r30, r24
    1020:	80 81       	ld	r24, Z
    1022:	91 81       	ldd	r25, Z+1	; 0x01
    1024:	cc 01       	movw	r24, r24
    1026:	a0 e0       	ldi	r26, 0x00	; 0
    1028:	b0 e0       	ldi	r27, 0x00	; 0
    102a:	82 2b       	or	r24, r18
    102c:	93 2b       	or	r25, r19
    102e:	a4 2b       	or	r26, r20
    1030:	b5 2b       	or	r27, r21
    1032:	80 93 3c 01 	sts	0x013C, r24	; 0x80013c <timestamp>
    1036:	90 93 3d 01 	sts	0x013D, r25	; 0x80013d <timestamp+0x1>
    103a:	a0 93 3e 01 	sts	0x013E, r26	; 0x80013e <timestamp+0x2>
    103e:	b0 93 3f 01 	sts	0x013F, r27	; 0x80013f <timestamp+0x3>
    1042:	80 91 da 01 	lds	r24, 0x01DA	; 0x8001da <mtable>
    1046:	90 91 db 01 	lds	r25, 0x01DB	; 0x8001db <mtable+0x1>
    104a:	89 2b       	or	r24, r25
    104c:	61 f0       	breq	.+24     	; 0x1066 <__vector_1+0xe2>
    104e:	20 91 da 01 	lds	r18, 0x01DA	; 0x8001da <mtable>
    1052:	30 91 db 01 	lds	r19, 0x01DB	; 0x8001db <mtable+0x1>
    1056:	80 91 42 01 	lds	r24, 0x0142	; 0x800142 <otable>
    105a:	90 91 43 01 	lds	r25, 0x0143	; 0x800143 <otable+0x1>
    105e:	60 e0       	ldi	r22, 0x00	; 0
    1060:	70 e0       	ldi	r23, 0x00	; 0
    1062:	f9 01       	movw	r30, r18
    1064:	09 95       	icall
    1066:	0e 94 0e 15 	call	0x2a1c	; 0x2a1c <schedule>
    106a:	00 00       	nop
    106c:	df 91       	pop	r29
    106e:	cf 91       	pop	r28
    1070:	ff 91       	pop	r31
    1072:	ef 91       	pop	r30
    1074:	bf 91       	pop	r27
    1076:	af 91       	pop	r26
    1078:	9f 91       	pop	r25
    107a:	8f 91       	pop	r24
    107c:	7f 91       	pop	r23
    107e:	6f 91       	pop	r22
    1080:	5f 91       	pop	r21
    1082:	4f 91       	pop	r20
    1084:	3f 91       	pop	r19
    1086:	2f 91       	pop	r18
    1088:	0f 90       	pop	r0
    108a:	00 92 5f 00 	sts	0x005F, r0	; 0x80005f <__TEXT_REGION_LENGTH__+0x7fc05f>
    108e:	0f 90       	pop	r0
    1090:	1f 90       	pop	r1
    1092:	18 95       	reti

00001094 <__vector_2>:
    1094:	1f 92       	push	r1
    1096:	0f 92       	push	r0
    1098:	00 90 5f 00 	lds	r0, 0x005F	; 0x80005f <__TEXT_REGION_LENGTH__+0x7fc05f>
    109c:	0f 92       	push	r0
    109e:	11 24       	eor	r1, r1
    10a0:	2f 93       	push	r18
    10a2:	3f 93       	push	r19
    10a4:	4f 93       	push	r20
    10a6:	5f 93       	push	r21
    10a8:	6f 93       	push	r22
    10aa:	7f 93       	push	r23
    10ac:	8f 93       	push	r24
    10ae:	9f 93       	push	r25
    10b0:	af 93       	push	r26
    10b2:	bf 93       	push	r27
    10b4:	ef 93       	push	r30
    10b6:	ff 93       	push	r31
    10b8:	cf 93       	push	r28
    10ba:	df 93       	push	r29
    10bc:	cd b7       	in	r28, 0x3d	; 61
    10be:	de b7       	in	r29, 0x3e	; 62
    10c0:	80 91 40 01 	lds	r24, 0x0140	; 0x800140 <overflows>
    10c4:	90 91 41 01 	lds	r25, 0x0141	; 0x800141 <overflows+0x1>
    10c8:	09 2e       	mov	r0, r25
    10ca:	00 0c       	add	r0, r0
    10cc:	aa 0b       	sbc	r26, r26
    10ce:	bb 0b       	sbc	r27, r27
    10d0:	ac 01       	movw	r20, r24
    10d2:	33 27       	eor	r19, r19
    10d4:	22 27       	eor	r18, r18
    10d6:	84 e8       	ldi	r24, 0x84	; 132
    10d8:	90 e0       	ldi	r25, 0x00	; 0
    10da:	fc 01       	movw	r30, r24
    10dc:	80 81       	ld	r24, Z
    10de:	91 81       	ldd	r25, Z+1	; 0x01
    10e0:	cc 01       	movw	r24, r24
    10e2:	a0 e0       	ldi	r26, 0x00	; 0
    10e4:	b0 e0       	ldi	r27, 0x00	; 0
    10e6:	82 2b       	or	r24, r18
    10e8:	93 2b       	or	r25, r19
    10ea:	a4 2b       	or	r26, r20
    10ec:	b5 2b       	or	r27, r21
    10ee:	80 93 3c 01 	sts	0x013C, r24	; 0x80013c <timestamp>
    10f2:	90 93 3d 01 	sts	0x013D, r25	; 0x80013d <timestamp+0x1>
    10f6:	a0 93 3e 01 	sts	0x013E, r26	; 0x80013e <timestamp+0x2>
    10fa:	b0 93 3f 01 	sts	0x013F, r27	; 0x80013f <timestamp+0x3>
    10fe:	86 e3       	ldi	r24, 0x36	; 54
    1100:	90 e0       	ldi	r25, 0x00	; 0
    1102:	fc 01       	movw	r30, r24
    1104:	80 81       	ld	r24, Z
    1106:	88 2f       	mov	r24, r24
    1108:	90 e0       	ldi	r25, 0x00	; 0
    110a:	81 70       	andi	r24, 0x01	; 1
    110c:	99 27       	eor	r25, r25
    110e:	89 2b       	or	r24, r25
    1110:	01 f1       	breq	.+64     	; 0x1152 <__vector_2+0xbe>
    1112:	80 91 40 01 	lds	r24, 0x0140	; 0x800140 <overflows>
    1116:	90 91 41 01 	lds	r25, 0x0141	; 0x800141 <overflows+0x1>
    111a:	01 96       	adiw	r24, 0x01	; 1
    111c:	09 2e       	mov	r0, r25
    111e:	00 0c       	add	r0, r0
    1120:	aa 0b       	sbc	r26, r26
    1122:	bb 0b       	sbc	r27, r27
    1124:	ac 01       	movw	r20, r24
    1126:	33 27       	eor	r19, r19
    1128:	22 27       	eor	r18, r18
    112a:	84 e8       	ldi	r24, 0x84	; 132
    112c:	90 e0       	ldi	r25, 0x00	; 0
    112e:	fc 01       	movw	r30, r24
    1130:	80 81       	ld	r24, Z
    1132:	91 81       	ldd	r25, Z+1	; 0x01
    1134:	cc 01       	movw	r24, r24
    1136:	a0 e0       	ldi	r26, 0x00	; 0
    1138:	b0 e0       	ldi	r27, 0x00	; 0
    113a:	82 2b       	or	r24, r18
    113c:	93 2b       	or	r25, r19
    113e:	a4 2b       	or	r26, r20
    1140:	b5 2b       	or	r27, r21
    1142:	80 93 3c 01 	sts	0x013C, r24	; 0x80013c <timestamp>
    1146:	90 93 3d 01 	sts	0x013D, r25	; 0x80013d <timestamp+0x1>
    114a:	a0 93 3e 01 	sts	0x013E, r26	; 0x80013e <timestamp+0x2>
    114e:	b0 93 3f 01 	sts	0x013F, r27	; 0x80013f <timestamp+0x3>
    1152:	80 91 dc 01 	lds	r24, 0x01DC	; 0x8001dc <mtable+0x2>
    1156:	90 91 dd 01 	lds	r25, 0x01DD	; 0x8001dd <mtable+0x3>
    115a:	89 2b       	or	r24, r25
    115c:	61 f0       	breq	.+24     	; 0x1176 <__vector_2+0xe2>
    115e:	20 91 dc 01 	lds	r18, 0x01DC	; 0x8001dc <mtable+0x2>
    1162:	30 91 dd 01 	lds	r19, 0x01DD	; 0x8001dd <mtable+0x3>
    1166:	80 91 44 01 	lds	r24, 0x0144	; 0x800144 <otable+0x2>
    116a:	90 91 45 01 	lds	r25, 0x0145	; 0x800145 <otable+0x3>
    116e:	61 e0       	ldi	r22, 0x01	; 1
    1170:	70 e0       	ldi	r23, 0x00	; 0
    1172:	f9 01       	movw	r30, r18
    1174:	09 95       	icall
    1176:	0e 94 0e 15 	call	0x2a1c	; 0x2a1c <schedule>
    117a:	00 00       	nop
    117c:	df 91       	pop	r29
    117e:	cf 91       	pop	r28
    1180:	ff 91       	pop	r31
    1182:	ef 91       	pop	r30
    1184:	bf 91       	pop	r27
    1186:	af 91       	pop	r26
    1188:	9f 91       	pop	r25
    118a:	8f 91       	pop	r24
    118c:	7f 91       	pop	r23
    118e:	6f 91       	pop	r22
    1190:	5f 91       	pop	r21
    1192:	4f 91       	pop	r20
    1194:	3f 91       	pop	r19
    1196:	2f 91       	pop	r18
    1198:	0f 90       	pop	r0
    119a:	00 92 5f 00 	sts	0x005F, r0	; 0x80005f <__TEXT_REGION_LENGTH__+0x7fc05f>
    119e:	0f 90       	pop	r0
    11a0:	1f 90       	pop	r1
    11a2:	18 95       	reti

000011a4 <__vector_3>:
    11a4:	1f 92       	push	r1
    11a6:	0f 92       	push	r0
    11a8:	00 90 5f 00 	lds	r0, 0x005F	; 0x80005f <__TEXT_REGION_LENGTH__+0x7fc05f>
    11ac:	0f 92       	push	r0
    11ae:	11 24       	eor	r1, r1
    11b0:	2f 93       	push	r18
    11b2:	3f 93       	push	r19
    11b4:	4f 93       	push	r20
    11b6:	5f 93       	push	r21
    11b8:	6f 93       	push	r22
    11ba:	7f 93       	push	r23
    11bc:	8f 93       	push	r24
    11be:	9f 93       	push	r25
    11c0:	af 93       	push	r26
    11c2:	bf 93       	push	r27
    11c4:	ef 93       	push	r30
    11c6:	ff 93       	push	r31
    11c8:	cf 93       	push	r28
    11ca:	df 93       	push	r29
    11cc:	cd b7       	in	r28, 0x3d	; 61
    11ce:	de b7       	in	r29, 0x3e	; 62
    11d0:	80 91 40 01 	lds	r24, 0x0140	; 0x800140 <overflows>
    11d4:	90 91 41 01 	lds	r25, 0x0141	; 0x800141 <overflows+0x1>
    11d8:	09 2e       	mov	r0, r25
    11da:	00 0c       	add	r0, r0
    11dc:	aa 0b       	sbc	r26, r26
    11de:	bb 0b       	sbc	r27, r27
    11e0:	ac 01       	movw	r20, r24
    11e2:	33 27       	eor	r19, r19
    11e4:	22 27       	eor	r18, r18
    11e6:	84 e8       	ldi	r24, 0x84	; 132
    11e8:	90 e0       	ldi	r25, 0x00	; 0
    11ea:	fc 01       	movw	r30, r24
    11ec:	80 81       	ld	r24, Z
    11ee:	91 81       	ldd	r25, Z+1	; 0x01
    11f0:	cc 01       	movw	r24, r24
    11f2:	a0 e0       	ldi	r26, 0x00	; 0
    11f4:	b0 e0       	ldi	r27, 0x00	; 0
    11f6:	82 2b       	or	r24, r18
    11f8:	93 2b       	or	r25, r19
    11fa:	a4 2b       	or	r26, r20
    11fc:	b5 2b       	or	r27, r21
    11fe:	80 93 3c 01 	sts	0x013C, r24	; 0x80013c <timestamp>
    1202:	90 93 3d 01 	sts	0x013D, r25	; 0x80013d <timestamp+0x1>
    1206:	a0 93 3e 01 	sts	0x013E, r26	; 0x80013e <timestamp+0x2>
    120a:	b0 93 3f 01 	sts	0x013F, r27	; 0x80013f <timestamp+0x3>
    120e:	86 e3       	ldi	r24, 0x36	; 54
    1210:	90 e0       	ldi	r25, 0x00	; 0
    1212:	fc 01       	movw	r30, r24
    1214:	80 81       	ld	r24, Z
    1216:	88 2f       	mov	r24, r24
    1218:	90 e0       	ldi	r25, 0x00	; 0
    121a:	81 70       	andi	r24, 0x01	; 1
    121c:	99 27       	eor	r25, r25
    121e:	89 2b       	or	r24, r25
    1220:	01 f1       	breq	.+64     	; 0x1262 <__vector_3+0xbe>
    1222:	80 91 40 01 	lds	r24, 0x0140	; 0x800140 <overflows>
    1226:	90 91 41 01 	lds	r25, 0x0141	; 0x800141 <overflows+0x1>
    122a:	01 96       	adiw	r24, 0x01	; 1
    122c:	09 2e       	mov	r0, r25
    122e:	00 0c       	add	r0, r0
    1230:	aa 0b       	sbc	r26, r26
    1232:	bb 0b       	sbc	r27, r27
    1234:	ac 01       	movw	r20, r24
    1236:	33 27       	eor	r19, r19
    1238:	22 27       	eor	r18, r18
    123a:	84 e8       	ldi	r24, 0x84	; 132
    123c:	90 e0       	ldi	r25, 0x00	; 0
    123e:	fc 01       	movw	r30, r24
    1240:	80 81       	ld	r24, Z
    1242:	91 81       	ldd	r25, Z+1	; 0x01
    1244:	cc 01       	movw	r24, r24
    1246:	a0 e0       	ldi	r26, 0x00	; 0
    1248:	b0 e0       	ldi	r27, 0x00	; 0
    124a:	82 2b       	or	r24, r18
    124c:	93 2b       	or	r25, r19
    124e:	a4 2b       	or	r26, r20
    1250:	b5 2b       	or	r27, r21
    1252:	80 93 3c 01 	sts	0x013C, r24	; 0x80013c <timestamp>
    1256:	90 93 3d 01 	sts	0x013D, r25	; 0x80013d <timestamp+0x1>
    125a:	a0 93 3e 01 	sts	0x013E, r26	; 0x80013e <timestamp+0x2>
    125e:	b0 93 3f 01 	sts	0x013F, r27	; 0x80013f <timestamp+0x3>
    1262:	80 91 de 01 	lds	r24, 0x01DE	; 0x8001de <mtable+0x4>
    1266:	90 91 df 01 	lds	r25, 0x01DF	; 0x8001df <mtable+0x5>
    126a:	89 2b       	or	r24, r25
    126c:	61 f0       	breq	.+24     	; 0x1286 <__vector_3+0xe2>
    126e:	20 91 de 01 	lds	r18, 0x01DE	; 0x8001de <mtable+0x4>
    1272:	30 91 df 01 	lds	r19, 0x01DF	; 0x8001df <mtable+0x5>
    1276:	80 91 46 01 	lds	r24, 0x0146	; 0x800146 <otable+0x4>
    127a:	90 91 47 01 	lds	r25, 0x0147	; 0x800147 <otable+0x5>
    127e:	62 e0       	ldi	r22, 0x02	; 2
    1280:	70 e0       	ldi	r23, 0x00	; 0
    1282:	f9 01       	movw	r30, r18
    1284:	09 95       	icall
    1286:	0e 94 0e 15 	call	0x2a1c	; 0x2a1c <schedule>
    128a:	00 00       	nop
    128c:	df 91       	pop	r29
    128e:	cf 91       	pop	r28
    1290:	ff 91       	pop	r31
    1292:	ef 91       	pop	r30
    1294:	bf 91       	pop	r27
    1296:	af 91       	pop	r26
    1298:	9f 91       	pop	r25
    129a:	8f 91       	pop	r24
    129c:	7f 91       	pop	r23
    129e:	6f 91       	pop	r22
    12a0:	5f 91       	pop	r21
    12a2:	4f 91       	pop	r20
    12a4:	3f 91       	pop	r19
    12a6:	2f 91       	pop	r18
    12a8:	0f 90       	pop	r0
    12aa:	00 92 5f 00 	sts	0x005F, r0	; 0x80005f <__TEXT_REGION_LENGTH__+0x7fc05f>
    12ae:	0f 90       	pop	r0
    12b0:	1f 90       	pop	r1
    12b2:	18 95       	reti

000012b4 <__vector_4>:
    12b4:	1f 92       	push	r1
    12b6:	0f 92       	push	r0
    12b8:	00 90 5f 00 	lds	r0, 0x005F	; 0x80005f <__TEXT_REGION_LENGTH__+0x7fc05f>
    12bc:	0f 92       	push	r0
    12be:	11 24       	eor	r1, r1
    12c0:	2f 93       	push	r18
    12c2:	3f 93       	push	r19
    12c4:	4f 93       	push	r20
    12c6:	5f 93       	push	r21
    12c8:	6f 93       	push	r22
    12ca:	7f 93       	push	r23
    12cc:	8f 93       	push	r24
    12ce:	9f 93       	push	r25
    12d0:	af 93       	push	r26
    12d2:	bf 93       	push	r27
    12d4:	ef 93       	push	r30
    12d6:	ff 93       	push	r31
    12d8:	cf 93       	push	r28
    12da:	df 93       	push	r29
    12dc:	cd b7       	in	r28, 0x3d	; 61
    12de:	de b7       	in	r29, 0x3e	; 62
    12e0:	80 91 40 01 	lds	r24, 0x0140	; 0x800140 <overflows>
    12e4:	90 91 41 01 	lds	r25, 0x0141	; 0x800141 <overflows+0x1>
    12e8:	09 2e       	mov	r0, r25
    12ea:	00 0c       	add	r0, r0
    12ec:	aa 0b       	sbc	r26, r26
    12ee:	bb 0b       	sbc	r27, r27
    12f0:	ac 01       	movw	r20, r24
    12f2:	33 27       	eor	r19, r19
    12f4:	22 27       	eor	r18, r18
    12f6:	84 e8       	ldi	r24, 0x84	; 132
    12f8:	90 e0       	ldi	r25, 0x00	; 0
    12fa:	fc 01       	movw	r30, r24
    12fc:	80 81       	ld	r24, Z
    12fe:	91 81       	ldd	r25, Z+1	; 0x01
    1300:	cc 01       	movw	r24, r24
    1302:	a0 e0       	ldi	r26, 0x00	; 0
    1304:	b0 e0       	ldi	r27, 0x00	; 0
    1306:	82 2b       	or	r24, r18
    1308:	93 2b       	or	r25, r19
    130a:	a4 2b       	or	r26, r20
    130c:	b5 2b       	or	r27, r21
    130e:	80 93 3c 01 	sts	0x013C, r24	; 0x80013c <timestamp>
    1312:	90 93 3d 01 	sts	0x013D, r25	; 0x80013d <timestamp+0x1>
    1316:	a0 93 3e 01 	sts	0x013E, r26	; 0x80013e <timestamp+0x2>
    131a:	b0 93 3f 01 	sts	0x013F, r27	; 0x80013f <timestamp+0x3>
    131e:	86 e3       	ldi	r24, 0x36	; 54
    1320:	90 e0       	ldi	r25, 0x00	; 0
    1322:	fc 01       	movw	r30, r24
    1324:	80 81       	ld	r24, Z
    1326:	88 2f       	mov	r24, r24
    1328:	90 e0       	ldi	r25, 0x00	; 0
    132a:	81 70       	andi	r24, 0x01	; 1
    132c:	99 27       	eor	r25, r25
    132e:	89 2b       	or	r24, r25
    1330:	01 f1       	breq	.+64     	; 0x1372 <__vector_4+0xbe>
    1332:	80 91 40 01 	lds	r24, 0x0140	; 0x800140 <overflows>
    1336:	90 91 41 01 	lds	r25, 0x0141	; 0x800141 <overflows+0x1>
    133a:	01 96       	adiw	r24, 0x01	; 1
    133c:	09 2e       	mov	r0, r25
    133e:	00 0c       	add	r0, r0
    1340:	aa 0b       	sbc	r26, r26
    1342:	bb 0b       	sbc	r27, r27
    1344:	ac 01       	movw	r20, r24
    1346:	33 27       	eor	r19, r19
    1348:	22 27       	eor	r18, r18
    134a:	84 e8       	ldi	r24, 0x84	; 132
    134c:	90 e0       	ldi	r25, 0x00	; 0
    134e:	fc 01       	movw	r30, r24
    1350:	80 81       	ld	r24, Z
    1352:	91 81       	ldd	r25, Z+1	; 0x01
    1354:	cc 01       	movw	r24, r24
    1356:	a0 e0       	ldi	r26, 0x00	; 0
    1358:	b0 e0       	ldi	r27, 0x00	; 0
    135a:	82 2b       	or	r24, r18
    135c:	93 2b       	or	r25, r19
    135e:	a4 2b       	or	r26, r20
    1360:	b5 2b       	or	r27, r21
    1362:	80 93 3c 01 	sts	0x013C, r24	; 0x80013c <timestamp>
    1366:	90 93 3d 01 	sts	0x013D, r25	; 0x80013d <timestamp+0x1>
    136a:	a0 93 3e 01 	sts	0x013E, r26	; 0x80013e <timestamp+0x2>
    136e:	b0 93 3f 01 	sts	0x013F, r27	; 0x80013f <timestamp+0x3>
    1372:	80 91 e0 01 	lds	r24, 0x01E0	; 0x8001e0 <mtable+0x6>
    1376:	90 91 e1 01 	lds	r25, 0x01E1	; 0x8001e1 <mtable+0x7>
    137a:	89 2b       	or	r24, r25
    137c:	61 f0       	breq	.+24     	; 0x1396 <__vector_4+0xe2>
    137e:	20 91 e0 01 	lds	r18, 0x01E0	; 0x8001e0 <mtable+0x6>
    1382:	30 91 e1 01 	lds	r19, 0x01E1	; 0x8001e1 <mtable+0x7>
    1386:	80 91 48 01 	lds	r24, 0x0148	; 0x800148 <otable+0x6>
    138a:	90 91 49 01 	lds	r25, 0x0149	; 0x800149 <otable+0x7>
    138e:	63 e0       	ldi	r22, 0x03	; 3
    1390:	70 e0       	ldi	r23, 0x00	; 0
    1392:	f9 01       	movw	r30, r18
    1394:	09 95       	icall
    1396:	0e 94 0e 15 	call	0x2a1c	; 0x2a1c <schedule>
    139a:	00 00       	nop
    139c:	df 91       	pop	r29
    139e:	cf 91       	pop	r28
    13a0:	ff 91       	pop	r31
    13a2:	ef 91       	pop	r30
    13a4:	bf 91       	pop	r27
    13a6:	af 91       	pop	r26
    13a8:	9f 91       	pop	r25
    13aa:	8f 91       	pop	r24
    13ac:	7f 91       	pop	r23
    13ae:	6f 91       	pop	r22
    13b0:	5f 91       	pop	r21
    13b2:	4f 91       	pop	r20
    13b4:	3f 91       	pop	r19
    13b6:	2f 91       	pop	r18
    13b8:	0f 90       	pop	r0
    13ba:	00 92 5f 00 	sts	0x005F, r0	; 0x80005f <__TEXT_REGION_LENGTH__+0x7fc05f>
    13be:	0f 90       	pop	r0
    13c0:	1f 90       	pop	r1
    13c2:	18 95       	reti

000013c4 <__vector_5>:
    13c4:	1f 92       	push	r1
    13c6:	0f 92       	push	r0
    13c8:	00 90 5f 00 	lds	r0, 0x005F	; 0x80005f <__TEXT_REGION_LENGTH__+0x7fc05f>
    13cc:	0f 92       	push	r0
    13ce:	11 24       	eor	r1, r1
    13d0:	2f 93       	push	r18
    13d2:	3f 93       	push	r19
    13d4:	4f 93       	push	r20
    13d6:	5f 93       	push	r21
    13d8:	6f 93       	push	r22
    13da:	7f 93       	push	r23
    13dc:	8f 93       	push	r24
    13de:	9f 93       	push	r25
    13e0:	af 93       	push	r26
    13e2:	bf 93       	push	r27
    13e4:	ef 93       	push	r30
    13e6:	ff 93       	push	r31
    13e8:	cf 93       	push	r28
    13ea:	df 93       	push	r29
    13ec:	cd b7       	in	r28, 0x3d	; 61
    13ee:	de b7       	in	r29, 0x3e	; 62
    13f0:	80 91 40 01 	lds	r24, 0x0140	; 0x800140 <overflows>
    13f4:	90 91 41 01 	lds	r25, 0x0141	; 0x800141 <overflows+0x1>
    13f8:	09 2e       	mov	r0, r25
    13fa:	00 0c       	add	r0, r0
    13fc:	aa 0b       	sbc	r26, r26
    13fe:	bb 0b       	sbc	r27, r27
    1400:	ac 01       	movw	r20, r24
    1402:	33 27       	eor	r19, r19
    1404:	22 27       	eor	r18, r18
    1406:	84 e8       	ldi	r24, 0x84	; 132
    1408:	90 e0       	ldi	r25, 0x00	; 0
    140a:	fc 01       	movw	r30, r24
    140c:	80 81       	ld	r24, Z
    140e:	91 81       	ldd	r25, Z+1	; 0x01
    1410:	cc 01       	movw	r24, r24
    1412:	a0 e0       	ldi	r26, 0x00	; 0
    1414:	b0 e0       	ldi	r27, 0x00	; 0
    1416:	82 2b       	or	r24, r18
    1418:	93 2b       	or	r25, r19
    141a:	a4 2b       	or	r26, r20
    141c:	b5 2b       	or	r27, r21
    141e:	80 93 3c 01 	sts	0x013C, r24	; 0x80013c <timestamp>
    1422:	90 93 3d 01 	sts	0x013D, r25	; 0x80013d <timestamp+0x1>
    1426:	a0 93 3e 01 	sts	0x013E, r26	; 0x80013e <timestamp+0x2>
    142a:	b0 93 3f 01 	sts	0x013F, r27	; 0x80013f <timestamp+0x3>
    142e:	86 e3       	ldi	r24, 0x36	; 54
    1430:	90 e0       	ldi	r25, 0x00	; 0
    1432:	fc 01       	movw	r30, r24
    1434:	80 81       	ld	r24, Z
    1436:	88 2f       	mov	r24, r24
    1438:	90 e0       	ldi	r25, 0x00	; 0
    143a:	81 70       	andi	r24, 0x01	; 1
    143c:	99 27       	eor	r25, r25
    143e:	89 2b       	or	r24, r25
    1440:	01 f1       	breq	.+64     	; 0x1482 <__vector_5+0xbe>
    1442:	80 91 40 01 	lds	r24, 0x0140	; 0x800140 <overflows>
    1446:	90 91 41 01 	lds	r25, 0x0141	; 0x800141 <overflows+0x1>
    144a:	01 96       	adiw	r24, 0x01	; 1
    144c:	09 2e       	mov	r0, r25
    144e:	00 0c       	add	r0, r0
    1450:	aa 0b       	sbc	r26, r26
    1452:	bb 0b       	sbc	r27, r27
    1454:	ac 01       	movw	r20, r24
    1456:	33 27       	eor	r19, r19
    1458:	22 27       	eor	r18, r18
    145a:	84 e8       	ldi	r24, 0x84	; 132
    145c:	90 e0       	ldi	r25, 0x00	; 0
    145e:	fc 01       	movw	r30, r24
    1460:	80 81       	ld	r24, Z
    1462:	91 81       	ldd	r25, Z+1	; 0x01
    1464:	cc 01       	movw	r24, r24
    1466:	a0 e0       	ldi	r26, 0x00	; 0
    1468:	b0 e0       	ldi	r27, 0x00	; 0
    146a:	82 2b       	or	r24, r18
    146c:	93 2b       	or	r25, r19
    146e:	a4 2b       	or	r26, r20
    1470:	b5 2b       	or	r27, r21
    1472:	80 93 3c 01 	sts	0x013C, r24	; 0x80013c <timestamp>
    1476:	90 93 3d 01 	sts	0x013D, r25	; 0x80013d <timestamp+0x1>
    147a:	a0 93 3e 01 	sts	0x013E, r26	; 0x80013e <timestamp+0x2>
    147e:	b0 93 3f 01 	sts	0x013F, r27	; 0x80013f <timestamp+0x3>
    1482:	80 91 e2 01 	lds	r24, 0x01E2	; 0x8001e2 <mtable+0x8>
    1486:	90 91 e3 01 	lds	r25, 0x01E3	; 0x8001e3 <mtable+0x9>
    148a:	89 2b       	or	r24, r25
    148c:	61 f0       	breq	.+24     	; 0x14a6 <__vector_5+0xe2>
    148e:	20 91 e2 01 	lds	r18, 0x01E2	; 0x8001e2 <mtable+0x8>
    1492:	30 91 e3 01 	lds	r19, 0x01E3	; 0x8001e3 <mtable+0x9>
    1496:	80 91 4a 01 	lds	r24, 0x014A	; 0x80014a <otable+0x8>
    149a:	90 91 4b 01 	lds	r25, 0x014B	; 0x80014b <otable+0x9>
    149e:	64 e0       	ldi	r22, 0x04	; 4
    14a0:	70 e0       	ldi	r23, 0x00	; 0
    14a2:	f9 01       	movw	r30, r18
    14a4:	09 95       	icall
    14a6:	0e 94 0e 15 	call	0x2a1c	; 0x2a1c <schedule>
    14aa:	00 00       	nop
    14ac:	df 91       	pop	r29
    14ae:	cf 91       	pop	r28
    14b0:	ff 91       	pop	r31
    14b2:	ef 91       	pop	r30
    14b4:	bf 91       	pop	r27
    14b6:	af 91       	pop	r26
    14b8:	9f 91       	pop	r25
    14ba:	8f 91       	pop	r24
    14bc:	7f 91       	pop	r23
    14be:	6f 91       	pop	r22
    14c0:	5f 91       	pop	r21
    14c2:	4f 91       	pop	r20
    14c4:	3f 91       	pop	r19
    14c6:	2f 91       	pop	r18
    14c8:	0f 90       	pop	r0
    14ca:	00 92 5f 00 	sts	0x005F, r0	; 0x80005f <__TEXT_REGION_LENGTH__+0x7fc05f>
    14ce:	0f 90       	pop	r0
    14d0:	1f 90       	pop	r1
    14d2:	18 95       	reti

000014d4 <__vector_10>:
    14d4:	1f 92       	push	r1
    14d6:	0f 92       	push	r0
    14d8:	00 90 5f 00 	lds	r0, 0x005F	; 0x80005f <__TEXT_REGION_LENGTH__+0x7fc05f>
    14dc:	0f 92       	push	r0
    14de:	11 24       	eor	r1, r1
    14e0:	2f 93       	push	r18
    14e2:	3f 93       	push	r19
    14e4:	4f 93       	push	r20
    14e6:	5f 93       	push	r21
    14e8:	6f 93       	push	r22
    14ea:	7f 93       	push	r23
    14ec:	8f 93       	push	r24
    14ee:	9f 93       	push	r25
    14f0:	af 93       	push	r26
    14f2:	bf 93       	push	r27
    14f4:	ef 93       	push	r30
    14f6:	ff 93       	push	r31
    14f8:	cf 93       	push	r28
    14fa:	df 93       	push	r29
    14fc:	cd b7       	in	r28, 0x3d	; 61
    14fe:	de b7       	in	r29, 0x3e	; 62
    1500:	80 91 40 01 	lds	r24, 0x0140	; 0x800140 <overflows>
    1504:	90 91 41 01 	lds	r25, 0x0141	; 0x800141 <overflows+0x1>
    1508:	09 2e       	mov	r0, r25
    150a:	00 0c       	add	r0, r0
    150c:	aa 0b       	sbc	r26, r26
    150e:	bb 0b       	sbc	r27, r27
    1510:	ac 01       	movw	r20, r24
    1512:	33 27       	eor	r19, r19
    1514:	22 27       	eor	r18, r18
    1516:	84 e8       	ldi	r24, 0x84	; 132
    1518:	90 e0       	ldi	r25, 0x00	; 0
    151a:	fc 01       	movw	r30, r24
    151c:	80 81       	ld	r24, Z
    151e:	91 81       	ldd	r25, Z+1	; 0x01
    1520:	cc 01       	movw	r24, r24
    1522:	a0 e0       	ldi	r26, 0x00	; 0
    1524:	b0 e0       	ldi	r27, 0x00	; 0
    1526:	82 2b       	or	r24, r18
    1528:	93 2b       	or	r25, r19
    152a:	a4 2b       	or	r26, r20
    152c:	b5 2b       	or	r27, r21
    152e:	80 93 3c 01 	sts	0x013C, r24	; 0x80013c <timestamp>
    1532:	90 93 3d 01 	sts	0x013D, r25	; 0x80013d <timestamp+0x1>
    1536:	a0 93 3e 01 	sts	0x013E, r26	; 0x80013e <timestamp+0x2>
    153a:	b0 93 3f 01 	sts	0x013F, r27	; 0x80013f <timestamp+0x3>
    153e:	86 e3       	ldi	r24, 0x36	; 54
    1540:	90 e0       	ldi	r25, 0x00	; 0
    1542:	fc 01       	movw	r30, r24
    1544:	80 81       	ld	r24, Z
    1546:	88 2f       	mov	r24, r24
    1548:	90 e0       	ldi	r25, 0x00	; 0
    154a:	81 70       	andi	r24, 0x01	; 1
    154c:	99 27       	eor	r25, r25
    154e:	89 2b       	or	r24, r25
    1550:	01 f1       	breq	.+64     	; 0x1592 <__vector_10+0xbe>
    1552:	80 91 40 01 	lds	r24, 0x0140	; 0x800140 <overflows>
    1556:	90 91 41 01 	lds	r25, 0x0141	; 0x800141 <overflows+0x1>
    155a:	01 96       	adiw	r24, 0x01	; 1
    155c:	09 2e       	mov	r0, r25
    155e:	00 0c       	add	r0, r0
    1560:	aa 0b       	sbc	r26, r26
    1562:	bb 0b       	sbc	r27, r27
    1564:	ac 01       	movw	r20, r24
    1566:	33 27       	eor	r19, r19
    1568:	22 27       	eor	r18, r18
    156a:	84 e8       	ldi	r24, 0x84	; 132
    156c:	90 e0       	ldi	r25, 0x00	; 0
    156e:	fc 01       	movw	r30, r24
    1570:	80 81       	ld	r24, Z
    1572:	91 81       	ldd	r25, Z+1	; 0x01
    1574:	cc 01       	movw	r24, r24
    1576:	a0 e0       	ldi	r26, 0x00	; 0
    1578:	b0 e0       	ldi	r27, 0x00	; 0
    157a:	82 2b       	or	r24, r18
    157c:	93 2b       	or	r25, r19
    157e:	a4 2b       	or	r26, r20
    1580:	b5 2b       	or	r27, r21
    1582:	80 93 3c 01 	sts	0x013C, r24	; 0x80013c <timestamp>
    1586:	90 93 3d 01 	sts	0x013D, r25	; 0x80013d <timestamp+0x1>
    158a:	a0 93 3e 01 	sts	0x013E, r26	; 0x80013e <timestamp+0x2>
    158e:	b0 93 3f 01 	sts	0x013F, r27	; 0x80013f <timestamp+0x3>
    1592:	80 91 e4 01 	lds	r24, 0x01E4	; 0x8001e4 <mtable+0xa>
    1596:	90 91 e5 01 	lds	r25, 0x01E5	; 0x8001e5 <mtable+0xb>
    159a:	89 2b       	or	r24, r25
    159c:	61 f0       	breq	.+24     	; 0x15b6 <__vector_10+0xe2>
    159e:	20 91 e4 01 	lds	r18, 0x01E4	; 0x8001e4 <mtable+0xa>
    15a2:	30 91 e5 01 	lds	r19, 0x01E5	; 0x8001e5 <mtable+0xb>
    15a6:	80 91 4c 01 	lds	r24, 0x014C	; 0x80014c <otable+0xa>
    15aa:	90 91 4d 01 	lds	r25, 0x014D	; 0x80014d <otable+0xb>
    15ae:	65 e0       	ldi	r22, 0x05	; 5
    15b0:	70 e0       	ldi	r23, 0x00	; 0
    15b2:	f9 01       	movw	r30, r18
    15b4:	09 95       	icall
    15b6:	0e 94 0e 15 	call	0x2a1c	; 0x2a1c <schedule>
    15ba:	00 00       	nop
    15bc:	df 91       	pop	r29
    15be:	cf 91       	pop	r28
    15c0:	ff 91       	pop	r31
    15c2:	ef 91       	pop	r30
    15c4:	bf 91       	pop	r27
    15c6:	af 91       	pop	r26
    15c8:	9f 91       	pop	r25
    15ca:	8f 91       	pop	r24
    15cc:	7f 91       	pop	r23
    15ce:	6f 91       	pop	r22
    15d0:	5f 91       	pop	r21
    15d2:	4f 91       	pop	r20
    15d4:	3f 91       	pop	r19
    15d6:	2f 91       	pop	r18
    15d8:	0f 90       	pop	r0
    15da:	00 92 5f 00 	sts	0x005F, r0	; 0x80005f <__TEXT_REGION_LENGTH__+0x7fc05f>
    15de:	0f 90       	pop	r0
    15e0:	1f 90       	pop	r1
    15e2:	18 95       	reti

000015e4 <__vector_11>:
    15e4:	1f 92       	push	r1
    15e6:	0f 92       	push	r0
    15e8:	00 90 5f 00 	lds	r0, 0x005F	; 0x80005f <__TEXT_REGION_LENGTH__+0x7fc05f>
    15ec:	0f 92       	push	r0
    15ee:	11 24       	eor	r1, r1
    15f0:	2f 93       	push	r18
    15f2:	3f 93       	push	r19
    15f4:	4f 93       	push	r20
    15f6:	5f 93       	push	r21
    15f8:	6f 93       	push	r22
    15fa:	7f 93       	push	r23
    15fc:	8f 93       	push	r24
    15fe:	9f 93       	push	r25
    1600:	af 93       	push	r26
    1602:	bf 93       	push	r27
    1604:	ef 93       	push	r30
    1606:	ff 93       	push	r31
    1608:	cf 93       	push	r28
    160a:	df 93       	push	r29
    160c:	cd b7       	in	r28, 0x3d	; 61
    160e:	de b7       	in	r29, 0x3e	; 62
    1610:	80 91 40 01 	lds	r24, 0x0140	; 0x800140 <overflows>
    1614:	90 91 41 01 	lds	r25, 0x0141	; 0x800141 <overflows+0x1>
    1618:	09 2e       	mov	r0, r25
    161a:	00 0c       	add	r0, r0
    161c:	aa 0b       	sbc	r26, r26
    161e:	bb 0b       	sbc	r27, r27
    1620:	ac 01       	movw	r20, r24
    1622:	33 27       	eor	r19, r19
    1624:	22 27       	eor	r18, r18
    1626:	84 e8       	ldi	r24, 0x84	; 132
    1628:	90 e0       	ldi	r25, 0x00	; 0
    162a:	fc 01       	movw	r30, r24
    162c:	80 81       	ld	r24, Z
    162e:	91 81       	ldd	r25, Z+1	; 0x01
    1630:	cc 01       	movw	r24, r24
    1632:	a0 e0       	ldi	r26, 0x00	; 0
    1634:	b0 e0       	ldi	r27, 0x00	; 0
    1636:	82 2b       	or	r24, r18
    1638:	93 2b       	or	r25, r19
    163a:	a4 2b       	or	r26, r20
    163c:	b5 2b       	or	r27, r21
    163e:	80 93 3c 01 	sts	0x013C, r24	; 0x80013c <timestamp>
    1642:	90 93 3d 01 	sts	0x013D, r25	; 0x80013d <timestamp+0x1>
    1646:	a0 93 3e 01 	sts	0x013E, r26	; 0x80013e <timestamp+0x2>
    164a:	b0 93 3f 01 	sts	0x013F, r27	; 0x80013f <timestamp+0x3>
    164e:	86 e3       	ldi	r24, 0x36	; 54
    1650:	90 e0       	ldi	r25, 0x00	; 0
    1652:	fc 01       	movw	r30, r24
    1654:	80 81       	ld	r24, Z
    1656:	88 2f       	mov	r24, r24
    1658:	90 e0       	ldi	r25, 0x00	; 0
    165a:	81 70       	andi	r24, 0x01	; 1
    165c:	99 27       	eor	r25, r25
    165e:	89 2b       	or	r24, r25
    1660:	01 f1       	breq	.+64     	; 0x16a2 <__vector_11+0xbe>
    1662:	80 91 40 01 	lds	r24, 0x0140	; 0x800140 <overflows>
    1666:	90 91 41 01 	lds	r25, 0x0141	; 0x800141 <overflows+0x1>
    166a:	01 96       	adiw	r24, 0x01	; 1
    166c:	09 2e       	mov	r0, r25
    166e:	00 0c       	add	r0, r0
    1670:	aa 0b       	sbc	r26, r26
    1672:	bb 0b       	sbc	r27, r27
    1674:	ac 01       	movw	r20, r24
    1676:	33 27       	eor	r19, r19
    1678:	22 27       	eor	r18, r18
    167a:	84 e8       	ldi	r24, 0x84	; 132
    167c:	90 e0       	ldi	r25, 0x00	; 0
    167e:	fc 01       	movw	r30, r24
    1680:	80 81       	ld	r24, Z
    1682:	91 81       	ldd	r25, Z+1	; 0x01
    1684:	cc 01       	movw	r24, r24
    1686:	a0 e0       	ldi	r26, 0x00	; 0
    1688:	b0 e0       	ldi	r27, 0x00	; 0
    168a:	82 2b       	or	r24, r18
    168c:	93 2b       	or	r25, r19
    168e:	a4 2b       	or	r26, r20
    1690:	b5 2b       	or	r27, r21
    1692:	80 93 3c 01 	sts	0x013C, r24	; 0x80013c <timestamp>
    1696:	90 93 3d 01 	sts	0x013D, r25	; 0x80013d <timestamp+0x1>
    169a:	a0 93 3e 01 	sts	0x013E, r26	; 0x80013e <timestamp+0x2>
    169e:	b0 93 3f 01 	sts	0x013F, r27	; 0x80013f <timestamp+0x3>
    16a2:	80 91 e6 01 	lds	r24, 0x01E6	; 0x8001e6 <mtable+0xc>
    16a6:	90 91 e7 01 	lds	r25, 0x01E7	; 0x8001e7 <mtable+0xd>
    16aa:	89 2b       	or	r24, r25
    16ac:	61 f0       	breq	.+24     	; 0x16c6 <__vector_11+0xe2>
    16ae:	20 91 e6 01 	lds	r18, 0x01E6	; 0x8001e6 <mtable+0xc>
    16b2:	30 91 e7 01 	lds	r19, 0x01E7	; 0x8001e7 <mtable+0xd>
    16b6:	80 91 4e 01 	lds	r24, 0x014E	; 0x80014e <otable+0xc>
    16ba:	90 91 4f 01 	lds	r25, 0x014F	; 0x80014f <otable+0xd>
    16be:	66 e0       	ldi	r22, 0x06	; 6
    16c0:	70 e0       	ldi	r23, 0x00	; 0
    16c2:	f9 01       	movw	r30, r18
    16c4:	09 95       	icall
    16c6:	0e 94 0e 15 	call	0x2a1c	; 0x2a1c <schedule>
    16ca:	00 00       	nop
    16cc:	df 91       	pop	r29
    16ce:	cf 91       	pop	r28
    16d0:	ff 91       	pop	r31
    16d2:	ef 91       	pop	r30
    16d4:	bf 91       	pop	r27
    16d6:	af 91       	pop	r26
    16d8:	9f 91       	pop	r25
    16da:	8f 91       	pop	r24
    16dc:	7f 91       	pop	r23
    16de:	6f 91       	pop	r22
    16e0:	5f 91       	pop	r21
    16e2:	4f 91       	pop	r20
    16e4:	3f 91       	pop	r19
    16e6:	2f 91       	pop	r18
    16e8:	0f 90       	pop	r0
    16ea:	00 92 5f 00 	sts	0x005F, r0	; 0x80005f <__TEXT_REGION_LENGTH__+0x7fc05f>
    16ee:	0f 90       	pop	r0
    16f0:	1f 90       	pop	r1
    16f2:	18 95       	reti

000016f4 <__vector_12>:
    16f4:	1f 92       	push	r1
    16f6:	0f 92       	push	r0
    16f8:	00 90 5f 00 	lds	r0, 0x005F	; 0x80005f <__TEXT_REGION_LENGTH__+0x7fc05f>
    16fc:	0f 92       	push	r0
    16fe:	11 24       	eor	r1, r1
    1700:	2f 93       	push	r18
    1702:	3f 93       	push	r19
    1704:	4f 93       	push	r20
    1706:	5f 93       	push	r21
    1708:	6f 93       	push	r22
    170a:	7f 93       	push	r23
    170c:	8f 93       	push	r24
    170e:	9f 93       	push	r25
    1710:	af 93       	push	r26
    1712:	bf 93       	push	r27
    1714:	ef 93       	push	r30
    1716:	ff 93       	push	r31
    1718:	cf 93       	push	r28
    171a:	df 93       	push	r29
    171c:	cd b7       	in	r28, 0x3d	; 61
    171e:	de b7       	in	r29, 0x3e	; 62
    1720:	80 91 40 01 	lds	r24, 0x0140	; 0x800140 <overflows>
    1724:	90 91 41 01 	lds	r25, 0x0141	; 0x800141 <overflows+0x1>
    1728:	09 2e       	mov	r0, r25
    172a:	00 0c       	add	r0, r0
    172c:	aa 0b       	sbc	r26, r26
    172e:	bb 0b       	sbc	r27, r27
    1730:	ac 01       	movw	r20, r24
    1732:	33 27       	eor	r19, r19
    1734:	22 27       	eor	r18, r18
    1736:	84 e8       	ldi	r24, 0x84	; 132
    1738:	90 e0       	ldi	r25, 0x00	; 0
    173a:	fc 01       	movw	r30, r24
    173c:	80 81       	ld	r24, Z
    173e:	91 81       	ldd	r25, Z+1	; 0x01
    1740:	cc 01       	movw	r24, r24
    1742:	a0 e0       	ldi	r26, 0x00	; 0
    1744:	b0 e0       	ldi	r27, 0x00	; 0
    1746:	82 2b       	or	r24, r18
    1748:	93 2b       	or	r25, r19
    174a:	a4 2b       	or	r26, r20
    174c:	b5 2b       	or	r27, r21
    174e:	80 93 3c 01 	sts	0x013C, r24	; 0x80013c <timestamp>
    1752:	90 93 3d 01 	sts	0x013D, r25	; 0x80013d <timestamp+0x1>
    1756:	a0 93 3e 01 	sts	0x013E, r26	; 0x80013e <timestamp+0x2>
    175a:	b0 93 3f 01 	sts	0x013F, r27	; 0x80013f <timestamp+0x3>
    175e:	86 e3       	ldi	r24, 0x36	; 54
    1760:	90 e0       	ldi	r25, 0x00	; 0
    1762:	fc 01       	movw	r30, r24
    1764:	80 81       	ld	r24, Z
    1766:	88 2f       	mov	r24, r24
    1768:	90 e0       	ldi	r25, 0x00	; 0
    176a:	81 70       	andi	r24, 0x01	; 1
    176c:	99 27       	eor	r25, r25
    176e:	89 2b       	or	r24, r25
    1770:	01 f1       	breq	.+64     	; 0x17b2 <__vector_12+0xbe>
    1772:	80 91 40 01 	lds	r24, 0x0140	; 0x800140 <overflows>
    1776:	90 91 41 01 	lds	r25, 0x0141	; 0x800141 <overflows+0x1>
    177a:	01 96       	adiw	r24, 0x01	; 1
    177c:	09 2e       	mov	r0, r25
    177e:	00 0c       	add	r0, r0
    1780:	aa 0b       	sbc	r26, r26
    1782:	bb 0b       	sbc	r27, r27
    1784:	ac 01       	movw	r20, r24
    1786:	33 27       	eor	r19, r19
    1788:	22 27       	eor	r18, r18
    178a:	84 e8       	ldi	r24, 0x84	; 132
    178c:	90 e0       	ldi	r25, 0x00	; 0
    178e:	fc 01       	movw	r30, r24
    1790:	80 81       	ld	r24, Z
    1792:	91 81       	ldd	r25, Z+1	; 0x01
    1794:	cc 01       	movw	r24, r24
    1796:	a0 e0       	ldi	r26, 0x00	; 0
    1798:	b0 e0       	ldi	r27, 0x00	; 0
    179a:	82 2b       	or	r24, r18
    179c:	93 2b       	or	r25, r19
    179e:	a4 2b       	or	r26, r20
    17a0:	b5 2b       	or	r27, r21
    17a2:	80 93 3c 01 	sts	0x013C, r24	; 0x80013c <timestamp>
    17a6:	90 93 3d 01 	sts	0x013D, r25	; 0x80013d <timestamp+0x1>
    17aa:	a0 93 3e 01 	sts	0x013E, r26	; 0x80013e <timestamp+0x2>
    17ae:	b0 93 3f 01 	sts	0x013F, r27	; 0x80013f <timestamp+0x3>
    17b2:	80 91 e8 01 	lds	r24, 0x01E8	; 0x8001e8 <mtable+0xe>
    17b6:	90 91 e9 01 	lds	r25, 0x01E9	; 0x8001e9 <mtable+0xf>
    17ba:	89 2b       	or	r24, r25
    17bc:	61 f0       	breq	.+24     	; 0x17d6 <__vector_12+0xe2>
    17be:	20 91 e8 01 	lds	r18, 0x01E8	; 0x8001e8 <mtable+0xe>
    17c2:	30 91 e9 01 	lds	r19, 0x01E9	; 0x8001e9 <mtable+0xf>
    17c6:	80 91 50 01 	lds	r24, 0x0150	; 0x800150 <otable+0xe>
    17ca:	90 91 51 01 	lds	r25, 0x0151	; 0x800151 <otable+0xf>
    17ce:	67 e0       	ldi	r22, 0x07	; 7
    17d0:	70 e0       	ldi	r23, 0x00	; 0
    17d2:	f9 01       	movw	r30, r18
    17d4:	09 95       	icall
    17d6:	0e 94 0e 15 	call	0x2a1c	; 0x2a1c <schedule>
    17da:	00 00       	nop
    17dc:	df 91       	pop	r29
    17de:	cf 91       	pop	r28
    17e0:	ff 91       	pop	r31
    17e2:	ef 91       	pop	r30
    17e4:	bf 91       	pop	r27
    17e6:	af 91       	pop	r26
    17e8:	9f 91       	pop	r25
    17ea:	8f 91       	pop	r24
    17ec:	7f 91       	pop	r23
    17ee:	6f 91       	pop	r22
    17f0:	5f 91       	pop	r21
    17f2:	4f 91       	pop	r20
    17f4:	3f 91       	pop	r19
    17f6:	2f 91       	pop	r18
    17f8:	0f 90       	pop	r0
    17fa:	00 92 5f 00 	sts	0x005F, r0	; 0x80005f <__TEXT_REGION_LENGTH__+0x7fc05f>
    17fe:	0f 90       	pop	r0
    1800:	1f 90       	pop	r1
    1802:	18 95       	reti

00001804 <__vector_13>:
    1804:	1f 92       	push	r1
    1806:	0f 92       	push	r0
    1808:	00 90 5f 00 	lds	r0, 0x005F	; 0x80005f <__TEXT_REGION_LENGTH__+0x7fc05f>
    180c:	0f 92       	push	r0
    180e:	11 24       	eor	r1, r1
    1810:	2f 93       	push	r18
    1812:	3f 93       	push	r19
    1814:	4f 93       	push	r20
    1816:	5f 93       	push	r21
    1818:	6f 93       	push	r22
    181a:	7f 93       	push	r23
    181c:	8f 93       	push	r24
    181e:	9f 93       	push	r25
    1820:	af 93       	push	r26
    1822:	bf 93       	push	r27
    1824:	ef 93       	push	r30
    1826:	ff 93       	push	r31
    1828:	cf 93       	push	r28
    182a:	df 93       	push	r29
    182c:	cd b7       	in	r28, 0x3d	; 61
    182e:	de b7       	in	r29, 0x3e	; 62
    1830:	80 91 40 01 	lds	r24, 0x0140	; 0x800140 <overflows>
    1834:	90 91 41 01 	lds	r25, 0x0141	; 0x800141 <overflows+0x1>
    1838:	09 2e       	mov	r0, r25
    183a:	00 0c       	add	r0, r0
    183c:	aa 0b       	sbc	r26, r26
    183e:	bb 0b       	sbc	r27, r27
    1840:	ac 01       	movw	r20, r24
    1842:	33 27       	eor	r19, r19
    1844:	22 27       	eor	r18, r18
    1846:	84 e8       	ldi	r24, 0x84	; 132
    1848:	90 e0       	ldi	r25, 0x00	; 0
    184a:	fc 01       	movw	r30, r24
    184c:	80 81       	ld	r24, Z
    184e:	91 81       	ldd	r25, Z+1	; 0x01
    1850:	cc 01       	movw	r24, r24
    1852:	a0 e0       	ldi	r26, 0x00	; 0
    1854:	b0 e0       	ldi	r27, 0x00	; 0
    1856:	82 2b       	or	r24, r18
    1858:	93 2b       	or	r25, r19
    185a:	a4 2b       	or	r26, r20
    185c:	b5 2b       	or	r27, r21
    185e:	80 93 3c 01 	sts	0x013C, r24	; 0x80013c <timestamp>
    1862:	90 93 3d 01 	sts	0x013D, r25	; 0x80013d <timestamp+0x1>
    1866:	a0 93 3e 01 	sts	0x013E, r26	; 0x80013e <timestamp+0x2>
    186a:	b0 93 3f 01 	sts	0x013F, r27	; 0x80013f <timestamp+0x3>
    186e:	86 e3       	ldi	r24, 0x36	; 54
    1870:	90 e0       	ldi	r25, 0x00	; 0
    1872:	fc 01       	movw	r30, r24
    1874:	80 81       	ld	r24, Z
    1876:	88 2f       	mov	r24, r24
    1878:	90 e0       	ldi	r25, 0x00	; 0
    187a:	81 70       	andi	r24, 0x01	; 1
    187c:	99 27       	eor	r25, r25
    187e:	89 2b       	or	r24, r25
    1880:	01 f1       	breq	.+64     	; 0x18c2 <__vector_13+0xbe>
    1882:	80 91 40 01 	lds	r24, 0x0140	; 0x800140 <overflows>
    1886:	90 91 41 01 	lds	r25, 0x0141	; 0x800141 <overflows+0x1>
    188a:	01 96       	adiw	r24, 0x01	; 1
    188c:	09 2e       	mov	r0, r25
    188e:	00 0c       	add	r0, r0
    1890:	aa 0b       	sbc	r26, r26
    1892:	bb 0b       	sbc	r27, r27
    1894:	ac 01       	movw	r20, r24
    1896:	33 27       	eor	r19, r19
    1898:	22 27       	eor	r18, r18
    189a:	84 e8       	ldi	r24, 0x84	; 132
    189c:	90 e0       	ldi	r25, 0x00	; 0
    189e:	fc 01       	movw	r30, r24
    18a0:	80 81       	ld	r24, Z
    18a2:	91 81       	ldd	r25, Z+1	; 0x01
    18a4:	cc 01       	movw	r24, r24
    18a6:	a0 e0       	ldi	r26, 0x00	; 0
    18a8:	b0 e0       	ldi	r27, 0x00	; 0
    18aa:	82 2b       	or	r24, r18
    18ac:	93 2b       	or	r25, r19
    18ae:	a4 2b       	or	r26, r20
    18b0:	b5 2b       	or	r27, r21
    18b2:	80 93 3c 01 	sts	0x013C, r24	; 0x80013c <timestamp>
    18b6:	90 93 3d 01 	sts	0x013D, r25	; 0x80013d <timestamp+0x1>
    18ba:	a0 93 3e 01 	sts	0x013E, r26	; 0x80013e <timestamp+0x2>
    18be:	b0 93 3f 01 	sts	0x013F, r27	; 0x80013f <timestamp+0x3>
    18c2:	80 91 ea 01 	lds	r24, 0x01EA	; 0x8001ea <mtable+0x10>
    18c6:	90 91 eb 01 	lds	r25, 0x01EB	; 0x8001eb <mtable+0x11>
    18ca:	89 2b       	or	r24, r25
    18cc:	61 f0       	breq	.+24     	; 0x18e6 <__vector_13+0xe2>
    18ce:	20 91 ea 01 	lds	r18, 0x01EA	; 0x8001ea <mtable+0x10>
    18d2:	30 91 eb 01 	lds	r19, 0x01EB	; 0x8001eb <mtable+0x11>
    18d6:	80 91 52 01 	lds	r24, 0x0152	; 0x800152 <otable+0x10>
    18da:	90 91 53 01 	lds	r25, 0x0153	; 0x800153 <otable+0x11>
    18de:	68 e0       	ldi	r22, 0x08	; 8
    18e0:	70 e0       	ldi	r23, 0x00	; 0
    18e2:	f9 01       	movw	r30, r18
    18e4:	09 95       	icall
    18e6:	0e 94 0e 15 	call	0x2a1c	; 0x2a1c <schedule>
    18ea:	00 00       	nop
    18ec:	df 91       	pop	r29
    18ee:	cf 91       	pop	r28
    18f0:	ff 91       	pop	r31
    18f2:	ef 91       	pop	r30
    18f4:	bf 91       	pop	r27
    18f6:	af 91       	pop	r26
    18f8:	9f 91       	pop	r25
    18fa:	8f 91       	pop	r24
    18fc:	7f 91       	pop	r23
    18fe:	6f 91       	pop	r22
    1900:	5f 91       	pop	r21
    1902:	4f 91       	pop	r20
    1904:	3f 91       	pop	r19
    1906:	2f 91       	pop	r18
    1908:	0f 90       	pop	r0
    190a:	00 92 5f 00 	sts	0x005F, r0	; 0x80005f <__TEXT_REGION_LENGTH__+0x7fc05f>
    190e:	0f 90       	pop	r0
    1910:	1f 90       	pop	r1
    1912:	18 95       	reti

00001914 <__vector_14>:
    1914:	1f 92       	push	r1
    1916:	0f 92       	push	r0
    1918:	00 90 5f 00 	lds	r0, 0x005F	; 0x80005f <__TEXT_REGION_LENGTH__+0x7fc05f>
    191c:	0f 92       	push	r0
    191e:	11 24       	eor	r1, r1
    1920:	2f 93       	push	r18
    1922:	3f 93       	push	r19
    1924:	4f 93       	push	r20
    1926:	5f 93       	push	r21
    1928:	6f 93       	push	r22
    192a:	7f 93       	push	r23
    192c:	8f 93       	push	r24
    192e:	9f 93       	push	r25
    1930:	af 93       	push	r26
    1932:	bf 93       	push	r27
    1934:	ef 93       	push	r30
    1936:	ff 93       	push	r31
    1938:	cf 93       	push	r28
    193a:	df 93       	push	r29
    193c:	cd b7       	in	r28, 0x3d	; 61
    193e:	de b7       	in	r29, 0x3e	; 62
    1940:	80 91 40 01 	lds	r24, 0x0140	; 0x800140 <overflows>
    1944:	90 91 41 01 	lds	r25, 0x0141	; 0x800141 <overflows+0x1>
    1948:	09 2e       	mov	r0, r25
    194a:	00 0c       	add	r0, r0
    194c:	aa 0b       	sbc	r26, r26
    194e:	bb 0b       	sbc	r27, r27
    1950:	ac 01       	movw	r20, r24
    1952:	33 27       	eor	r19, r19
    1954:	22 27       	eor	r18, r18
    1956:	84 e8       	ldi	r24, 0x84	; 132
    1958:	90 e0       	ldi	r25, 0x00	; 0
    195a:	fc 01       	movw	r30, r24
    195c:	80 81       	ld	r24, Z
    195e:	91 81       	ldd	r25, Z+1	; 0x01
    1960:	cc 01       	movw	r24, r24
    1962:	a0 e0       	ldi	r26, 0x00	; 0
    1964:	b0 e0       	ldi	r27, 0x00	; 0
    1966:	82 2b       	or	r24, r18
    1968:	93 2b       	or	r25, r19
    196a:	a4 2b       	or	r26, r20
    196c:	b5 2b       	or	r27, r21
    196e:	80 93 3c 01 	sts	0x013C, r24	; 0x80013c <timestamp>
    1972:	90 93 3d 01 	sts	0x013D, r25	; 0x80013d <timestamp+0x1>
    1976:	a0 93 3e 01 	sts	0x013E, r26	; 0x80013e <timestamp+0x2>
    197a:	b0 93 3f 01 	sts	0x013F, r27	; 0x80013f <timestamp+0x3>
    197e:	86 e3       	ldi	r24, 0x36	; 54
    1980:	90 e0       	ldi	r25, 0x00	; 0
    1982:	fc 01       	movw	r30, r24
    1984:	80 81       	ld	r24, Z
    1986:	88 2f       	mov	r24, r24
    1988:	90 e0       	ldi	r25, 0x00	; 0
    198a:	81 70       	andi	r24, 0x01	; 1
    198c:	99 27       	eor	r25, r25
    198e:	89 2b       	or	r24, r25
    1990:	01 f1       	breq	.+64     	; 0x19d2 <__vector_14+0xbe>
    1992:	80 91 40 01 	lds	r24, 0x0140	; 0x800140 <overflows>
    1996:	90 91 41 01 	lds	r25, 0x0141	; 0x800141 <overflows+0x1>
    199a:	01 96       	adiw	r24, 0x01	; 1
    199c:	09 2e       	mov	r0, r25
    199e:	00 0c       	add	r0, r0
    19a0:	aa 0b       	sbc	r26, r26
    19a2:	bb 0b       	sbc	r27, r27
    19a4:	ac 01       	movw	r20, r24
    19a6:	33 27       	eor	r19, r19
    19a8:	22 27       	eor	r18, r18
    19aa:	84 e8       	ldi	r24, 0x84	; 132
    19ac:	90 e0       	ldi	r25, 0x00	; 0
    19ae:	fc 01       	movw	r30, r24
    19b0:	80 81       	ld	r24, Z
    19b2:	91 81       	ldd	r25, Z+1	; 0x01
    19b4:	cc 01       	movw	r24, r24
    19b6:	a0 e0       	ldi	r26, 0x00	; 0
    19b8:	b0 e0       	ldi	r27, 0x00	; 0
    19ba:	82 2b       	or	r24, r18
    19bc:	93 2b       	or	r25, r19
    19be:	a4 2b       	or	r26, r20
    19c0:	b5 2b       	or	r27, r21
    19c2:	80 93 3c 01 	sts	0x013C, r24	; 0x80013c <timestamp>
    19c6:	90 93 3d 01 	sts	0x013D, r25	; 0x80013d <timestamp+0x1>
    19ca:	a0 93 3e 01 	sts	0x013E, r26	; 0x80013e <timestamp+0x2>
    19ce:	b0 93 3f 01 	sts	0x013F, r27	; 0x80013f <timestamp+0x3>
    19d2:	80 91 ec 01 	lds	r24, 0x01EC	; 0x8001ec <mtable+0x12>
    19d6:	90 91 ed 01 	lds	r25, 0x01ED	; 0x8001ed <mtable+0x13>
    19da:	89 2b       	or	r24, r25
    19dc:	61 f0       	breq	.+24     	; 0x19f6 <__vector_14+0xe2>
    19de:	20 91 ec 01 	lds	r18, 0x01EC	; 0x8001ec <mtable+0x12>
    19e2:	30 91 ed 01 	lds	r19, 0x01ED	; 0x8001ed <mtable+0x13>
    19e6:	80 91 54 01 	lds	r24, 0x0154	; 0x800154 <otable+0x12>
    19ea:	90 91 55 01 	lds	r25, 0x0155	; 0x800155 <otable+0x13>
    19ee:	69 e0       	ldi	r22, 0x09	; 9
    19f0:	70 e0       	ldi	r23, 0x00	; 0
    19f2:	f9 01       	movw	r30, r18
    19f4:	09 95       	icall
    19f6:	0e 94 0e 15 	call	0x2a1c	; 0x2a1c <schedule>
    19fa:	00 00       	nop
    19fc:	df 91       	pop	r29
    19fe:	cf 91       	pop	r28
    1a00:	ff 91       	pop	r31
    1a02:	ef 91       	pop	r30
    1a04:	bf 91       	pop	r27
    1a06:	af 91       	pop	r26
    1a08:	9f 91       	pop	r25
    1a0a:	8f 91       	pop	r24
    1a0c:	7f 91       	pop	r23
    1a0e:	6f 91       	pop	r22
    1a10:	5f 91       	pop	r21
    1a12:	4f 91       	pop	r20
    1a14:	3f 91       	pop	r19
    1a16:	2f 91       	pop	r18
    1a18:	0f 90       	pop	r0
    1a1a:	00 92 5f 00 	sts	0x005F, r0	; 0x80005f <__TEXT_REGION_LENGTH__+0x7fc05f>
    1a1e:	0f 90       	pop	r0
    1a20:	1f 90       	pop	r1
    1a22:	18 95       	reti

00001a24 <__vector_15>:
    1a24:	1f 92       	push	r1
    1a26:	0f 92       	push	r0
    1a28:	00 90 5f 00 	lds	r0, 0x005F	; 0x80005f <__TEXT_REGION_LENGTH__+0x7fc05f>
    1a2c:	0f 92       	push	r0
    1a2e:	11 24       	eor	r1, r1
    1a30:	2f 93       	push	r18
    1a32:	3f 93       	push	r19
    1a34:	4f 93       	push	r20
    1a36:	5f 93       	push	r21
    1a38:	6f 93       	push	r22
    1a3a:	7f 93       	push	r23
    1a3c:	8f 93       	push	r24
    1a3e:	9f 93       	push	r25
    1a40:	af 93       	push	r26
    1a42:	bf 93       	push	r27
    1a44:	ef 93       	push	r30
    1a46:	ff 93       	push	r31
    1a48:	cf 93       	push	r28
    1a4a:	df 93       	push	r29
    1a4c:	cd b7       	in	r28, 0x3d	; 61
    1a4e:	de b7       	in	r29, 0x3e	; 62
    1a50:	80 91 40 01 	lds	r24, 0x0140	; 0x800140 <overflows>
    1a54:	90 91 41 01 	lds	r25, 0x0141	; 0x800141 <overflows+0x1>
    1a58:	09 2e       	mov	r0, r25
    1a5a:	00 0c       	add	r0, r0
    1a5c:	aa 0b       	sbc	r26, r26
    1a5e:	bb 0b       	sbc	r27, r27
    1a60:	ac 01       	movw	r20, r24
    1a62:	33 27       	eor	r19, r19
    1a64:	22 27       	eor	r18, r18
    1a66:	84 e8       	ldi	r24, 0x84	; 132
    1a68:	90 e0       	ldi	r25, 0x00	; 0
    1a6a:	fc 01       	movw	r30, r24
    1a6c:	80 81       	ld	r24, Z
    1a6e:	91 81       	ldd	r25, Z+1	; 0x01
    1a70:	cc 01       	movw	r24, r24
    1a72:	a0 e0       	ldi	r26, 0x00	; 0
    1a74:	b0 e0       	ldi	r27, 0x00	; 0
    1a76:	82 2b       	or	r24, r18
    1a78:	93 2b       	or	r25, r19
    1a7a:	a4 2b       	or	r26, r20
    1a7c:	b5 2b       	or	r27, r21
    1a7e:	80 93 3c 01 	sts	0x013C, r24	; 0x80013c <timestamp>
    1a82:	90 93 3d 01 	sts	0x013D, r25	; 0x80013d <timestamp+0x1>
    1a86:	a0 93 3e 01 	sts	0x013E, r26	; 0x80013e <timestamp+0x2>
    1a8a:	b0 93 3f 01 	sts	0x013F, r27	; 0x80013f <timestamp+0x3>
    1a8e:	86 e3       	ldi	r24, 0x36	; 54
    1a90:	90 e0       	ldi	r25, 0x00	; 0
    1a92:	fc 01       	movw	r30, r24
    1a94:	80 81       	ld	r24, Z
    1a96:	88 2f       	mov	r24, r24
    1a98:	90 e0       	ldi	r25, 0x00	; 0
    1a9a:	81 70       	andi	r24, 0x01	; 1
    1a9c:	99 27       	eor	r25, r25
    1a9e:	89 2b       	or	r24, r25
    1aa0:	01 f1       	breq	.+64     	; 0x1ae2 <__vector_15+0xbe>
    1aa2:	80 91 40 01 	lds	r24, 0x0140	; 0x800140 <overflows>
    1aa6:	90 91 41 01 	lds	r25, 0x0141	; 0x800141 <overflows+0x1>
    1aaa:	01 96       	adiw	r24, 0x01	; 1
    1aac:	09 2e       	mov	r0, r25
    1aae:	00 0c       	add	r0, r0
    1ab0:	aa 0b       	sbc	r26, r26
    1ab2:	bb 0b       	sbc	r27, r27
    1ab4:	ac 01       	movw	r20, r24
    1ab6:	33 27       	eor	r19, r19
    1ab8:	22 27       	eor	r18, r18
    1aba:	84 e8       	ldi	r24, 0x84	; 132
    1abc:	90 e0       	ldi	r25, 0x00	; 0
    1abe:	fc 01       	movw	r30, r24
    1ac0:	80 81       	ld	r24, Z
    1ac2:	91 81       	ldd	r25, Z+1	; 0x01
    1ac4:	cc 01       	movw	r24, r24
    1ac6:	a0 e0       	ldi	r26, 0x00	; 0
    1ac8:	b0 e0       	ldi	r27, 0x00	; 0
    1aca:	82 2b       	or	r24, r18
    1acc:	93 2b       	or	r25, r19
    1ace:	a4 2b       	or	r26, r20
    1ad0:	b5 2b       	or	r27, r21
    1ad2:	80 93 3c 01 	sts	0x013C, r24	; 0x80013c <timestamp>
    1ad6:	90 93 3d 01 	sts	0x013D, r25	; 0x80013d <timestamp+0x1>
    1ada:	a0 93 3e 01 	sts	0x013E, r26	; 0x80013e <timestamp+0x2>
    1ade:	b0 93 3f 01 	sts	0x013F, r27	; 0x80013f <timestamp+0x3>
    1ae2:	80 91 ee 01 	lds	r24, 0x01EE	; 0x8001ee <mtable+0x14>
    1ae6:	90 91 ef 01 	lds	r25, 0x01EF	; 0x8001ef <mtable+0x15>
    1aea:	89 2b       	or	r24, r25
    1aec:	61 f0       	breq	.+24     	; 0x1b06 <__vector_15+0xe2>
    1aee:	20 91 ee 01 	lds	r18, 0x01EE	; 0x8001ee <mtable+0x14>
    1af2:	30 91 ef 01 	lds	r19, 0x01EF	; 0x8001ef <mtable+0x15>
    1af6:	80 91 56 01 	lds	r24, 0x0156	; 0x800156 <otable+0x14>
    1afa:	90 91 57 01 	lds	r25, 0x0157	; 0x800157 <otable+0x15>
    1afe:	6a e0       	ldi	r22, 0x0A	; 10
    1b00:	70 e0       	ldi	r23, 0x00	; 0
    1b02:	f9 01       	movw	r30, r18
    1b04:	09 95       	icall
    1b06:	0e 94 0e 15 	call	0x2a1c	; 0x2a1c <schedule>
    1b0a:	00 00       	nop
    1b0c:	df 91       	pop	r29
    1b0e:	cf 91       	pop	r28
    1b10:	ff 91       	pop	r31
    1b12:	ef 91       	pop	r30
    1b14:	bf 91       	pop	r27
    1b16:	af 91       	pop	r26
    1b18:	9f 91       	pop	r25
    1b1a:	8f 91       	pop	r24
    1b1c:	7f 91       	pop	r23
    1b1e:	6f 91       	pop	r22
    1b20:	5f 91       	pop	r21
    1b22:	4f 91       	pop	r20
    1b24:	3f 91       	pop	r19
    1b26:	2f 91       	pop	r18
    1b28:	0f 90       	pop	r0
    1b2a:	00 92 5f 00 	sts	0x005F, r0	; 0x80005f <__TEXT_REGION_LENGTH__+0x7fc05f>
    1b2e:	0f 90       	pop	r0
    1b30:	1f 90       	pop	r1
    1b32:	18 95       	reti

00001b34 <__vector_16>:
    1b34:	1f 92       	push	r1
    1b36:	0f 92       	push	r0
    1b38:	00 90 5f 00 	lds	r0, 0x005F	; 0x80005f <__TEXT_REGION_LENGTH__+0x7fc05f>
    1b3c:	0f 92       	push	r0
    1b3e:	11 24       	eor	r1, r1
    1b40:	2f 93       	push	r18
    1b42:	3f 93       	push	r19
    1b44:	4f 93       	push	r20
    1b46:	5f 93       	push	r21
    1b48:	6f 93       	push	r22
    1b4a:	7f 93       	push	r23
    1b4c:	8f 93       	push	r24
    1b4e:	9f 93       	push	r25
    1b50:	af 93       	push	r26
    1b52:	bf 93       	push	r27
    1b54:	ef 93       	push	r30
    1b56:	ff 93       	push	r31
    1b58:	cf 93       	push	r28
    1b5a:	df 93       	push	r29
    1b5c:	cd b7       	in	r28, 0x3d	; 61
    1b5e:	de b7       	in	r29, 0x3e	; 62
    1b60:	80 91 40 01 	lds	r24, 0x0140	; 0x800140 <overflows>
    1b64:	90 91 41 01 	lds	r25, 0x0141	; 0x800141 <overflows+0x1>
    1b68:	09 2e       	mov	r0, r25
    1b6a:	00 0c       	add	r0, r0
    1b6c:	aa 0b       	sbc	r26, r26
    1b6e:	bb 0b       	sbc	r27, r27
    1b70:	ac 01       	movw	r20, r24
    1b72:	33 27       	eor	r19, r19
    1b74:	22 27       	eor	r18, r18
    1b76:	84 e8       	ldi	r24, 0x84	; 132
    1b78:	90 e0       	ldi	r25, 0x00	; 0
    1b7a:	fc 01       	movw	r30, r24
    1b7c:	80 81       	ld	r24, Z
    1b7e:	91 81       	ldd	r25, Z+1	; 0x01
    1b80:	cc 01       	movw	r24, r24
    1b82:	a0 e0       	ldi	r26, 0x00	; 0
    1b84:	b0 e0       	ldi	r27, 0x00	; 0
    1b86:	82 2b       	or	r24, r18
    1b88:	93 2b       	or	r25, r19
    1b8a:	a4 2b       	or	r26, r20
    1b8c:	b5 2b       	or	r27, r21
    1b8e:	80 93 3c 01 	sts	0x013C, r24	; 0x80013c <timestamp>
    1b92:	90 93 3d 01 	sts	0x013D, r25	; 0x80013d <timestamp+0x1>
    1b96:	a0 93 3e 01 	sts	0x013E, r26	; 0x80013e <timestamp+0x2>
    1b9a:	b0 93 3f 01 	sts	0x013F, r27	; 0x80013f <timestamp+0x3>
    1b9e:	86 e3       	ldi	r24, 0x36	; 54
    1ba0:	90 e0       	ldi	r25, 0x00	; 0
    1ba2:	fc 01       	movw	r30, r24
    1ba4:	80 81       	ld	r24, Z
    1ba6:	88 2f       	mov	r24, r24
    1ba8:	90 e0       	ldi	r25, 0x00	; 0
    1baa:	81 70       	andi	r24, 0x01	; 1
    1bac:	99 27       	eor	r25, r25
    1bae:	89 2b       	or	r24, r25
    1bb0:	01 f1       	breq	.+64     	; 0x1bf2 <__vector_16+0xbe>
    1bb2:	80 91 40 01 	lds	r24, 0x0140	; 0x800140 <overflows>
    1bb6:	90 91 41 01 	lds	r25, 0x0141	; 0x800141 <overflows+0x1>
    1bba:	01 96       	adiw	r24, 0x01	; 1
    1bbc:	09 2e       	mov	r0, r25
    1bbe:	00 0c       	add	r0, r0
    1bc0:	aa 0b       	sbc	r26, r26
    1bc2:	bb 0b       	sbc	r27, r27
    1bc4:	ac 01       	movw	r20, r24
    1bc6:	33 27       	eor	r19, r19
    1bc8:	22 27       	eor	r18, r18
    1bca:	84 e8       	ldi	r24, 0x84	; 132
    1bcc:	90 e0       	ldi	r25, 0x00	; 0
    1bce:	fc 01       	movw	r30, r24
    1bd0:	80 81       	ld	r24, Z
    1bd2:	91 81       	ldd	r25, Z+1	; 0x01
    1bd4:	cc 01       	movw	r24, r24
    1bd6:	a0 e0       	ldi	r26, 0x00	; 0
    1bd8:	b0 e0       	ldi	r27, 0x00	; 0
    1bda:	82 2b       	or	r24, r18
    1bdc:	93 2b       	or	r25, r19
    1bde:	a4 2b       	or	r26, r20
    1be0:	b5 2b       	or	r27, r21
    1be2:	80 93 3c 01 	sts	0x013C, r24	; 0x80013c <timestamp>
    1be6:	90 93 3d 01 	sts	0x013D, r25	; 0x80013d <timestamp+0x1>
    1bea:	a0 93 3e 01 	sts	0x013E, r26	; 0x80013e <timestamp+0x2>
    1bee:	b0 93 3f 01 	sts	0x013F, r27	; 0x80013f <timestamp+0x3>
    1bf2:	80 91 f0 01 	lds	r24, 0x01F0	; 0x8001f0 <mtable+0x16>
    1bf6:	90 91 f1 01 	lds	r25, 0x01F1	; 0x8001f1 <mtable+0x17>
    1bfa:	89 2b       	or	r24, r25
    1bfc:	61 f0       	breq	.+24     	; 0x1c16 <__vector_16+0xe2>
    1bfe:	20 91 f0 01 	lds	r18, 0x01F0	; 0x8001f0 <mtable+0x16>
    1c02:	30 91 f1 01 	lds	r19, 0x01F1	; 0x8001f1 <mtable+0x17>
    1c06:	80 91 58 01 	lds	r24, 0x0158	; 0x800158 <otable+0x16>
    1c0a:	90 91 59 01 	lds	r25, 0x0159	; 0x800159 <otable+0x17>
    1c0e:	6b e0       	ldi	r22, 0x0B	; 11
    1c10:	70 e0       	ldi	r23, 0x00	; 0
    1c12:	f9 01       	movw	r30, r18
    1c14:	09 95       	icall
    1c16:	0e 94 0e 15 	call	0x2a1c	; 0x2a1c <schedule>
    1c1a:	00 00       	nop
    1c1c:	df 91       	pop	r29
    1c1e:	cf 91       	pop	r28
    1c20:	ff 91       	pop	r31
    1c22:	ef 91       	pop	r30
    1c24:	bf 91       	pop	r27
    1c26:	af 91       	pop	r26
    1c28:	9f 91       	pop	r25
    1c2a:	8f 91       	pop	r24
    1c2c:	7f 91       	pop	r23
    1c2e:	6f 91       	pop	r22
    1c30:	5f 91       	pop	r21
    1c32:	4f 91       	pop	r20
    1c34:	3f 91       	pop	r19
    1c36:	2f 91       	pop	r18
    1c38:	0f 90       	pop	r0
    1c3a:	00 92 5f 00 	sts	0x005F, r0	; 0x80005f <__TEXT_REGION_LENGTH__+0x7fc05f>
    1c3e:	0f 90       	pop	r0
    1c40:	1f 90       	pop	r1
    1c42:	18 95       	reti

00001c44 <__vector_17>:
    1c44:	1f 92       	push	r1
    1c46:	0f 92       	push	r0
    1c48:	00 90 5f 00 	lds	r0, 0x005F	; 0x80005f <__TEXT_REGION_LENGTH__+0x7fc05f>
    1c4c:	0f 92       	push	r0
    1c4e:	11 24       	eor	r1, r1
    1c50:	2f 93       	push	r18
    1c52:	3f 93       	push	r19
    1c54:	4f 93       	push	r20
    1c56:	5f 93       	push	r21
    1c58:	6f 93       	push	r22
    1c5a:	7f 93       	push	r23
    1c5c:	8f 93       	push	r24
    1c5e:	9f 93       	push	r25
    1c60:	af 93       	push	r26
    1c62:	bf 93       	push	r27
    1c64:	ef 93       	push	r30
    1c66:	ff 93       	push	r31
    1c68:	cf 93       	push	r28
    1c6a:	df 93       	push	r29
    1c6c:	cd b7       	in	r28, 0x3d	; 61
    1c6e:	de b7       	in	r29, 0x3e	; 62
    1c70:	80 91 40 01 	lds	r24, 0x0140	; 0x800140 <overflows>
    1c74:	90 91 41 01 	lds	r25, 0x0141	; 0x800141 <overflows+0x1>
    1c78:	09 2e       	mov	r0, r25
    1c7a:	00 0c       	add	r0, r0
    1c7c:	aa 0b       	sbc	r26, r26
    1c7e:	bb 0b       	sbc	r27, r27
    1c80:	ac 01       	movw	r20, r24
    1c82:	33 27       	eor	r19, r19
    1c84:	22 27       	eor	r18, r18
    1c86:	84 e8       	ldi	r24, 0x84	; 132
    1c88:	90 e0       	ldi	r25, 0x00	; 0
    1c8a:	fc 01       	movw	r30, r24
    1c8c:	80 81       	ld	r24, Z
    1c8e:	91 81       	ldd	r25, Z+1	; 0x01
    1c90:	cc 01       	movw	r24, r24
    1c92:	a0 e0       	ldi	r26, 0x00	; 0
    1c94:	b0 e0       	ldi	r27, 0x00	; 0
    1c96:	82 2b       	or	r24, r18
    1c98:	93 2b       	or	r25, r19
    1c9a:	a4 2b       	or	r26, r20
    1c9c:	b5 2b       	or	r27, r21
    1c9e:	80 93 3c 01 	sts	0x013C, r24	; 0x80013c <timestamp>
    1ca2:	90 93 3d 01 	sts	0x013D, r25	; 0x80013d <timestamp+0x1>
    1ca6:	a0 93 3e 01 	sts	0x013E, r26	; 0x80013e <timestamp+0x2>
    1caa:	b0 93 3f 01 	sts	0x013F, r27	; 0x80013f <timestamp+0x3>
    1cae:	86 e3       	ldi	r24, 0x36	; 54
    1cb0:	90 e0       	ldi	r25, 0x00	; 0
    1cb2:	fc 01       	movw	r30, r24
    1cb4:	80 81       	ld	r24, Z
    1cb6:	88 2f       	mov	r24, r24
    1cb8:	90 e0       	ldi	r25, 0x00	; 0
    1cba:	81 70       	andi	r24, 0x01	; 1
    1cbc:	99 27       	eor	r25, r25
    1cbe:	89 2b       	or	r24, r25
    1cc0:	01 f1       	breq	.+64     	; 0x1d02 <__vector_17+0xbe>
    1cc2:	80 91 40 01 	lds	r24, 0x0140	; 0x800140 <overflows>
    1cc6:	90 91 41 01 	lds	r25, 0x0141	; 0x800141 <overflows+0x1>
    1cca:	01 96       	adiw	r24, 0x01	; 1
    1ccc:	09 2e       	mov	r0, r25
    1cce:	00 0c       	add	r0, r0
    1cd0:	aa 0b       	sbc	r26, r26
    1cd2:	bb 0b       	sbc	r27, r27
    1cd4:	ac 01       	movw	r20, r24
    1cd6:	33 27       	eor	r19, r19
    1cd8:	22 27       	eor	r18, r18
    1cda:	84 e8       	ldi	r24, 0x84	; 132
    1cdc:	90 e0       	ldi	r25, 0x00	; 0
    1cde:	fc 01       	movw	r30, r24
    1ce0:	80 81       	ld	r24, Z
    1ce2:	91 81       	ldd	r25, Z+1	; 0x01
    1ce4:	cc 01       	movw	r24, r24
    1ce6:	a0 e0       	ldi	r26, 0x00	; 0
    1ce8:	b0 e0       	ldi	r27, 0x00	; 0
    1cea:	82 2b       	or	r24, r18
    1cec:	93 2b       	or	r25, r19
    1cee:	a4 2b       	or	r26, r20
    1cf0:	b5 2b       	or	r27, r21
    1cf2:	80 93 3c 01 	sts	0x013C, r24	; 0x80013c <timestamp>
    1cf6:	90 93 3d 01 	sts	0x013D, r25	; 0x80013d <timestamp+0x1>
    1cfa:	a0 93 3e 01 	sts	0x013E, r26	; 0x80013e <timestamp+0x2>
    1cfe:	b0 93 3f 01 	sts	0x013F, r27	; 0x80013f <timestamp+0x3>
    1d02:	80 91 f2 01 	lds	r24, 0x01F2	; 0x8001f2 <mtable+0x18>
    1d06:	90 91 f3 01 	lds	r25, 0x01F3	; 0x8001f3 <mtable+0x19>
    1d0a:	89 2b       	or	r24, r25
    1d0c:	61 f0       	breq	.+24     	; 0x1d26 <__vector_17+0xe2>
    1d0e:	20 91 f2 01 	lds	r18, 0x01F2	; 0x8001f2 <mtable+0x18>
    1d12:	30 91 f3 01 	lds	r19, 0x01F3	; 0x8001f3 <mtable+0x19>
    1d16:	80 91 5a 01 	lds	r24, 0x015A	; 0x80015a <otable+0x18>
    1d1a:	90 91 5b 01 	lds	r25, 0x015B	; 0x80015b <otable+0x19>
    1d1e:	6c e0       	ldi	r22, 0x0C	; 12
    1d20:	70 e0       	ldi	r23, 0x00	; 0
    1d22:	f9 01       	movw	r30, r18
    1d24:	09 95       	icall
    1d26:	0e 94 0e 15 	call	0x2a1c	; 0x2a1c <schedule>
    1d2a:	00 00       	nop
    1d2c:	df 91       	pop	r29
    1d2e:	cf 91       	pop	r28
    1d30:	ff 91       	pop	r31
    1d32:	ef 91       	pop	r30
    1d34:	bf 91       	pop	r27
    1d36:	af 91       	pop	r26
    1d38:	9f 91       	pop	r25
    1d3a:	8f 91       	pop	r24
    1d3c:	7f 91       	pop	r23
    1d3e:	6f 91       	pop	r22
    1d40:	5f 91       	pop	r21
    1d42:	4f 91       	pop	r20
    1d44:	3f 91       	pop	r19
    1d46:	2f 91       	pop	r18
    1d48:	0f 90       	pop	r0
    1d4a:	00 92 5f 00 	sts	0x005F, r0	; 0x80005f <__TEXT_REGION_LENGTH__+0x7fc05f>
    1d4e:	0f 90       	pop	r0
    1d50:	1f 90       	pop	r1
    1d52:	18 95       	reti

00001d54 <__vector_18>:
    1d54:	1f 92       	push	r1
    1d56:	0f 92       	push	r0
    1d58:	00 90 5f 00 	lds	r0, 0x005F	; 0x80005f <__TEXT_REGION_LENGTH__+0x7fc05f>
    1d5c:	0f 92       	push	r0
    1d5e:	11 24       	eor	r1, r1
    1d60:	2f 93       	push	r18
    1d62:	3f 93       	push	r19
    1d64:	4f 93       	push	r20
    1d66:	5f 93       	push	r21
    1d68:	6f 93       	push	r22
    1d6a:	7f 93       	push	r23
    1d6c:	8f 93       	push	r24
    1d6e:	9f 93       	push	r25
    1d70:	af 93       	push	r26
    1d72:	bf 93       	push	r27
    1d74:	ef 93       	push	r30
    1d76:	ff 93       	push	r31
    1d78:	cf 93       	push	r28
    1d7a:	df 93       	push	r29
    1d7c:	cd b7       	in	r28, 0x3d	; 61
    1d7e:	de b7       	in	r29, 0x3e	; 62
    1d80:	80 91 40 01 	lds	r24, 0x0140	; 0x800140 <overflows>
    1d84:	90 91 41 01 	lds	r25, 0x0141	; 0x800141 <overflows+0x1>
    1d88:	09 2e       	mov	r0, r25
    1d8a:	00 0c       	add	r0, r0
    1d8c:	aa 0b       	sbc	r26, r26
    1d8e:	bb 0b       	sbc	r27, r27
    1d90:	ac 01       	movw	r20, r24
    1d92:	33 27       	eor	r19, r19
    1d94:	22 27       	eor	r18, r18
    1d96:	84 e8       	ldi	r24, 0x84	; 132
    1d98:	90 e0       	ldi	r25, 0x00	; 0
    1d9a:	fc 01       	movw	r30, r24
    1d9c:	80 81       	ld	r24, Z
    1d9e:	91 81       	ldd	r25, Z+1	; 0x01
    1da0:	cc 01       	movw	r24, r24
    1da2:	a0 e0       	ldi	r26, 0x00	; 0
    1da4:	b0 e0       	ldi	r27, 0x00	; 0
    1da6:	82 2b       	or	r24, r18
    1da8:	93 2b       	or	r25, r19
    1daa:	a4 2b       	or	r26, r20
    1dac:	b5 2b       	or	r27, r21
    1dae:	80 93 3c 01 	sts	0x013C, r24	; 0x80013c <timestamp>
    1db2:	90 93 3d 01 	sts	0x013D, r25	; 0x80013d <timestamp+0x1>
    1db6:	a0 93 3e 01 	sts	0x013E, r26	; 0x80013e <timestamp+0x2>
    1dba:	b0 93 3f 01 	sts	0x013F, r27	; 0x80013f <timestamp+0x3>
    1dbe:	86 e3       	ldi	r24, 0x36	; 54
    1dc0:	90 e0       	ldi	r25, 0x00	; 0
    1dc2:	fc 01       	movw	r30, r24
    1dc4:	80 81       	ld	r24, Z
    1dc6:	88 2f       	mov	r24, r24
    1dc8:	90 e0       	ldi	r25, 0x00	; 0
    1dca:	81 70       	andi	r24, 0x01	; 1
    1dcc:	99 27       	eor	r25, r25
    1dce:	89 2b       	or	r24, r25
    1dd0:	01 f1       	breq	.+64     	; 0x1e12 <__vector_18+0xbe>
    1dd2:	80 91 40 01 	lds	r24, 0x0140	; 0x800140 <overflows>
    1dd6:	90 91 41 01 	lds	r25, 0x0141	; 0x800141 <overflows+0x1>
    1dda:	01 96       	adiw	r24, 0x01	; 1
    1ddc:	09 2e       	mov	r0, r25
    1dde:	00 0c       	add	r0, r0
    1de0:	aa 0b       	sbc	r26, r26
    1de2:	bb 0b       	sbc	r27, r27
    1de4:	ac 01       	movw	r20, r24
    1de6:	33 27       	eor	r19, r19
    1de8:	22 27       	eor	r18, r18
    1dea:	84 e8       	ldi	r24, 0x84	; 132
    1dec:	90 e0       	ldi	r25, 0x00	; 0
    1dee:	fc 01       	movw	r30, r24
    1df0:	80 81       	ld	r24, Z
    1df2:	91 81       	ldd	r25, Z+1	; 0x01
    1df4:	cc 01       	movw	r24, r24
    1df6:	a0 e0       	ldi	r26, 0x00	; 0
    1df8:	b0 e0       	ldi	r27, 0x00	; 0
    1dfa:	82 2b       	or	r24, r18
    1dfc:	93 2b       	or	r25, r19
    1dfe:	a4 2b       	or	r26, r20
    1e00:	b5 2b       	or	r27, r21
    1e02:	80 93 3c 01 	sts	0x013C, r24	; 0x80013c <timestamp>
    1e06:	90 93 3d 01 	sts	0x013D, r25	; 0x80013d <timestamp+0x1>
    1e0a:	a0 93 3e 01 	sts	0x013E, r26	; 0x80013e <timestamp+0x2>
    1e0e:	b0 93 3f 01 	sts	0x013F, r27	; 0x80013f <timestamp+0x3>
    1e12:	80 91 f4 01 	lds	r24, 0x01F4	; 0x8001f4 <mtable+0x1a>
    1e16:	90 91 f5 01 	lds	r25, 0x01F5	; 0x8001f5 <mtable+0x1b>
    1e1a:	89 2b       	or	r24, r25
    1e1c:	61 f0       	breq	.+24     	; 0x1e36 <__vector_18+0xe2>
    1e1e:	20 91 f4 01 	lds	r18, 0x01F4	; 0x8001f4 <mtable+0x1a>
    1e22:	30 91 f5 01 	lds	r19, 0x01F5	; 0x8001f5 <mtable+0x1b>
    1e26:	80 91 5c 01 	lds	r24, 0x015C	; 0x80015c <otable+0x1a>
    1e2a:	90 91 5d 01 	lds	r25, 0x015D	; 0x80015d <otable+0x1b>
    1e2e:	6d e0       	ldi	r22, 0x0D	; 13
    1e30:	70 e0       	ldi	r23, 0x00	; 0
    1e32:	f9 01       	movw	r30, r18
    1e34:	09 95       	icall
    1e36:	0e 94 0e 15 	call	0x2a1c	; 0x2a1c <schedule>
    1e3a:	00 00       	nop
    1e3c:	df 91       	pop	r29
    1e3e:	cf 91       	pop	r28
    1e40:	ff 91       	pop	r31
    1e42:	ef 91       	pop	r30
    1e44:	bf 91       	pop	r27
    1e46:	af 91       	pop	r26
    1e48:	9f 91       	pop	r25
    1e4a:	8f 91       	pop	r24
    1e4c:	7f 91       	pop	r23
    1e4e:	6f 91       	pop	r22
    1e50:	5f 91       	pop	r21
    1e52:	4f 91       	pop	r20
    1e54:	3f 91       	pop	r19
    1e56:	2f 91       	pop	r18
    1e58:	0f 90       	pop	r0
    1e5a:	00 92 5f 00 	sts	0x005F, r0	; 0x80005f <__TEXT_REGION_LENGTH__+0x7fc05f>
    1e5e:	0f 90       	pop	r0
    1e60:	1f 90       	pop	r1
    1e62:	18 95       	reti

00001e64 <__vector_19>:
    1e64:	1f 92       	push	r1
    1e66:	0f 92       	push	r0
    1e68:	00 90 5f 00 	lds	r0, 0x005F	; 0x80005f <__TEXT_REGION_LENGTH__+0x7fc05f>
    1e6c:	0f 92       	push	r0
    1e6e:	11 24       	eor	r1, r1
    1e70:	2f 93       	push	r18
    1e72:	3f 93       	push	r19
    1e74:	4f 93       	push	r20
    1e76:	5f 93       	push	r21
    1e78:	6f 93       	push	r22
    1e7a:	7f 93       	push	r23
    1e7c:	8f 93       	push	r24
    1e7e:	9f 93       	push	r25
    1e80:	af 93       	push	r26
    1e82:	bf 93       	push	r27
    1e84:	ef 93       	push	r30
    1e86:	ff 93       	push	r31
    1e88:	cf 93       	push	r28
    1e8a:	df 93       	push	r29
    1e8c:	cd b7       	in	r28, 0x3d	; 61
    1e8e:	de b7       	in	r29, 0x3e	; 62
    1e90:	80 91 40 01 	lds	r24, 0x0140	; 0x800140 <overflows>
    1e94:	90 91 41 01 	lds	r25, 0x0141	; 0x800141 <overflows+0x1>
    1e98:	09 2e       	mov	r0, r25
    1e9a:	00 0c       	add	r0, r0
    1e9c:	aa 0b       	sbc	r26, r26
    1e9e:	bb 0b       	sbc	r27, r27
    1ea0:	ac 01       	movw	r20, r24
    1ea2:	33 27       	eor	r19, r19
    1ea4:	22 27       	eor	r18, r18
    1ea6:	84 e8       	ldi	r24, 0x84	; 132
    1ea8:	90 e0       	ldi	r25, 0x00	; 0
    1eaa:	fc 01       	movw	r30, r24
    1eac:	80 81       	ld	r24, Z
    1eae:	91 81       	ldd	r25, Z+1	; 0x01
    1eb0:	cc 01       	movw	r24, r24
    1eb2:	a0 e0       	ldi	r26, 0x00	; 0
    1eb4:	b0 e0       	ldi	r27, 0x00	; 0
    1eb6:	82 2b       	or	r24, r18
    1eb8:	93 2b       	or	r25, r19
    1eba:	a4 2b       	or	r26, r20
    1ebc:	b5 2b       	or	r27, r21
    1ebe:	80 93 3c 01 	sts	0x013C, r24	; 0x80013c <timestamp>
    1ec2:	90 93 3d 01 	sts	0x013D, r25	; 0x80013d <timestamp+0x1>
    1ec6:	a0 93 3e 01 	sts	0x013E, r26	; 0x80013e <timestamp+0x2>
    1eca:	b0 93 3f 01 	sts	0x013F, r27	; 0x80013f <timestamp+0x3>
    1ece:	86 e3       	ldi	r24, 0x36	; 54
    1ed0:	90 e0       	ldi	r25, 0x00	; 0
    1ed2:	fc 01       	movw	r30, r24
    1ed4:	80 81       	ld	r24, Z
    1ed6:	88 2f       	mov	r24, r24
    1ed8:	90 e0       	ldi	r25, 0x00	; 0
    1eda:	81 70       	andi	r24, 0x01	; 1
    1edc:	99 27       	eor	r25, r25
    1ede:	89 2b       	or	r24, r25
    1ee0:	01 f1       	breq	.+64     	; 0x1f22 <__vector_19+0xbe>
    1ee2:	80 91 40 01 	lds	r24, 0x0140	; 0x800140 <overflows>
    1ee6:	90 91 41 01 	lds	r25, 0x0141	; 0x800141 <overflows+0x1>
    1eea:	01 96       	adiw	r24, 0x01	; 1
    1eec:	09 2e       	mov	r0, r25
    1eee:	00 0c       	add	r0, r0
    1ef0:	aa 0b       	sbc	r26, r26
    1ef2:	bb 0b       	sbc	r27, r27
    1ef4:	ac 01       	movw	r20, r24
    1ef6:	33 27       	eor	r19, r19
    1ef8:	22 27       	eor	r18, r18
    1efa:	84 e8       	ldi	r24, 0x84	; 132
    1efc:	90 e0       	ldi	r25, 0x00	; 0
    1efe:	fc 01       	movw	r30, r24
    1f00:	80 81       	ld	r24, Z
    1f02:	91 81       	ldd	r25, Z+1	; 0x01
    1f04:	cc 01       	movw	r24, r24
    1f06:	a0 e0       	ldi	r26, 0x00	; 0
    1f08:	b0 e0       	ldi	r27, 0x00	; 0
    1f0a:	82 2b       	or	r24, r18
    1f0c:	93 2b       	or	r25, r19
    1f0e:	a4 2b       	or	r26, r20
    1f10:	b5 2b       	or	r27, r21
    1f12:	80 93 3c 01 	sts	0x013C, r24	; 0x80013c <timestamp>
    1f16:	90 93 3d 01 	sts	0x013D, r25	; 0x80013d <timestamp+0x1>
    1f1a:	a0 93 3e 01 	sts	0x013E, r26	; 0x80013e <timestamp+0x2>
    1f1e:	b0 93 3f 01 	sts	0x013F, r27	; 0x80013f <timestamp+0x3>
    1f22:	80 91 f6 01 	lds	r24, 0x01F6	; 0x8001f6 <mtable+0x1c>
    1f26:	90 91 f7 01 	lds	r25, 0x01F7	; 0x8001f7 <mtable+0x1d>
    1f2a:	89 2b       	or	r24, r25
    1f2c:	61 f0       	breq	.+24     	; 0x1f46 <__vector_19+0xe2>
    1f2e:	20 91 f6 01 	lds	r18, 0x01F6	; 0x8001f6 <mtable+0x1c>
    1f32:	30 91 f7 01 	lds	r19, 0x01F7	; 0x8001f7 <mtable+0x1d>
    1f36:	80 91 5e 01 	lds	r24, 0x015E	; 0x80015e <otable+0x1c>
    1f3a:	90 91 5f 01 	lds	r25, 0x015F	; 0x80015f <otable+0x1d>
    1f3e:	6e e0       	ldi	r22, 0x0E	; 14
    1f40:	70 e0       	ldi	r23, 0x00	; 0
    1f42:	f9 01       	movw	r30, r18
    1f44:	09 95       	icall
    1f46:	0e 94 0e 15 	call	0x2a1c	; 0x2a1c <schedule>
    1f4a:	00 00       	nop
    1f4c:	df 91       	pop	r29
    1f4e:	cf 91       	pop	r28
    1f50:	ff 91       	pop	r31
    1f52:	ef 91       	pop	r30
    1f54:	bf 91       	pop	r27
    1f56:	af 91       	pop	r26
    1f58:	9f 91       	pop	r25
    1f5a:	8f 91       	pop	r24
    1f5c:	7f 91       	pop	r23
    1f5e:	6f 91       	pop	r22
    1f60:	5f 91       	pop	r21
    1f62:	4f 91       	pop	r20
    1f64:	3f 91       	pop	r19
    1f66:	2f 91       	pop	r18
    1f68:	0f 90       	pop	r0
    1f6a:	00 92 5f 00 	sts	0x005F, r0	; 0x80005f <__TEXT_REGION_LENGTH__+0x7fc05f>
    1f6e:	0f 90       	pop	r0
    1f70:	1f 90       	pop	r1
    1f72:	18 95       	reti

00001f74 <__vector_20>:
    1f74:	1f 92       	push	r1
    1f76:	0f 92       	push	r0
    1f78:	00 90 5f 00 	lds	r0, 0x005F	; 0x80005f <__TEXT_REGION_LENGTH__+0x7fc05f>
    1f7c:	0f 92       	push	r0
    1f7e:	11 24       	eor	r1, r1
    1f80:	2f 93       	push	r18
    1f82:	3f 93       	push	r19
    1f84:	4f 93       	push	r20
    1f86:	5f 93       	push	r21
    1f88:	6f 93       	push	r22
    1f8a:	7f 93       	push	r23
    1f8c:	8f 93       	push	r24
    1f8e:	9f 93       	push	r25
    1f90:	af 93       	push	r26
    1f92:	bf 93       	push	r27
    1f94:	ef 93       	push	r30
    1f96:	ff 93       	push	r31
    1f98:	cf 93       	push	r28
    1f9a:	df 93       	push	r29
    1f9c:	cd b7       	in	r28, 0x3d	; 61
    1f9e:	de b7       	in	r29, 0x3e	; 62
    1fa0:	80 91 40 01 	lds	r24, 0x0140	; 0x800140 <overflows>
    1fa4:	90 91 41 01 	lds	r25, 0x0141	; 0x800141 <overflows+0x1>
    1fa8:	09 2e       	mov	r0, r25
    1faa:	00 0c       	add	r0, r0
    1fac:	aa 0b       	sbc	r26, r26
    1fae:	bb 0b       	sbc	r27, r27
    1fb0:	ac 01       	movw	r20, r24
    1fb2:	33 27       	eor	r19, r19
    1fb4:	22 27       	eor	r18, r18
    1fb6:	84 e8       	ldi	r24, 0x84	; 132
    1fb8:	90 e0       	ldi	r25, 0x00	; 0
    1fba:	fc 01       	movw	r30, r24
    1fbc:	80 81       	ld	r24, Z
    1fbe:	91 81       	ldd	r25, Z+1	; 0x01
    1fc0:	cc 01       	movw	r24, r24
    1fc2:	a0 e0       	ldi	r26, 0x00	; 0
    1fc4:	b0 e0       	ldi	r27, 0x00	; 0
    1fc6:	82 2b       	or	r24, r18
    1fc8:	93 2b       	or	r25, r19
    1fca:	a4 2b       	or	r26, r20
    1fcc:	b5 2b       	or	r27, r21
    1fce:	80 93 3c 01 	sts	0x013C, r24	; 0x80013c <timestamp>
    1fd2:	90 93 3d 01 	sts	0x013D, r25	; 0x80013d <timestamp+0x1>
    1fd6:	a0 93 3e 01 	sts	0x013E, r26	; 0x80013e <timestamp+0x2>
    1fda:	b0 93 3f 01 	sts	0x013F, r27	; 0x80013f <timestamp+0x3>
    1fde:	86 e3       	ldi	r24, 0x36	; 54
    1fe0:	90 e0       	ldi	r25, 0x00	; 0
    1fe2:	fc 01       	movw	r30, r24
    1fe4:	80 81       	ld	r24, Z
    1fe6:	88 2f       	mov	r24, r24
    1fe8:	90 e0       	ldi	r25, 0x00	; 0
    1fea:	81 70       	andi	r24, 0x01	; 1
    1fec:	99 27       	eor	r25, r25
    1fee:	89 2b       	or	r24, r25
    1ff0:	01 f1       	breq	.+64     	; 0x2032 <__vector_20+0xbe>
    1ff2:	80 91 40 01 	lds	r24, 0x0140	; 0x800140 <overflows>
    1ff6:	90 91 41 01 	lds	r25, 0x0141	; 0x800141 <overflows+0x1>
    1ffa:	01 96       	adiw	r24, 0x01	; 1
    1ffc:	09 2e       	mov	r0, r25
    1ffe:	00 0c       	add	r0, r0
    2000:	aa 0b       	sbc	r26, r26
    2002:	bb 0b       	sbc	r27, r27
    2004:	ac 01       	movw	r20, r24
    2006:	33 27       	eor	r19, r19
    2008:	22 27       	eor	r18, r18
    200a:	84 e8       	ldi	r24, 0x84	; 132
    200c:	90 e0       	ldi	r25, 0x00	; 0
    200e:	fc 01       	movw	r30, r24
    2010:	80 81       	ld	r24, Z
    2012:	91 81       	ldd	r25, Z+1	; 0x01
    2014:	cc 01       	movw	r24, r24
    2016:	a0 e0       	ldi	r26, 0x00	; 0
    2018:	b0 e0       	ldi	r27, 0x00	; 0
    201a:	82 2b       	or	r24, r18
    201c:	93 2b       	or	r25, r19
    201e:	a4 2b       	or	r26, r20
    2020:	b5 2b       	or	r27, r21
    2022:	80 93 3c 01 	sts	0x013C, r24	; 0x80013c <timestamp>
    2026:	90 93 3d 01 	sts	0x013D, r25	; 0x80013d <timestamp+0x1>
    202a:	a0 93 3e 01 	sts	0x013E, r26	; 0x80013e <timestamp+0x2>
    202e:	b0 93 3f 01 	sts	0x013F, r27	; 0x80013f <timestamp+0x3>
    2032:	80 91 f8 01 	lds	r24, 0x01F8	; 0x8001f8 <mtable+0x1e>
    2036:	90 91 f9 01 	lds	r25, 0x01F9	; 0x8001f9 <mtable+0x1f>
    203a:	89 2b       	or	r24, r25
    203c:	61 f0       	breq	.+24     	; 0x2056 <__vector_20+0xe2>
    203e:	20 91 f8 01 	lds	r18, 0x01F8	; 0x8001f8 <mtable+0x1e>
    2042:	30 91 f9 01 	lds	r19, 0x01F9	; 0x8001f9 <mtable+0x1f>
    2046:	80 91 60 01 	lds	r24, 0x0160	; 0x800160 <otable+0x1e>
    204a:	90 91 61 01 	lds	r25, 0x0161	; 0x800161 <otable+0x1f>
    204e:	6f e0       	ldi	r22, 0x0F	; 15
    2050:	70 e0       	ldi	r23, 0x00	; 0
    2052:	f9 01       	movw	r30, r18
    2054:	09 95       	icall
    2056:	0e 94 0e 15 	call	0x2a1c	; 0x2a1c <schedule>
    205a:	00 00       	nop
    205c:	df 91       	pop	r29
    205e:	cf 91       	pop	r28
    2060:	ff 91       	pop	r31
    2062:	ef 91       	pop	r30
    2064:	bf 91       	pop	r27
    2066:	af 91       	pop	r26
    2068:	9f 91       	pop	r25
    206a:	8f 91       	pop	r24
    206c:	7f 91       	pop	r23
    206e:	6f 91       	pop	r22
    2070:	5f 91       	pop	r21
    2072:	4f 91       	pop	r20
    2074:	3f 91       	pop	r19
    2076:	2f 91       	pop	r18
    2078:	0f 90       	pop	r0
    207a:	00 92 5f 00 	sts	0x005F, r0	; 0x80005f <__TEXT_REGION_LENGTH__+0x7fc05f>
    207e:	0f 90       	pop	r0
    2080:	1f 90       	pop	r1
    2082:	18 95       	reti

00002084 <__vector_21>:
    2084:	1f 92       	push	r1
    2086:	0f 92       	push	r0
    2088:	00 90 5f 00 	lds	r0, 0x005F	; 0x80005f <__TEXT_REGION_LENGTH__+0x7fc05f>
    208c:	0f 92       	push	r0
    208e:	11 24       	eor	r1, r1
    2090:	2f 93       	push	r18
    2092:	3f 93       	push	r19
    2094:	4f 93       	push	r20
    2096:	5f 93       	push	r21
    2098:	6f 93       	push	r22
    209a:	7f 93       	push	r23
    209c:	8f 93       	push	r24
    209e:	9f 93       	push	r25
    20a0:	af 93       	push	r26
    20a2:	bf 93       	push	r27
    20a4:	ef 93       	push	r30
    20a6:	ff 93       	push	r31
    20a8:	cf 93       	push	r28
    20aa:	df 93       	push	r29
    20ac:	cd b7       	in	r28, 0x3d	; 61
    20ae:	de b7       	in	r29, 0x3e	; 62
    20b0:	80 91 40 01 	lds	r24, 0x0140	; 0x800140 <overflows>
    20b4:	90 91 41 01 	lds	r25, 0x0141	; 0x800141 <overflows+0x1>
    20b8:	09 2e       	mov	r0, r25
    20ba:	00 0c       	add	r0, r0
    20bc:	aa 0b       	sbc	r26, r26
    20be:	bb 0b       	sbc	r27, r27
    20c0:	ac 01       	movw	r20, r24
    20c2:	33 27       	eor	r19, r19
    20c4:	22 27       	eor	r18, r18
    20c6:	84 e8       	ldi	r24, 0x84	; 132
    20c8:	90 e0       	ldi	r25, 0x00	; 0
    20ca:	fc 01       	movw	r30, r24
    20cc:	80 81       	ld	r24, Z
    20ce:	91 81       	ldd	r25, Z+1	; 0x01
    20d0:	cc 01       	movw	r24, r24
    20d2:	a0 e0       	ldi	r26, 0x00	; 0
    20d4:	b0 e0       	ldi	r27, 0x00	; 0
    20d6:	82 2b       	or	r24, r18
    20d8:	93 2b       	or	r25, r19
    20da:	a4 2b       	or	r26, r20
    20dc:	b5 2b       	or	r27, r21
    20de:	80 93 3c 01 	sts	0x013C, r24	; 0x80013c <timestamp>
    20e2:	90 93 3d 01 	sts	0x013D, r25	; 0x80013d <timestamp+0x1>
    20e6:	a0 93 3e 01 	sts	0x013E, r26	; 0x80013e <timestamp+0x2>
    20ea:	b0 93 3f 01 	sts	0x013F, r27	; 0x80013f <timestamp+0x3>
    20ee:	86 e3       	ldi	r24, 0x36	; 54
    20f0:	90 e0       	ldi	r25, 0x00	; 0
    20f2:	fc 01       	movw	r30, r24
    20f4:	80 81       	ld	r24, Z
    20f6:	88 2f       	mov	r24, r24
    20f8:	90 e0       	ldi	r25, 0x00	; 0
    20fa:	81 70       	andi	r24, 0x01	; 1
    20fc:	99 27       	eor	r25, r25
    20fe:	89 2b       	or	r24, r25
    2100:	01 f1       	breq	.+64     	; 0x2142 <__vector_21+0xbe>
    2102:	80 91 40 01 	lds	r24, 0x0140	; 0x800140 <overflows>
    2106:	90 91 41 01 	lds	r25, 0x0141	; 0x800141 <overflows+0x1>
    210a:	01 96       	adiw	r24, 0x01	; 1
    210c:	09 2e       	mov	r0, r25
    210e:	00 0c       	add	r0, r0
    2110:	aa 0b       	sbc	r26, r26
    2112:	bb 0b       	sbc	r27, r27
    2114:	ac 01       	movw	r20, r24
    2116:	33 27       	eor	r19, r19
    2118:	22 27       	eor	r18, r18
    211a:	84 e8       	ldi	r24, 0x84	; 132
    211c:	90 e0       	ldi	r25, 0x00	; 0
    211e:	fc 01       	movw	r30, r24
    2120:	80 81       	ld	r24, Z
    2122:	91 81       	ldd	r25, Z+1	; 0x01
    2124:	cc 01       	movw	r24, r24
    2126:	a0 e0       	ldi	r26, 0x00	; 0
    2128:	b0 e0       	ldi	r27, 0x00	; 0
    212a:	82 2b       	or	r24, r18
    212c:	93 2b       	or	r25, r19
    212e:	a4 2b       	or	r26, r20
    2130:	b5 2b       	or	r27, r21
    2132:	80 93 3c 01 	sts	0x013C, r24	; 0x80013c <timestamp>
    2136:	90 93 3d 01 	sts	0x013D, r25	; 0x80013d <timestamp+0x1>
    213a:	a0 93 3e 01 	sts	0x013E, r26	; 0x80013e <timestamp+0x2>
    213e:	b0 93 3f 01 	sts	0x013F, r27	; 0x80013f <timestamp+0x3>
    2142:	80 91 fa 01 	lds	r24, 0x01FA	; 0x8001fa <mtable+0x20>
    2146:	90 91 fb 01 	lds	r25, 0x01FB	; 0x8001fb <mtable+0x21>
    214a:	89 2b       	or	r24, r25
    214c:	61 f0       	breq	.+24     	; 0x2166 <__vector_21+0xe2>
    214e:	20 91 fa 01 	lds	r18, 0x01FA	; 0x8001fa <mtable+0x20>
    2152:	30 91 fb 01 	lds	r19, 0x01FB	; 0x8001fb <mtable+0x21>
    2156:	80 91 62 01 	lds	r24, 0x0162	; 0x800162 <otable+0x20>
    215a:	90 91 63 01 	lds	r25, 0x0163	; 0x800163 <otable+0x21>
    215e:	60 e1       	ldi	r22, 0x10	; 16
    2160:	70 e0       	ldi	r23, 0x00	; 0
    2162:	f9 01       	movw	r30, r18
    2164:	09 95       	icall
    2166:	0e 94 0e 15 	call	0x2a1c	; 0x2a1c <schedule>
    216a:	00 00       	nop
    216c:	df 91       	pop	r29
    216e:	cf 91       	pop	r28
    2170:	ff 91       	pop	r31
    2172:	ef 91       	pop	r30
    2174:	bf 91       	pop	r27
    2176:	af 91       	pop	r26
    2178:	9f 91       	pop	r25
    217a:	8f 91       	pop	r24
    217c:	7f 91       	pop	r23
    217e:	6f 91       	pop	r22
    2180:	5f 91       	pop	r21
    2182:	4f 91       	pop	r20
    2184:	3f 91       	pop	r19
    2186:	2f 91       	pop	r18
    2188:	0f 90       	pop	r0
    218a:	00 92 5f 00 	sts	0x005F, r0	; 0x80005f <__TEXT_REGION_LENGTH__+0x7fc05f>
    218e:	0f 90       	pop	r0
    2190:	1f 90       	pop	r1
    2192:	18 95       	reti

00002194 <__vector_22>:
    2194:	1f 92       	push	r1
    2196:	0f 92       	push	r0
    2198:	00 90 5f 00 	lds	r0, 0x005F	; 0x80005f <__TEXT_REGION_LENGTH__+0x7fc05f>
    219c:	0f 92       	push	r0
    219e:	11 24       	eor	r1, r1
    21a0:	2f 93       	push	r18
    21a2:	3f 93       	push	r19
    21a4:	4f 93       	push	r20
    21a6:	5f 93       	push	r21
    21a8:	6f 93       	push	r22
    21aa:	7f 93       	push	r23
    21ac:	8f 93       	push	r24
    21ae:	9f 93       	push	r25
    21b0:	af 93       	push	r26
    21b2:	bf 93       	push	r27
    21b4:	ef 93       	push	r30
    21b6:	ff 93       	push	r31
    21b8:	cf 93       	push	r28
    21ba:	df 93       	push	r29
    21bc:	cd b7       	in	r28, 0x3d	; 61
    21be:	de b7       	in	r29, 0x3e	; 62
    21c0:	80 91 40 01 	lds	r24, 0x0140	; 0x800140 <overflows>
    21c4:	90 91 41 01 	lds	r25, 0x0141	; 0x800141 <overflows+0x1>
    21c8:	09 2e       	mov	r0, r25
    21ca:	00 0c       	add	r0, r0
    21cc:	aa 0b       	sbc	r26, r26
    21ce:	bb 0b       	sbc	r27, r27
    21d0:	ac 01       	movw	r20, r24
    21d2:	33 27       	eor	r19, r19
    21d4:	22 27       	eor	r18, r18
    21d6:	84 e8       	ldi	r24, 0x84	; 132
    21d8:	90 e0       	ldi	r25, 0x00	; 0
    21da:	fc 01       	movw	r30, r24
    21dc:	80 81       	ld	r24, Z
    21de:	91 81       	ldd	r25, Z+1	; 0x01
    21e0:	cc 01       	movw	r24, r24
    21e2:	a0 e0       	ldi	r26, 0x00	; 0
    21e4:	b0 e0       	ldi	r27, 0x00	; 0
    21e6:	82 2b       	or	r24, r18
    21e8:	93 2b       	or	r25, r19
    21ea:	a4 2b       	or	r26, r20
    21ec:	b5 2b       	or	r27, r21
    21ee:	80 93 3c 01 	sts	0x013C, r24	; 0x80013c <timestamp>
    21f2:	90 93 3d 01 	sts	0x013D, r25	; 0x80013d <timestamp+0x1>
    21f6:	a0 93 3e 01 	sts	0x013E, r26	; 0x80013e <timestamp+0x2>
    21fa:	b0 93 3f 01 	sts	0x013F, r27	; 0x80013f <timestamp+0x3>
    21fe:	86 e3       	ldi	r24, 0x36	; 54
    2200:	90 e0       	ldi	r25, 0x00	; 0
    2202:	fc 01       	movw	r30, r24
    2204:	80 81       	ld	r24, Z
    2206:	88 2f       	mov	r24, r24
    2208:	90 e0       	ldi	r25, 0x00	; 0
    220a:	81 70       	andi	r24, 0x01	; 1
    220c:	99 27       	eor	r25, r25
    220e:	89 2b       	or	r24, r25
    2210:	01 f1       	breq	.+64     	; 0x2252 <__vector_22+0xbe>
    2212:	80 91 40 01 	lds	r24, 0x0140	; 0x800140 <overflows>
    2216:	90 91 41 01 	lds	r25, 0x0141	; 0x800141 <overflows+0x1>
    221a:	01 96       	adiw	r24, 0x01	; 1
    221c:	09 2e       	mov	r0, r25
    221e:	00 0c       	add	r0, r0
    2220:	aa 0b       	sbc	r26, r26
    2222:	bb 0b       	sbc	r27, r27
    2224:	ac 01       	movw	r20, r24
    2226:	33 27       	eor	r19, r19
    2228:	22 27       	eor	r18, r18
    222a:	84 e8       	ldi	r24, 0x84	; 132
    222c:	90 e0       	ldi	r25, 0x00	; 0
    222e:	fc 01       	movw	r30, r24
    2230:	80 81       	ld	r24, Z
    2232:	91 81       	ldd	r25, Z+1	; 0x01
    2234:	cc 01       	movw	r24, r24
    2236:	a0 e0       	ldi	r26, 0x00	; 0
    2238:	b0 e0       	ldi	r27, 0x00	; 0
    223a:	82 2b       	or	r24, r18
    223c:	93 2b       	or	r25, r19
    223e:	a4 2b       	or	r26, r20
    2240:	b5 2b       	or	r27, r21
    2242:	80 93 3c 01 	sts	0x013C, r24	; 0x80013c <timestamp>
    2246:	90 93 3d 01 	sts	0x013D, r25	; 0x80013d <timestamp+0x1>
    224a:	a0 93 3e 01 	sts	0x013E, r26	; 0x80013e <timestamp+0x2>
    224e:	b0 93 3f 01 	sts	0x013F, r27	; 0x80013f <timestamp+0x3>
    2252:	80 91 fc 01 	lds	r24, 0x01FC	; 0x8001fc <mtable+0x22>
    2256:	90 91 fd 01 	lds	r25, 0x01FD	; 0x8001fd <mtable+0x23>
    225a:	89 2b       	or	r24, r25
    225c:	61 f0       	breq	.+24     	; 0x2276 <__vector_22+0xe2>
    225e:	20 91 fc 01 	lds	r18, 0x01FC	; 0x8001fc <mtable+0x22>
    2262:	30 91 fd 01 	lds	r19, 0x01FD	; 0x8001fd <mtable+0x23>
    2266:	80 91 64 01 	lds	r24, 0x0164	; 0x800164 <otable+0x22>
    226a:	90 91 65 01 	lds	r25, 0x0165	; 0x800165 <otable+0x23>
    226e:	61 e1       	ldi	r22, 0x11	; 17
    2270:	70 e0       	ldi	r23, 0x00	; 0
    2272:	f9 01       	movw	r30, r18
    2274:	09 95       	icall
    2276:	0e 94 0e 15 	call	0x2a1c	; 0x2a1c <schedule>
    227a:	00 00       	nop
    227c:	df 91       	pop	r29
    227e:	cf 91       	pop	r28
    2280:	ff 91       	pop	r31
    2282:	ef 91       	pop	r30
    2284:	bf 91       	pop	r27
    2286:	af 91       	pop	r26
    2288:	9f 91       	pop	r25
    228a:	8f 91       	pop	r24
    228c:	7f 91       	pop	r23
    228e:	6f 91       	pop	r22
    2290:	5f 91       	pop	r21
    2292:	4f 91       	pop	r20
    2294:	3f 91       	pop	r19
    2296:	2f 91       	pop	r18
    2298:	0f 90       	pop	r0
    229a:	00 92 5f 00 	sts	0x005F, r0	; 0x80005f <__TEXT_REGION_LENGTH__+0x7fc05f>
    229e:	0f 90       	pop	r0
    22a0:	1f 90       	pop	r1
    22a2:	18 95       	reti

000022a4 <enqueueByDeadline>:
    22a4:	cf 93       	push	r28
    22a6:	df 93       	push	r29
    22a8:	cd b7       	in	r28, 0x3d	; 61
    22aa:	de b7       	in	r29, 0x3e	; 62
    22ac:	28 97       	sbiw	r28, 0x08	; 8
    22ae:	0f b6       	in	r0, 0x3f	; 63
    22b0:	f8 94       	cli
    22b2:	de bf       	out	0x3e, r29	; 62
    22b4:	0f be       	out	0x3f, r0	; 63
    22b6:	cd bf       	out	0x3d, r28	; 61
    22b8:	9e 83       	std	Y+6, r25	; 0x06
    22ba:	8d 83       	std	Y+5, r24	; 0x05
    22bc:	78 87       	std	Y+8, r23	; 0x08
    22be:	6f 83       	std	Y+7, r22	; 0x07
    22c0:	1a 82       	std	Y+2, r1	; 0x02
    22c2:	19 82       	std	Y+1, r1	; 0x01
    22c4:	8f 81       	ldd	r24, Y+7	; 0x07
    22c6:	98 85       	ldd	r25, Y+8	; 0x08
    22c8:	fc 01       	movw	r30, r24
    22ca:	80 81       	ld	r24, Z
    22cc:	91 81       	ldd	r25, Z+1	; 0x01
    22ce:	9c 83       	std	Y+4, r25	; 0x04
    22d0:	8b 83       	std	Y+3, r24	; 0x03
    22d2:	0b c0       	rjmp	.+22     	; 0x22ea <enqueueByDeadline+0x46>
    22d4:	8b 81       	ldd	r24, Y+3	; 0x03
    22d6:	9c 81       	ldd	r25, Y+4	; 0x04
    22d8:	9a 83       	std	Y+2, r25	; 0x02
    22da:	89 83       	std	Y+1, r24	; 0x01
    22dc:	8b 81       	ldd	r24, Y+3	; 0x03
    22de:	9c 81       	ldd	r25, Y+4	; 0x04
    22e0:	fc 01       	movw	r30, r24
    22e2:	80 81       	ld	r24, Z
    22e4:	91 81       	ldd	r25, Z+1	; 0x01
    22e6:	9c 83       	std	Y+4, r25	; 0x04
    22e8:	8b 83       	std	Y+3, r24	; 0x03
    22ea:	8b 81       	ldd	r24, Y+3	; 0x03
    22ec:	9c 81       	ldd	r25, Y+4	; 0x04
    22ee:	89 2b       	or	r24, r25
    22f0:	99 f0       	breq	.+38     	; 0x2318 <enqueueByDeadline+0x74>
    22f2:	8b 81       	ldd	r24, Y+3	; 0x03
    22f4:	9c 81       	ldd	r25, Y+4	; 0x04
    22f6:	fc 01       	movw	r30, r24
    22f8:	26 81       	ldd	r18, Z+6	; 0x06
    22fa:	37 81       	ldd	r19, Z+7	; 0x07
    22fc:	40 85       	ldd	r20, Z+8	; 0x08
    22fe:	51 85       	ldd	r21, Z+9	; 0x09
    2300:	8d 81       	ldd	r24, Y+5	; 0x05
    2302:	9e 81       	ldd	r25, Y+6	; 0x06
    2304:	fc 01       	movw	r30, r24
    2306:	86 81       	ldd	r24, Z+6	; 0x06
    2308:	97 81       	ldd	r25, Z+7	; 0x07
    230a:	a0 85       	ldd	r26, Z+8	; 0x08
    230c:	b1 85       	ldd	r27, Z+9	; 0x09
    230e:	82 17       	cp	r24, r18
    2310:	93 07       	cpc	r25, r19
    2312:	a4 07       	cpc	r26, r20
    2314:	b5 07       	cpc	r27, r21
    2316:	f4 f6       	brge	.-68     	; 0x22d4 <enqueueByDeadline+0x30>
    2318:	8d 81       	ldd	r24, Y+5	; 0x05
    231a:	9e 81       	ldd	r25, Y+6	; 0x06
    231c:	2b 81       	ldd	r18, Y+3	; 0x03
    231e:	3c 81       	ldd	r19, Y+4	; 0x04
    2320:	fc 01       	movw	r30, r24
    2322:	31 83       	std	Z+1, r19	; 0x01
    2324:	20 83       	st	Z, r18
    2326:	89 81       	ldd	r24, Y+1	; 0x01
    2328:	9a 81       	ldd	r25, Y+2	; 0x02
    232a:	89 2b       	or	r24, r25
    232c:	41 f4       	brne	.+16     	; 0x233e <enqueueByDeadline+0x9a>
    232e:	8f 81       	ldd	r24, Y+7	; 0x07
    2330:	98 85       	ldd	r25, Y+8	; 0x08
    2332:	2d 81       	ldd	r18, Y+5	; 0x05
    2334:	3e 81       	ldd	r19, Y+6	; 0x06
    2336:	fc 01       	movw	r30, r24
    2338:	31 83       	std	Z+1, r19	; 0x01
    233a:	20 83       	st	Z, r18
    233c:	07 c0       	rjmp	.+14     	; 0x234c <enqueueByDeadline+0xa8>
    233e:	89 81       	ldd	r24, Y+1	; 0x01
    2340:	9a 81       	ldd	r25, Y+2	; 0x02
    2342:	2d 81       	ldd	r18, Y+5	; 0x05
    2344:	3e 81       	ldd	r19, Y+6	; 0x06
    2346:	fc 01       	movw	r30, r24
    2348:	31 83       	std	Z+1, r19	; 0x01
    234a:	20 83       	st	Z, r18
    234c:	00 00       	nop
    234e:	28 96       	adiw	r28, 0x08	; 8
    2350:	0f b6       	in	r0, 0x3f	; 63
    2352:	f8 94       	cli
    2354:	de bf       	out	0x3e, r29	; 62
    2356:	0f be       	out	0x3f, r0	; 63
    2358:	cd bf       	out	0x3d, r28	; 61
    235a:	df 91       	pop	r29
    235c:	cf 91       	pop	r28
    235e:	08 95       	ret

00002360 <enqueueByBaseline>:
    2360:	cf 93       	push	r28
    2362:	df 93       	push	r29
    2364:	cd b7       	in	r28, 0x3d	; 61
    2366:	de b7       	in	r29, 0x3e	; 62
    2368:	28 97       	sbiw	r28, 0x08	; 8
    236a:	0f b6       	in	r0, 0x3f	; 63
    236c:	f8 94       	cli
    236e:	de bf       	out	0x3e, r29	; 62
    2370:	0f be       	out	0x3f, r0	; 63
    2372:	cd bf       	out	0x3d, r28	; 61
    2374:	9e 83       	std	Y+6, r25	; 0x06
    2376:	8d 83       	std	Y+5, r24	; 0x05
    2378:	78 87       	std	Y+8, r23	; 0x08
    237a:	6f 83       	std	Y+7, r22	; 0x07
    237c:	1a 82       	std	Y+2, r1	; 0x02
    237e:	19 82       	std	Y+1, r1	; 0x01
    2380:	8f 81       	ldd	r24, Y+7	; 0x07
    2382:	98 85       	ldd	r25, Y+8	; 0x08
    2384:	fc 01       	movw	r30, r24
    2386:	80 81       	ld	r24, Z
    2388:	91 81       	ldd	r25, Z+1	; 0x01
    238a:	9c 83       	std	Y+4, r25	; 0x04
    238c:	8b 83       	std	Y+3, r24	; 0x03
    238e:	0b c0       	rjmp	.+22     	; 0x23a6 <enqueueByBaseline+0x46>
    2390:	8b 81       	ldd	r24, Y+3	; 0x03
    2392:	9c 81       	ldd	r25, Y+4	; 0x04
    2394:	9a 83       	std	Y+2, r25	; 0x02
    2396:	89 83       	std	Y+1, r24	; 0x01
    2398:	8b 81       	ldd	r24, Y+3	; 0x03
    239a:	9c 81       	ldd	r25, Y+4	; 0x04
    239c:	fc 01       	movw	r30, r24
    239e:	80 81       	ld	r24, Z
    23a0:	91 81       	ldd	r25, Z+1	; 0x01
    23a2:	9c 83       	std	Y+4, r25	; 0x04
    23a4:	8b 83       	std	Y+3, r24	; 0x03
    23a6:	8b 81       	ldd	r24, Y+3	; 0x03
    23a8:	9c 81       	ldd	r25, Y+4	; 0x04
    23aa:	89 2b       	or	r24, r25
    23ac:	99 f0       	breq	.+38     	; 0x23d4 <enqueueByBaseline+0x74>
    23ae:	8b 81       	ldd	r24, Y+3	; 0x03
    23b0:	9c 81       	ldd	r25, Y+4	; 0x04
    23b2:	fc 01       	movw	r30, r24
    23b4:	22 81       	ldd	r18, Z+2	; 0x02
    23b6:	33 81       	ldd	r19, Z+3	; 0x03
    23b8:	44 81       	ldd	r20, Z+4	; 0x04
    23ba:	55 81       	ldd	r21, Z+5	; 0x05
    23bc:	8d 81       	ldd	r24, Y+5	; 0x05
    23be:	9e 81       	ldd	r25, Y+6	; 0x06
    23c0:	fc 01       	movw	r30, r24
    23c2:	82 81       	ldd	r24, Z+2	; 0x02
    23c4:	93 81       	ldd	r25, Z+3	; 0x03
    23c6:	a4 81       	ldd	r26, Z+4	; 0x04
    23c8:	b5 81       	ldd	r27, Z+5	; 0x05
    23ca:	82 17       	cp	r24, r18
    23cc:	93 07       	cpc	r25, r19
    23ce:	a4 07       	cpc	r26, r20
    23d0:	b5 07       	cpc	r27, r21
    23d2:	f4 f6       	brge	.-68     	; 0x2390 <enqueueByBaseline+0x30>
    23d4:	8d 81       	ldd	r24, Y+5	; 0x05
    23d6:	9e 81       	ldd	r25, Y+6	; 0x06
    23d8:	2b 81       	ldd	r18, Y+3	; 0x03
    23da:	3c 81       	ldd	r19, Y+4	; 0x04
    23dc:	fc 01       	movw	r30, r24
    23de:	31 83       	std	Z+1, r19	; 0x01
    23e0:	20 83       	st	Z, r18
    23e2:	89 81       	ldd	r24, Y+1	; 0x01
    23e4:	9a 81       	ldd	r25, Y+2	; 0x02
    23e6:	89 2b       	or	r24, r25
    23e8:	41 f4       	brne	.+16     	; 0x23fa <enqueueByBaseline+0x9a>
    23ea:	8f 81       	ldd	r24, Y+7	; 0x07
    23ec:	98 85       	ldd	r25, Y+8	; 0x08
    23ee:	2d 81       	ldd	r18, Y+5	; 0x05
    23f0:	3e 81       	ldd	r19, Y+6	; 0x06
    23f2:	fc 01       	movw	r30, r24
    23f4:	31 83       	std	Z+1, r19	; 0x01
    23f6:	20 83       	st	Z, r18
    23f8:	07 c0       	rjmp	.+14     	; 0x2408 <enqueueByBaseline+0xa8>
    23fa:	89 81       	ldd	r24, Y+1	; 0x01
    23fc:	9a 81       	ldd	r25, Y+2	; 0x02
    23fe:	2d 81       	ldd	r18, Y+5	; 0x05
    2400:	3e 81       	ldd	r19, Y+6	; 0x06
    2402:	fc 01       	movw	r30, r24
    2404:	31 83       	std	Z+1, r19	; 0x01
    2406:	20 83       	st	Z, r18
    2408:	00 00       	nop
    240a:	28 96       	adiw	r28, 0x08	; 8
    240c:	0f b6       	in	r0, 0x3f	; 63
    240e:	f8 94       	cli
    2410:	de bf       	out	0x3e, r29	; 62
    2412:	0f be       	out	0x3f, r0	; 63
    2414:	cd bf       	out	0x3d, r28	; 61
    2416:	df 91       	pop	r29
    2418:	cf 91       	pop	r28
    241a:	08 95       	ret

0000241c <dequeue>:
    241c:	cf 93       	push	r28
    241e:	df 93       	push	r29
    2420:	00 d0       	rcall	.+0      	; 0x2422 <dequeue+0x6>
    2422:	00 d0       	rcall	.+0      	; 0x2424 <dequeue+0x8>
    2424:	cd b7       	in	r28, 0x3d	; 61
    2426:	de b7       	in	r29, 0x3e	; 62
    2428:	9c 83       	std	Y+4, r25	; 0x04
    242a:	8b 83       	std	Y+3, r24	; 0x03
    242c:	8b 81       	ldd	r24, Y+3	; 0x03
    242e:	9c 81       	ldd	r25, Y+4	; 0x04
    2430:	fc 01       	movw	r30, r24
    2432:	80 81       	ld	r24, Z
    2434:	91 81       	ldd	r25, Z+1	; 0x01
    2436:	9a 83       	std	Y+2, r25	; 0x02
    2438:	89 83       	std	Y+1, r24	; 0x01
    243a:	89 81       	ldd	r24, Y+1	; 0x01
    243c:	9a 81       	ldd	r25, Y+2	; 0x02
    243e:	89 2b       	or	r24, r25
    2440:	59 f0       	breq	.+22     	; 0x2458 <dequeue+0x3c>
    2442:	89 81       	ldd	r24, Y+1	; 0x01
    2444:	9a 81       	ldd	r25, Y+2	; 0x02
    2446:	fc 01       	movw	r30, r24
    2448:	20 81       	ld	r18, Z
    244a:	31 81       	ldd	r19, Z+1	; 0x01
    244c:	8b 81       	ldd	r24, Y+3	; 0x03
    244e:	9c 81       	ldd	r25, Y+4	; 0x04
    2450:	fc 01       	movw	r30, r24
    2452:	31 83       	std	Z+1, r19	; 0x01
    2454:	20 83       	st	Z, r18
    2456:	16 c0       	rjmp	.+44     	; 0x2484 <dequeue+0x68>
    2458:	8c ee       	ldi	r24, 0xEC	; 236
    245a:	90 e0       	ldi	r25, 0x00	; 0
    245c:	2f ef       	ldi	r18, 0xFF	; 255
    245e:	fc 01       	movw	r30, r24
    2460:	20 83       	st	Z, r18
    2462:	8d ee       	ldi	r24, 0xED	; 237
    2464:	90 e0       	ldi	r25, 0x00	; 0
    2466:	2f ef       	ldi	r18, 0xFF	; 255
    2468:	fc 01       	movw	r30, r24
    246a:	20 83       	st	Z, r18
    246c:	8e ee       	ldi	r24, 0xEE	; 238
    246e:	90 e0       	ldi	r25, 0x00	; 0
    2470:	2f ef       	ldi	r18, 0xFF	; 255
    2472:	fc 01       	movw	r30, r24
    2474:	20 83       	st	Z, r18
    2476:	83 e5       	ldi	r24, 0x53	; 83
    2478:	90 e0       	ldi	r25, 0x00	; 0
    247a:	21 e0       	ldi	r18, 0x01	; 1
    247c:	fc 01       	movw	r30, r24
    247e:	20 83       	st	Z, r18
    2480:	88 95       	sleep
    2482:	f9 cf       	rjmp	.-14     	; 0x2476 <dequeue+0x5a>
    2484:	89 81       	ldd	r24, Y+1	; 0x01
    2486:	9a 81       	ldd	r25, Y+2	; 0x02
    2488:	0f 90       	pop	r0
    248a:	0f 90       	pop	r0
    248c:	0f 90       	pop	r0
    248e:	0f 90       	pop	r0
    2490:	df 91       	pop	r29
    2492:	cf 91       	pop	r28
    2494:	08 95       	ret

00002496 <insert>:
    2496:	cf 93       	push	r28
    2498:	df 93       	push	r29
    249a:	00 d0       	rcall	.+0      	; 0x249c <insert+0x6>
    249c:	00 d0       	rcall	.+0      	; 0x249e <insert+0x8>
    249e:	cd b7       	in	r28, 0x3d	; 61
    24a0:	de b7       	in	r29, 0x3e	; 62
    24a2:	9a 83       	std	Y+2, r25	; 0x02
    24a4:	89 83       	std	Y+1, r24	; 0x01
    24a6:	7c 83       	std	Y+4, r23	; 0x04
    24a8:	6b 83       	std	Y+3, r22	; 0x03
    24aa:	8b 81       	ldd	r24, Y+3	; 0x03
    24ac:	9c 81       	ldd	r25, Y+4	; 0x04
    24ae:	fc 01       	movw	r30, r24
    24b0:	20 81       	ld	r18, Z
    24b2:	31 81       	ldd	r19, Z+1	; 0x01
    24b4:	89 81       	ldd	r24, Y+1	; 0x01
    24b6:	9a 81       	ldd	r25, Y+2	; 0x02
    24b8:	fc 01       	movw	r30, r24
    24ba:	31 83       	std	Z+1, r19	; 0x01
    24bc:	20 83       	st	Z, r18
    24be:	8b 81       	ldd	r24, Y+3	; 0x03
    24c0:	9c 81       	ldd	r25, Y+4	; 0x04
    24c2:	29 81       	ldd	r18, Y+1	; 0x01
    24c4:	3a 81       	ldd	r19, Y+2	; 0x02
    24c6:	fc 01       	movw	r30, r24
    24c8:	31 83       	std	Z+1, r19	; 0x01
    24ca:	20 83       	st	Z, r18
    24cc:	00 00       	nop
    24ce:	0f 90       	pop	r0
    24d0:	0f 90       	pop	r0
    24d2:	0f 90       	pop	r0
    24d4:	0f 90       	pop	r0
    24d6:	df 91       	pop	r29
    24d8:	cf 91       	pop	r28
    24da:	08 95       	ret

000024dc <push>:
    24dc:	cf 93       	push	r28
    24de:	df 93       	push	r29
    24e0:	00 d0       	rcall	.+0      	; 0x24e2 <push+0x6>
    24e2:	00 d0       	rcall	.+0      	; 0x24e4 <push+0x8>
    24e4:	cd b7       	in	r28, 0x3d	; 61
    24e6:	de b7       	in	r29, 0x3e	; 62
    24e8:	9a 83       	std	Y+2, r25	; 0x02
    24ea:	89 83       	std	Y+1, r24	; 0x01
    24ec:	7c 83       	std	Y+4, r23	; 0x04
    24ee:	6b 83       	std	Y+3, r22	; 0x03
    24f0:	8b 81       	ldd	r24, Y+3	; 0x03
    24f2:	9c 81       	ldd	r25, Y+4	; 0x04
    24f4:	fc 01       	movw	r30, r24
    24f6:	20 81       	ld	r18, Z
    24f8:	31 81       	ldd	r19, Z+1	; 0x01
    24fa:	89 81       	ldd	r24, Y+1	; 0x01
    24fc:	9a 81       	ldd	r25, Y+2	; 0x02
    24fe:	fc 01       	movw	r30, r24
    2500:	31 83       	std	Z+1, r19	; 0x01
    2502:	20 83       	st	Z, r18
    2504:	8b 81       	ldd	r24, Y+3	; 0x03
    2506:	9c 81       	ldd	r25, Y+4	; 0x04
    2508:	29 81       	ldd	r18, Y+1	; 0x01
    250a:	3a 81       	ldd	r19, Y+2	; 0x02
    250c:	fc 01       	movw	r30, r24
    250e:	31 83       	std	Z+1, r19	; 0x01
    2510:	20 83       	st	Z, r18
    2512:	00 00       	nop
    2514:	0f 90       	pop	r0
    2516:	0f 90       	pop	r0
    2518:	0f 90       	pop	r0
    251a:	0f 90       	pop	r0
    251c:	df 91       	pop	r29
    251e:	cf 91       	pop	r28
    2520:	08 95       	ret

00002522 <pop>:
    2522:	cf 93       	push	r28
    2524:	df 93       	push	r29
    2526:	00 d0       	rcall	.+0      	; 0x2528 <pop+0x6>
    2528:	00 d0       	rcall	.+0      	; 0x252a <pop+0x8>
    252a:	cd b7       	in	r28, 0x3d	; 61
    252c:	de b7       	in	r29, 0x3e	; 62
    252e:	9c 83       	std	Y+4, r25	; 0x04
    2530:	8b 83       	std	Y+3, r24	; 0x03
    2532:	8b 81       	ldd	r24, Y+3	; 0x03
    2534:	9c 81       	ldd	r25, Y+4	; 0x04
    2536:	fc 01       	movw	r30, r24
    2538:	80 81       	ld	r24, Z
    253a:	91 81       	ldd	r25, Z+1	; 0x01
    253c:	9a 83       	std	Y+2, r25	; 0x02
    253e:	89 83       	std	Y+1, r24	; 0x01
    2540:	89 81       	ldd	r24, Y+1	; 0x01
    2542:	9a 81       	ldd	r25, Y+2	; 0x02
    2544:	fc 01       	movw	r30, r24
    2546:	20 81       	ld	r18, Z
    2548:	31 81       	ldd	r19, Z+1	; 0x01
    254a:	8b 81       	ldd	r24, Y+3	; 0x03
    254c:	9c 81       	ldd	r25, Y+4	; 0x04
    254e:	fc 01       	movw	r30, r24
    2550:	31 83       	std	Z+1, r19	; 0x01
    2552:	20 83       	st	Z, r18
    2554:	89 81       	ldd	r24, Y+1	; 0x01
    2556:	9a 81       	ldd	r25, Y+2	; 0x02
    2558:	0f 90       	pop	r0
    255a:	0f 90       	pop	r0
    255c:	0f 90       	pop	r0
    255e:	0f 90       	pop	r0
    2560:	df 91       	pop	r29
    2562:	cf 91       	pop	r28
    2564:	08 95       	ret

00002566 <__vector_9>:
    2566:	1f 92       	push	r1
    2568:	0f 92       	push	r0
    256a:	00 90 5f 00 	lds	r0, 0x005F	; 0x80005f <__TEXT_REGION_LENGTH__+0x7fc05f>
    256e:	0f 92       	push	r0
    2570:	11 24       	eor	r1, r1
    2572:	2f 93       	push	r18
    2574:	3f 93       	push	r19
    2576:	4f 93       	push	r20
    2578:	5f 93       	push	r21
    257a:	6f 93       	push	r22
    257c:	7f 93       	push	r23
    257e:	8f 93       	push	r24
    2580:	9f 93       	push	r25
    2582:	af 93       	push	r26
    2584:	bf 93       	push	r27
    2586:	ef 93       	push	r30
    2588:	ff 93       	push	r31
    258a:	cf 93       	push	r28
    258c:	df 93       	push	r29
    258e:	cd b7       	in	r28, 0x3d	; 61
    2590:	de b7       	in	r29, 0x3e	; 62
    2592:	80 91 40 01 	lds	r24, 0x0140	; 0x800140 <overflows>
    2596:	90 91 41 01 	lds	r25, 0x0141	; 0x800141 <overflows+0x1>
    259a:	01 96       	adiw	r24, 0x01	; 1
    259c:	90 93 41 01 	sts	0x0141, r25	; 0x800141 <overflows+0x1>
    25a0:	80 93 40 01 	sts	0x0140, r24	; 0x800140 <overflows>
    25a4:	80 91 3a 01 	lds	r24, 0x013A	; 0x80013a <timerQ>
    25a8:	90 91 3b 01 	lds	r25, 0x013B	; 0x80013b <timerQ+0x1>
    25ac:	89 2b       	or	r24, r25
    25ae:	09 f4       	brne	.+2      	; 0x25b2 <__vector_9+0x4c>
    25b0:	4a c0       	rjmp	.+148    	; 0x2646 <__vector_9+0xe0>
    25b2:	80 91 3a 01 	lds	r24, 0x013A	; 0x80013a <timerQ>
    25b6:	90 91 3b 01 	lds	r25, 0x013B	; 0x80013b <timerQ+0x1>
    25ba:	fc 01       	movw	r30, r24
    25bc:	82 81       	ldd	r24, Z+2	; 0x02
    25be:	93 81       	ldd	r25, Z+3	; 0x03
    25c0:	a4 81       	ldd	r26, Z+4	; 0x04
    25c2:	b5 81       	ldd	r27, Z+5	; 0x05
    25c4:	cd 01       	movw	r24, r26
    25c6:	bb 27       	eor	r27, r27
    25c8:	97 fd       	sbrc	r25, 7
    25ca:	b0 95       	com	r27
    25cc:	ab 2f       	mov	r26, r27
    25ce:	9c 01       	movw	r18, r24
    25d0:	80 91 40 01 	lds	r24, 0x0140	; 0x800140 <overflows>
    25d4:	90 91 41 01 	lds	r25, 0x0141	; 0x800141 <overflows+0x1>
    25d8:	28 17       	cp	r18, r24
    25da:	39 07       	cpc	r19, r25
    25dc:	a1 f5       	brne	.+104    	; 0x2646 <__vector_9+0xe0>
    25de:	28 e8       	ldi	r18, 0x88	; 136
    25e0:	30 e0       	ldi	r19, 0x00	; 0
    25e2:	80 91 3a 01 	lds	r24, 0x013A	; 0x80013a <timerQ>
    25e6:	90 91 3b 01 	lds	r25, 0x013B	; 0x80013b <timerQ+0x1>
    25ea:	fc 01       	movw	r30, r24
    25ec:	82 81       	ldd	r24, Z+2	; 0x02
    25ee:	93 81       	ldd	r25, Z+3	; 0x03
    25f0:	a4 81       	ldd	r26, Z+4	; 0x04
    25f2:	b5 81       	ldd	r27, Z+5	; 0x05
    25f4:	ac 01       	movw	r20, r24
    25f6:	84 e8       	ldi	r24, 0x84	; 132
    25f8:	90 e0       	ldi	r25, 0x00	; 0
    25fa:	fc 01       	movw	r30, r24
    25fc:	80 81       	ld	r24, Z
    25fe:	91 81       	ldd	r25, Z+1	; 0x01
    2600:	ba 01       	movw	r22, r20
    2602:	68 1b       	sub	r22, r24
    2604:	79 0b       	sbc	r23, r25
    2606:	cb 01       	movw	r24, r22
    2608:	01 97       	sbiw	r24, 0x01	; 1
    260a:	39 f4       	brne	.+14     	; 0x261a <__vector_9+0xb4>
    260c:	84 e8       	ldi	r24, 0x84	; 132
    260e:	90 e0       	ldi	r25, 0x00	; 0
    2610:	fc 01       	movw	r30, r24
    2612:	80 81       	ld	r24, Z
    2614:	91 81       	ldd	r25, Z+1	; 0x01
    2616:	01 96       	adiw	r24, 0x01	; 1
    2618:	09 c0       	rjmp	.+18     	; 0x262c <__vector_9+0xc6>
    261a:	80 91 3a 01 	lds	r24, 0x013A	; 0x80013a <timerQ>
    261e:	90 91 3b 01 	lds	r25, 0x013B	; 0x80013b <timerQ+0x1>
    2622:	fc 01       	movw	r30, r24
    2624:	82 81       	ldd	r24, Z+2	; 0x02
    2626:	93 81       	ldd	r25, Z+3	; 0x03
    2628:	a4 81       	ldd	r26, Z+4	; 0x04
    262a:	b5 81       	ldd	r27, Z+5	; 0x05
    262c:	f9 01       	movw	r30, r18
    262e:	91 83       	std	Z+1, r25	; 0x01
    2630:	80 83       	st	Z, r24
    2632:	8f e6       	ldi	r24, 0x6F	; 111
    2634:	90 e0       	ldi	r25, 0x00	; 0
    2636:	2f e6       	ldi	r18, 0x6F	; 111
    2638:	30 e0       	ldi	r19, 0x00	; 0
    263a:	f9 01       	movw	r30, r18
    263c:	20 81       	ld	r18, Z
    263e:	22 60       	ori	r18, 0x02	; 2
    2640:	fc 01       	movw	r30, r24
    2642:	20 83       	st	Z, r18
    2644:	09 c0       	rjmp	.+18     	; 0x2658 <__vector_9+0xf2>
    2646:	8f e6       	ldi	r24, 0x6F	; 111
    2648:	90 e0       	ldi	r25, 0x00	; 0
    264a:	2f e6       	ldi	r18, 0x6F	; 111
    264c:	30 e0       	ldi	r19, 0x00	; 0
    264e:	f9 01       	movw	r30, r18
    2650:	20 81       	ld	r18, Z
    2652:	2d 7f       	andi	r18, 0xFD	; 253
    2654:	fc 01       	movw	r30, r24
    2656:	20 83       	st	Z, r18
    2658:	00 00       	nop
    265a:	df 91       	pop	r29
    265c:	cf 91       	pop	r28
    265e:	ff 91       	pop	r31
    2660:	ef 91       	pop	r30
    2662:	bf 91       	pop	r27
    2664:	af 91       	pop	r26
    2666:	9f 91       	pop	r25
    2668:	8f 91       	pop	r24
    266a:	7f 91       	pop	r23
    266c:	6f 91       	pop	r22
    266e:	5f 91       	pop	r21
    2670:	4f 91       	pop	r20
    2672:	3f 91       	pop	r19
    2674:	2f 91       	pop	r18
    2676:	0f 90       	pop	r0
    2678:	00 92 5f 00 	sts	0x005F, r0	; 0x80005f <__TEXT_REGION_LENGTH__+0x7fc05f>
    267c:	0f 90       	pop	r0
    267e:	1f 90       	pop	r1
    2680:	18 95       	reti

00002682 <__vector_7>:
    2682:	1f 92       	push	r1
    2684:	0f 92       	push	r0
    2686:	00 90 5f 00 	lds	r0, 0x005F	; 0x80005f <__TEXT_REGION_LENGTH__+0x7fc05f>
    268a:	0f 92       	push	r0
    268c:	11 24       	eor	r1, r1
    268e:	ef 92       	push	r14
    2690:	ff 92       	push	r15
    2692:	0f 93       	push	r16
    2694:	1f 93       	push	r17
    2696:	2f 93       	push	r18
    2698:	3f 93       	push	r19
    269a:	4f 93       	push	r20
    269c:	5f 93       	push	r21
    269e:	6f 93       	push	r22
    26a0:	7f 93       	push	r23
    26a2:	8f 93       	push	r24
    26a4:	9f 93       	push	r25
    26a6:	af 93       	push	r26
    26a8:	bf 93       	push	r27
    26aa:	ef 93       	push	r30
    26ac:	ff 93       	push	r31
    26ae:	cf 93       	push	r28
    26b0:	df 93       	push	r29
    26b2:	00 d0       	rcall	.+0      	; 0x26b4 <__vector_7+0x32>
    26b4:	00 d0       	rcall	.+0      	; 0x26b6 <__vector_7+0x34>
    26b6:	cd b7       	in	r28, 0x3d	; 61
    26b8:	de b7       	in	r29, 0x3e	; 62
    26ba:	80 91 40 01 	lds	r24, 0x0140	; 0x800140 <overflows>
    26be:	90 91 41 01 	lds	r25, 0x0141	; 0x800141 <overflows+0x1>
    26c2:	09 2e       	mov	r0, r25
    26c4:	00 0c       	add	r0, r0
    26c6:	aa 0b       	sbc	r26, r26
    26c8:	bb 0b       	sbc	r27, r27
    26ca:	ac 01       	movw	r20, r24
    26cc:	33 27       	eor	r19, r19
    26ce:	22 27       	eor	r18, r18
    26d0:	84 e8       	ldi	r24, 0x84	; 132
    26d2:	90 e0       	ldi	r25, 0x00	; 0
    26d4:	fc 01       	movw	r30, r24
    26d6:	80 81       	ld	r24, Z
    26d8:	91 81       	ldd	r25, Z+1	; 0x01
    26da:	cc 01       	movw	r24, r24
    26dc:	a0 e0       	ldi	r26, 0x00	; 0
    26de:	b0 e0       	ldi	r27, 0x00	; 0
    26e0:	82 2b       	or	r24, r18
    26e2:	93 2b       	or	r25, r19
    26e4:	a4 2b       	or	r26, r20
    26e6:	b5 2b       	or	r27, r21
    26e8:	89 83       	std	Y+1, r24	; 0x01
    26ea:	9a 83       	std	Y+2, r25	; 0x02
    26ec:	ab 83       	std	Y+3, r26	; 0x03
    26ee:	bc 83       	std	Y+4, r27	; 0x04
    26f0:	86 e3       	ldi	r24, 0x36	; 54
    26f2:	90 e0       	ldi	r25, 0x00	; 0
    26f4:	fc 01       	movw	r30, r24
    26f6:	80 81       	ld	r24, Z
    26f8:	88 2f       	mov	r24, r24
    26fa:	90 e0       	ldi	r25, 0x00	; 0
    26fc:	81 70       	andi	r24, 0x01	; 1
    26fe:	99 27       	eor	r25, r25
    2700:	89 2b       	or	r24, r25
    2702:	29 f1       	breq	.+74     	; 0x274e <__vector_7+0xcc>
    2704:	80 91 40 01 	lds	r24, 0x0140	; 0x800140 <overflows>
    2708:	90 91 41 01 	lds	r25, 0x0141	; 0x800141 <overflows+0x1>
    270c:	01 96       	adiw	r24, 0x01	; 1
    270e:	09 2e       	mov	r0, r25
    2710:	00 0c       	add	r0, r0
    2712:	aa 0b       	sbc	r26, r26
    2714:	bb 0b       	sbc	r27, r27
    2716:	ac 01       	movw	r20, r24
    2718:	33 27       	eor	r19, r19
    271a:	22 27       	eor	r18, r18
    271c:	84 e8       	ldi	r24, 0x84	; 132
    271e:	90 e0       	ldi	r25, 0x00	; 0
    2720:	fc 01       	movw	r30, r24
    2722:	80 81       	ld	r24, Z
    2724:	91 81       	ldd	r25, Z+1	; 0x01
    2726:	cc 01       	movw	r24, r24
    2728:	a0 e0       	ldi	r26, 0x00	; 0
    272a:	b0 e0       	ldi	r27, 0x00	; 0
    272c:	82 2b       	or	r24, r18
    272e:	93 2b       	or	r25, r19
    2730:	a4 2b       	or	r26, r20
    2732:	b5 2b       	or	r27, r21
    2734:	89 83       	std	Y+1, r24	; 0x01
    2736:	9a 83       	std	Y+2, r25	; 0x02
    2738:	ab 83       	std	Y+3, r26	; 0x03
    273a:	bc 83       	std	Y+4, r27	; 0x04
    273c:	08 c0       	rjmp	.+16     	; 0x274e <__vector_7+0xcc>
    273e:	8a e3       	ldi	r24, 0x3A	; 58
    2740:	91 e0       	ldi	r25, 0x01	; 1
    2742:	0e 94 0e 12 	call	0x241c	; 0x241c <dequeue>
    2746:	68 e3       	ldi	r22, 0x38	; 56
    2748:	71 e0       	ldi	r23, 0x01	; 1
    274a:	0e 94 52 11 	call	0x22a4	; 0x22a4 <enqueueByDeadline>
    274e:	80 91 3a 01 	lds	r24, 0x013A	; 0x80013a <timerQ>
    2752:	90 91 3b 01 	lds	r25, 0x013B	; 0x80013b <timerQ+0x1>
    2756:	89 2b       	or	r24, r25
    2758:	d1 f0       	breq	.+52     	; 0x278e <__vector_7+0x10c>
    275a:	80 91 3a 01 	lds	r24, 0x013A	; 0x80013a <timerQ>
    275e:	90 91 3b 01 	lds	r25, 0x013B	; 0x80013b <timerQ+0x1>
    2762:	fc 01       	movw	r30, r24
    2764:	22 81       	ldd	r18, Z+2	; 0x02
    2766:	33 81       	ldd	r19, Z+3	; 0x03
    2768:	44 81       	ldd	r20, Z+4	; 0x04
    276a:	55 81       	ldd	r21, Z+5	; 0x05
    276c:	89 81       	ldd	r24, Y+1	; 0x01
    276e:	9a 81       	ldd	r25, Y+2	; 0x02
    2770:	ab 81       	ldd	r26, Y+3	; 0x03
    2772:	bc 81       	ldd	r27, Y+4	; 0x04
    2774:	79 01       	movw	r14, r18
    2776:	8a 01       	movw	r16, r20
    2778:	e8 1a       	sub	r14, r24
    277a:	f9 0a       	sbc	r15, r25
    277c:	0a 0b       	sbc	r16, r26
    277e:	1b 0b       	sbc	r17, r27
    2780:	d8 01       	movw	r26, r16
    2782:	c7 01       	movw	r24, r14
    2784:	18 16       	cp	r1, r24
    2786:	19 06       	cpc	r1, r25
    2788:	1a 06       	cpc	r1, r26
    278a:	1b 06       	cpc	r1, r27
    278c:	c4 f6       	brge	.-80     	; 0x273e <__vector_7+0xbc>
    278e:	80 91 3a 01 	lds	r24, 0x013A	; 0x80013a <timerQ>
    2792:	90 91 3b 01 	lds	r25, 0x013B	; 0x80013b <timerQ+0x1>
    2796:	89 2b       	or	r24, r25
    2798:	09 f4       	brne	.+2      	; 0x279c <__vector_7+0x11a>
    279a:	4a c0       	rjmp	.+148    	; 0x2830 <__vector_7+0x1ae>
    279c:	80 91 3a 01 	lds	r24, 0x013A	; 0x80013a <timerQ>
    27a0:	90 91 3b 01 	lds	r25, 0x013B	; 0x80013b <timerQ+0x1>
    27a4:	fc 01       	movw	r30, r24
    27a6:	82 81       	ldd	r24, Z+2	; 0x02
    27a8:	93 81       	ldd	r25, Z+3	; 0x03
    27aa:	a4 81       	ldd	r26, Z+4	; 0x04
    27ac:	b5 81       	ldd	r27, Z+5	; 0x05
    27ae:	cd 01       	movw	r24, r26
    27b0:	bb 27       	eor	r27, r27
    27b2:	97 fd       	sbrc	r25, 7
    27b4:	b0 95       	com	r27
    27b6:	ab 2f       	mov	r26, r27
    27b8:	9c 01       	movw	r18, r24
    27ba:	80 91 40 01 	lds	r24, 0x0140	; 0x800140 <overflows>
    27be:	90 91 41 01 	lds	r25, 0x0141	; 0x800141 <overflows+0x1>
    27c2:	28 17       	cp	r18, r24
    27c4:	39 07       	cpc	r19, r25
    27c6:	a1 f5       	brne	.+104    	; 0x2830 <__vector_7+0x1ae>
    27c8:	28 e8       	ldi	r18, 0x88	; 136
    27ca:	30 e0       	ldi	r19, 0x00	; 0
    27cc:	80 91 3a 01 	lds	r24, 0x013A	; 0x80013a <timerQ>
    27d0:	90 91 3b 01 	lds	r25, 0x013B	; 0x80013b <timerQ+0x1>
    27d4:	fc 01       	movw	r30, r24
    27d6:	82 81       	ldd	r24, Z+2	; 0x02
    27d8:	93 81       	ldd	r25, Z+3	; 0x03
    27da:	a4 81       	ldd	r26, Z+4	; 0x04
    27dc:	b5 81       	ldd	r27, Z+5	; 0x05
    27de:	ac 01       	movw	r20, r24
    27e0:	84 e8       	ldi	r24, 0x84	; 132
    27e2:	90 e0       	ldi	r25, 0x00	; 0
    27e4:	fc 01       	movw	r30, r24
    27e6:	80 81       	ld	r24, Z
    27e8:	91 81       	ldd	r25, Z+1	; 0x01
    27ea:	7a 01       	movw	r14, r20
    27ec:	e8 1a       	sub	r14, r24
    27ee:	f9 0a       	sbc	r15, r25
    27f0:	c7 01       	movw	r24, r14
    27f2:	01 97       	sbiw	r24, 0x01	; 1
    27f4:	39 f4       	brne	.+14     	; 0x2804 <__vector_7+0x182>
    27f6:	84 e8       	ldi	r24, 0x84	; 132
    27f8:	90 e0       	ldi	r25, 0x00	; 0
    27fa:	fc 01       	movw	r30, r24
    27fc:	80 81       	ld	r24, Z
    27fe:	91 81       	ldd	r25, Z+1	; 0x01
    2800:	01 96       	adiw	r24, 0x01	; 1
    2802:	09 c0       	rjmp	.+18     	; 0x2816 <__vector_7+0x194>
    2804:	80 91 3a 01 	lds	r24, 0x013A	; 0x80013a <timerQ>
    2808:	90 91 3b 01 	lds	r25, 0x013B	; 0x80013b <timerQ+0x1>
    280c:	fc 01       	movw	r30, r24
    280e:	82 81       	ldd	r24, Z+2	; 0x02
    2810:	93 81       	ldd	r25, Z+3	; 0x03
    2812:	a4 81       	ldd	r26, Z+4	; 0x04
    2814:	b5 81       	ldd	r27, Z+5	; 0x05
    2816:	f9 01       	movw	r30, r18
    2818:	91 83       	std	Z+1, r25	; 0x01
    281a:	80 83       	st	Z, r24
    281c:	8f e6       	ldi	r24, 0x6F	; 111
    281e:	90 e0       	ldi	r25, 0x00	; 0
    2820:	2f e6       	ldi	r18, 0x6F	; 111
    2822:	30 e0       	ldi	r19, 0x00	; 0
    2824:	f9 01       	movw	r30, r18
    2826:	20 81       	ld	r18, Z
    2828:	22 60       	ori	r18, 0x02	; 2
    282a:	fc 01       	movw	r30, r24
    282c:	20 83       	st	Z, r18
    282e:	09 c0       	rjmp	.+18     	; 0x2842 <__vector_7+0x1c0>
    2830:	8f e6       	ldi	r24, 0x6F	; 111
    2832:	90 e0       	ldi	r25, 0x00	; 0
    2834:	2f e6       	ldi	r18, 0x6F	; 111
    2836:	30 e0       	ldi	r19, 0x00	; 0
    2838:	f9 01       	movw	r30, r18
    283a:	20 81       	ld	r18, Z
    283c:	2d 7f       	andi	r18, 0xFD	; 253
    283e:	fc 01       	movw	r30, r24
    2840:	20 83       	st	Z, r18
    2842:	0e 94 0e 15 	call	0x2a1c	; 0x2a1c <schedule>
    2846:	00 00       	nop
    2848:	0f 90       	pop	r0
    284a:	0f 90       	pop	r0
    284c:	0f 90       	pop	r0
    284e:	0f 90       	pop	r0
    2850:	df 91       	pop	r29
    2852:	cf 91       	pop	r28
    2854:	ff 91       	pop	r31
    2856:	ef 91       	pop	r30
    2858:	bf 91       	pop	r27
    285a:	af 91       	pop	r26
    285c:	9f 91       	pop	r25
    285e:	8f 91       	pop	r24
    2860:	7f 91       	pop	r23
    2862:	6f 91       	pop	r22
    2864:	5f 91       	pop	r21
    2866:	4f 91       	pop	r20
    2868:	3f 91       	pop	r19
    286a:	2f 91       	pop	r18
    286c:	1f 91       	pop	r17
    286e:	0f 91       	pop	r16
    2870:	ff 90       	pop	r15
    2872:	ef 90       	pop	r14
    2874:	0f 90       	pop	r0
    2876:	00 92 5f 00 	sts	0x005F, r0	; 0x80005f <__TEXT_REGION_LENGTH__+0x7fc05f>
    287a:	0f 90       	pop	r0
    287c:	1f 90       	pop	r1
    287e:	18 95       	reti

00002880 <dispatch>:
    2880:	cf 93       	push	r28
    2882:	df 93       	push	r29
    2884:	00 d0       	rcall	.+0      	; 0x2886 <dispatch+0x6>
    2886:	cd b7       	in	r28, 0x3d	; 61
    2888:	de b7       	in	r29, 0x3e	; 62
    288a:	9a 83       	std	Y+2, r25	; 0x02
    288c:	89 83       	std	Y+1, r24	; 0x01
    288e:	80 91 36 01 	lds	r24, 0x0136	; 0x800136 <current>
    2892:	90 91 37 01 	lds	r25, 0x0137	; 0x800137 <current+0x1>
    2896:	06 96       	adiw	r24, 0x06	; 6
    2898:	0e 94 92 19 	call	0x3324	; 0x3324 <setjmp>
    289c:	89 2b       	or	r24, r25
    289e:	69 f4       	brne	.+26     	; 0x28ba <dispatch+0x3a>
    28a0:	89 81       	ldd	r24, Y+1	; 0x01
    28a2:	9a 81       	ldd	r25, Y+2	; 0x02
    28a4:	90 93 37 01 	sts	0x0137, r25	; 0x800137 <current+0x1>
    28a8:	80 93 36 01 	sts	0x0136, r24	; 0x800136 <current>
    28ac:	89 81       	ldd	r24, Y+1	; 0x01
    28ae:	9a 81       	ldd	r25, Y+2	; 0x02
    28b0:	06 96       	adiw	r24, 0x06	; 6
    28b2:	61 e0       	ldi	r22, 0x01	; 1
    28b4:	70 e0       	ldi	r23, 0x00	; 0
    28b6:	0e 94 b2 19 	call	0x3364	; 0x3364 <longjmp>
    28ba:	00 00       	nop
    28bc:	0f 90       	pop	r0
    28be:	0f 90       	pop	r0
    28c0:	df 91       	pop	r29
    28c2:	cf 91       	pop	r28
    28c4:	08 95       	ret

000028c6 <run>:
    28c6:	ef 92       	push	r14
    28c8:	ff 92       	push	r15
    28ca:	0f 93       	push	r16
    28cc:	1f 93       	push	r17
    28ce:	cf 93       	push	r28
    28d0:	df 93       	push	r29
    28d2:	cd b7       	in	r28, 0x3d	; 61
    28d4:	de b7       	in	r29, 0x3e	; 62
    28d6:	27 97       	sbiw	r28, 0x07	; 7
    28d8:	0f b6       	in	r0, 0x3f	; 63
    28da:	f8 94       	cli
    28dc:	de bf       	out	0x3e, r29	; 62
    28de:	0f be       	out	0x3f, r0	; 63
    28e0:	cd bf       	out	0x3d, r28	; 61
    28e2:	00 91 36 01 	lds	r16, 0x0136	; 0x800136 <current>
    28e6:	10 91 37 01 	lds	r17, 0x0137	; 0x800137 <current+0x1>
    28ea:	88 e3       	ldi	r24, 0x38	; 56
    28ec:	91 e0       	ldi	r25, 0x01	; 1
    28ee:	0e 94 0e 12 	call	0x241c	; 0x241c <dequeue>
    28f2:	f8 01       	movw	r30, r16
    28f4:	93 83       	std	Z+3, r25	; 0x03
    28f6:	82 83       	std	Z+2, r24	; 0x02
    28f8:	f8 01       	movw	r30, r16
    28fa:	82 81       	ldd	r24, Z+2	; 0x02
    28fc:	93 81       	ldd	r25, Z+3	; 0x03
    28fe:	9c 83       	std	Y+4, r25	; 0x04
    2900:	8b 83       	std	Y+3, r24	; 0x03
    2902:	81 e0       	ldi	r24, 0x01	; 1
    2904:	8d 83       	std	Y+5, r24	; 0x05
    2906:	8d 81       	ldd	r24, Y+5	; 0x05
    2908:	88 23       	and	r24, r24
    290a:	09 f0       	breq	.+2      	; 0x290e <run+0x48>
    290c:	78 94       	sei
    290e:	8b 81       	ldd	r24, Y+3	; 0x03
    2910:	9c 81       	ldd	r25, Y+4	; 0x04
    2912:	fc 01       	movw	r30, r24
    2914:	46 85       	ldd	r20, Z+14	; 0x0e
    2916:	57 85       	ldd	r21, Z+15	; 0x0f
    2918:	8b 81       	ldd	r24, Y+3	; 0x03
    291a:	9c 81       	ldd	r25, Y+4	; 0x04
    291c:	fc 01       	movw	r30, r24
    291e:	24 85       	ldd	r18, Z+12	; 0x0c
    2920:	35 85       	ldd	r19, Z+13	; 0x0d
    2922:	8b 81       	ldd	r24, Y+3	; 0x03
    2924:	9c 81       	ldd	r25, Y+4	; 0x04
    2926:	fc 01       	movw	r30, r24
    2928:	82 85       	ldd	r24, Z+10	; 0x0a
    292a:	93 85       	ldd	r25, Z+11	; 0x0b
    292c:	b9 01       	movw	r22, r18
    292e:	0e 94 f9 16 	call	0x2df2	; 0x2df2 <sync>
    2932:	8f e5       	ldi	r24, 0x5F	; 95
    2934:	90 e0       	ldi	r25, 0x00	; 0
    2936:	fc 01       	movw	r30, r24
    2938:	80 81       	ld	r24, Z
    293a:	80 78       	andi	r24, 0x80	; 128
    293c:	8d 83       	std	Y+5, r24	; 0x05
    293e:	f8 94       	cli
    2940:	8b 81       	ldd	r24, Y+3	; 0x03
    2942:	9c 81       	ldd	r25, Y+4	; 0x04
    2944:	60 e3       	ldi	r22, 0x30	; 48
    2946:	71 e0       	ldi	r23, 0x01	; 1
    2948:	0e 94 4b 12 	call	0x2496	; 0x2496 <insert>
    294c:	80 91 34 01 	lds	r24, 0x0134	; 0x800134 <activeStack>
    2950:	90 91 35 01 	lds	r25, 0x0135	; 0x800135 <activeStack+0x1>
    2954:	fc 01       	movw	r30, r24
    2956:	80 81       	ld	r24, Z
    2958:	91 81       	ldd	r25, Z+1	; 0x01
    295a:	fc 01       	movw	r30, r24
    295c:	82 81       	ldd	r24, Z+2	; 0x02
    295e:	93 81       	ldd	r25, Z+3	; 0x03
    2960:	9f 83       	std	Y+7, r25	; 0x07
    2962:	8e 83       	std	Y+6, r24	; 0x06
    2964:	80 91 38 01 	lds	r24, 0x0138	; 0x800138 <__data_end>
    2968:	90 91 39 01 	lds	r25, 0x0139	; 0x800139 <__data_end+0x1>
    296c:	89 2b       	or	r24, r25
    296e:	19 f1       	breq	.+70     	; 0x29b6 <run+0xf0>
    2970:	8e 81       	ldd	r24, Y+6	; 0x06
    2972:	9f 81       	ldd	r25, Y+7	; 0x07
    2974:	89 2b       	or	r24, r25
    2976:	09 f4       	brne	.+2      	; 0x297a <run+0xb4>
    2978:	b4 cf       	rjmp	.-152    	; 0x28e2 <run+0x1c>
    297a:	80 91 38 01 	lds	r24, 0x0138	; 0x800138 <__data_end>
    297e:	90 91 39 01 	lds	r25, 0x0139	; 0x800139 <__data_end+0x1>
    2982:	fc 01       	movw	r30, r24
    2984:	26 81       	ldd	r18, Z+6	; 0x06
    2986:	37 81       	ldd	r19, Z+7	; 0x07
    2988:	40 85       	ldd	r20, Z+8	; 0x08
    298a:	51 85       	ldd	r21, Z+9	; 0x09
    298c:	8e 81       	ldd	r24, Y+6	; 0x06
    298e:	9f 81       	ldd	r25, Y+7	; 0x07
    2990:	fc 01       	movw	r30, r24
    2992:	86 81       	ldd	r24, Z+6	; 0x06
    2994:	97 81       	ldd	r25, Z+7	; 0x07
    2996:	a0 85       	ldd	r26, Z+8	; 0x08
    2998:	b1 85       	ldd	r27, Z+9	; 0x09
    299a:	79 01       	movw	r14, r18
    299c:	8a 01       	movw	r16, r20
    299e:	e8 1a       	sub	r14, r24
    29a0:	f9 0a       	sbc	r15, r25
    29a2:	0a 0b       	sbc	r16, r26
    29a4:	1b 0b       	sbc	r17, r27
    29a6:	d8 01       	movw	r26, r16
    29a8:	c7 01       	movw	r24, r14
    29aa:	18 16       	cp	r1, r24
    29ac:	19 06       	cpc	r1, r25
    29ae:	1a 06       	cpc	r1, r26
    29b0:	1b 06       	cpc	r1, r27
    29b2:	0c f0       	brlt	.+2      	; 0x29b6 <run+0xf0>
    29b4:	96 cf       	rjmp	.-212    	; 0x28e2 <run+0x1c>
    29b6:	84 e3       	ldi	r24, 0x34	; 52
    29b8:	91 e0       	ldi	r25, 0x01	; 1
    29ba:	0e 94 91 12 	call	0x2522	; 0x2522 <pop>
    29be:	62 e3       	ldi	r22, 0x32	; 50
    29c0:	71 e0       	ldi	r23, 0x01	; 1
    29c2:	0e 94 6e 12 	call	0x24dc	; 0x24dc <push>
    29c6:	80 91 34 01 	lds	r24, 0x0134	; 0x800134 <activeStack>
    29ca:	90 91 35 01 	lds	r25, 0x0135	; 0x800135 <activeStack+0x1>
    29ce:	9a 83       	std	Y+2, r25	; 0x02
    29d0:	89 83       	std	Y+1, r24	; 0x01
    29d2:	0a c0       	rjmp	.+20     	; 0x29e8 <run+0x122>
    29d4:	89 81       	ldd	r24, Y+1	; 0x01
    29d6:	9a 81       	ldd	r25, Y+2	; 0x02
    29d8:	fc 01       	movw	r30, r24
    29da:	84 81       	ldd	r24, Z+4	; 0x04
    29dc:	95 81       	ldd	r25, Z+5	; 0x05
    29de:	fc 01       	movw	r30, r24
    29e0:	80 81       	ld	r24, Z
    29e2:	91 81       	ldd	r25, Z+1	; 0x01
    29e4:	9a 83       	std	Y+2, r25	; 0x02
    29e6:	89 83       	std	Y+1, r24	; 0x01
    29e8:	89 81       	ldd	r24, Y+1	; 0x01
    29ea:	9a 81       	ldd	r25, Y+2	; 0x02
    29ec:	fc 01       	movw	r30, r24
    29ee:	84 81       	ldd	r24, Z+4	; 0x04
    29f0:	95 81       	ldd	r25, Z+5	; 0x05
    29f2:	89 2b       	or	r24, r25
    29f4:	79 f7       	brne	.-34     	; 0x29d4 <run+0x10e>
    29f6:	89 81       	ldd	r24, Y+1	; 0x01
    29f8:	9a 81       	ldd	r25, Y+2	; 0x02
    29fa:	0e 94 40 14 	call	0x2880	; 0x2880 <dispatch>
    29fe:	71 cf       	rjmp	.-286    	; 0x28e2 <run+0x1c>

00002a00 <idle>:
    2a00:	cf 93       	push	r28
    2a02:	df 93       	push	r29
    2a04:	cd b7       	in	r28, 0x3d	; 61
    2a06:	de b7       	in	r29, 0x3e	; 62
    2a08:	0e 94 0e 15 	call	0x2a1c	; 0x2a1c <schedule>
    2a0c:	78 94       	sei
    2a0e:	83 e5       	ldi	r24, 0x53	; 83
    2a10:	90 e0       	ldi	r25, 0x00	; 0
    2a12:	21 e0       	ldi	r18, 0x01	; 1
    2a14:	fc 01       	movw	r30, r24
    2a16:	20 83       	st	Z, r18
    2a18:	88 95       	sleep
    2a1a:	f9 cf       	rjmp	.-14     	; 0x2a0e <idle+0xe>

00002a1c <schedule>:
    2a1c:	ef 92       	push	r14
    2a1e:	ff 92       	push	r15
    2a20:	0f 93       	push	r16
    2a22:	1f 93       	push	r17
    2a24:	cf 93       	push	r28
    2a26:	df 93       	push	r29
    2a28:	00 d0       	rcall	.+0      	; 0x2a2a <schedule+0xe>
    2a2a:	cd b7       	in	r28, 0x3d	; 61
    2a2c:	de b7       	in	r29, 0x3e	; 62
    2a2e:	80 91 34 01 	lds	r24, 0x0134	; 0x800134 <activeStack>
    2a32:	90 91 35 01 	lds	r25, 0x0135	; 0x800135 <activeStack+0x1>
    2a36:	fc 01       	movw	r30, r24
    2a38:	82 81       	ldd	r24, Z+2	; 0x02
    2a3a:	93 81       	ldd	r25, Z+3	; 0x03
    2a3c:	9a 83       	std	Y+2, r25	; 0x02
    2a3e:	89 83       	std	Y+1, r24	; 0x01
    2a40:	80 91 38 01 	lds	r24, 0x0138	; 0x800138 <__data_end>
    2a44:	90 91 39 01 	lds	r25, 0x0139	; 0x800139 <__data_end+0x1>
    2a48:	89 2b       	or	r24, r25
    2a4a:	91 f1       	breq	.+100    	; 0x2ab0 <schedule+0x94>
    2a4c:	80 91 32 01 	lds	r24, 0x0132	; 0x800132 <threadPool>
    2a50:	90 91 33 01 	lds	r25, 0x0133	; 0x800133 <threadPool+0x1>
    2a54:	89 2b       	or	r24, r25
    2a56:	61 f1       	breq	.+88     	; 0x2ab0 <schedule+0x94>
    2a58:	89 81       	ldd	r24, Y+1	; 0x01
    2a5a:	9a 81       	ldd	r25, Y+2	; 0x02
    2a5c:	89 2b       	or	r24, r25
    2a5e:	d1 f0       	breq	.+52     	; 0x2a94 <schedule+0x78>
    2a60:	80 91 38 01 	lds	r24, 0x0138	; 0x800138 <__data_end>
    2a64:	90 91 39 01 	lds	r25, 0x0139	; 0x800139 <__data_end+0x1>
    2a68:	fc 01       	movw	r30, r24
    2a6a:	26 81       	ldd	r18, Z+6	; 0x06
    2a6c:	37 81       	ldd	r19, Z+7	; 0x07
    2a6e:	40 85       	ldd	r20, Z+8	; 0x08
    2a70:	51 85       	ldd	r21, Z+9	; 0x09
    2a72:	89 81       	ldd	r24, Y+1	; 0x01
    2a74:	9a 81       	ldd	r25, Y+2	; 0x02
    2a76:	fc 01       	movw	r30, r24
    2a78:	86 81       	ldd	r24, Z+6	; 0x06
    2a7a:	97 81       	ldd	r25, Z+7	; 0x07
    2a7c:	a0 85       	ldd	r26, Z+8	; 0x08
    2a7e:	b1 85       	ldd	r27, Z+9	; 0x09
    2a80:	79 01       	movw	r14, r18
    2a82:	8a 01       	movw	r16, r20
    2a84:	e8 1a       	sub	r14, r24
    2a86:	f9 0a       	sbc	r15, r25
    2a88:	0a 0b       	sbc	r16, r26
    2a8a:	1b 0b       	sbc	r17, r27
    2a8c:	d8 01       	movw	r26, r16
    2a8e:	c7 01       	movw	r24, r14
    2a90:	bb 23       	and	r27, r27
    2a92:	74 f4       	brge	.+28     	; 0x2ab0 <schedule+0x94>
    2a94:	82 e3       	ldi	r24, 0x32	; 50
    2a96:	91 e0       	ldi	r25, 0x01	; 1
    2a98:	0e 94 91 12 	call	0x2522	; 0x2522 <pop>
    2a9c:	64 e3       	ldi	r22, 0x34	; 52
    2a9e:	71 e0       	ldi	r23, 0x01	; 1
    2aa0:	0e 94 6e 12 	call	0x24dc	; 0x24dc <push>
    2aa4:	80 91 34 01 	lds	r24, 0x0134	; 0x800134 <activeStack>
    2aa8:	90 91 35 01 	lds	r25, 0x0135	; 0x800135 <activeStack+0x1>
    2aac:	0e 94 40 14 	call	0x2880	; 0x2880 <dispatch>
    2ab0:	00 00       	nop
    2ab2:	0f 90       	pop	r0
    2ab4:	0f 90       	pop	r0
    2ab6:	df 91       	pop	r29
    2ab8:	cf 91       	pop	r28
    2aba:	1f 91       	pop	r17
    2abc:	0f 91       	pop	r16
    2abe:	ff 90       	pop	r15
    2ac0:	ef 90       	pop	r14
    2ac2:	08 95       	ret

00002ac4 <async>:
    2ac4:	cf 92       	push	r12
    2ac6:	df 92       	push	r13
    2ac8:	ef 92       	push	r14
    2aca:	ff 92       	push	r15
    2acc:	0f 93       	push	r16
    2ace:	1f 93       	push	r17
    2ad0:	cf 93       	push	r28
    2ad2:	df 93       	push	r29
    2ad4:	cd b7       	in	r28, 0x3d	; 61
    2ad6:	de b7       	in	r29, 0x3e	; 62
    2ad8:	65 97       	sbiw	r28, 0x15	; 21
    2ada:	0f b6       	in	r0, 0x3f	; 63
    2adc:	f8 94       	cli
    2ade:	de bf       	out	0x3e, r29	; 62
    2ae0:	0f be       	out	0x3f, r0	; 63
    2ae2:	cd bf       	out	0x3d, r28	; 61
    2ae4:	68 87       	std	Y+8, r22	; 0x08
    2ae6:	79 87       	std	Y+9, r23	; 0x09
    2ae8:	8a 87       	std	Y+10, r24	; 0x0a
    2aea:	9b 87       	std	Y+11, r25	; 0x0b
    2aec:	2c 87       	std	Y+12, r18	; 0x0c
    2aee:	3d 87       	std	Y+13, r19	; 0x0d
    2af0:	4e 87       	std	Y+14, r20	; 0x0e
    2af2:	5f 87       	std	Y+15, r21	; 0x0f
    2af4:	19 8b       	std	Y+17, r17	; 0x11
    2af6:	08 8b       	std	Y+16, r16	; 0x10
    2af8:	fb 8a       	std	Y+19, r15	; 0x13
    2afa:	ea 8a       	std	Y+18, r14	; 0x12
    2afc:	dd 8a       	std	Y+21, r13	; 0x15
    2afe:	cc 8a       	std	Y+20, r12	; 0x14
    2b00:	8f e5       	ldi	r24, 0x5F	; 95
    2b02:	90 e0       	ldi	r25, 0x00	; 0
    2b04:	fc 01       	movw	r30, r24
    2b06:	80 81       	ld	r24, Z
    2b08:	80 78       	andi	r24, 0x80	; 128
    2b0a:	8d 83       	std	Y+5, r24	; 0x05
    2b0c:	f8 94       	cli
    2b0e:	80 e3       	ldi	r24, 0x30	; 48
    2b10:	91 e0       	ldi	r25, 0x01	; 1
    2b12:	0e 94 0e 12 	call	0x241c	; 0x241c <dequeue>
    2b16:	9f 83       	std	Y+7, r25	; 0x07
    2b18:	8e 83       	std	Y+6, r24	; 0x06
    2b1a:	8e 81       	ldd	r24, Y+6	; 0x06
    2b1c:	9f 81       	ldd	r25, Y+7	; 0x07
    2b1e:	28 89       	ldd	r18, Y+16	; 0x10
    2b20:	39 89       	ldd	r19, Y+17	; 0x11
    2b22:	fc 01       	movw	r30, r24
    2b24:	33 87       	std	Z+11, r19	; 0x0b
    2b26:	22 87       	std	Z+10, r18	; 0x0a
    2b28:	8e 81       	ldd	r24, Y+6	; 0x06
    2b2a:	9f 81       	ldd	r25, Y+7	; 0x07
    2b2c:	2a 89       	ldd	r18, Y+18	; 0x12
    2b2e:	3b 89       	ldd	r19, Y+19	; 0x13
    2b30:	fc 01       	movw	r30, r24
    2b32:	35 87       	std	Z+13, r19	; 0x0d
    2b34:	24 87       	std	Z+12, r18	; 0x0c
    2b36:	8e 81       	ldd	r24, Y+6	; 0x06
    2b38:	9f 81       	ldd	r25, Y+7	; 0x07
    2b3a:	2c 89       	ldd	r18, Y+20	; 0x14
    2b3c:	3d 89       	ldd	r19, Y+21	; 0x15
    2b3e:	fc 01       	movw	r30, r24
    2b40:	37 87       	std	Z+15, r19	; 0x0f
    2b42:	26 87       	std	Z+14, r18	; 0x0e
    2b44:	8d 81       	ldd	r24, Y+5	; 0x05
    2b46:	88 23       	and	r24, r24
    2b48:	69 f0       	breq	.+26     	; 0x2b64 <async+0xa0>
    2b4a:	80 91 36 01 	lds	r24, 0x0136	; 0x800136 <current>
    2b4e:	90 91 37 01 	lds	r25, 0x0137	; 0x800137 <current+0x1>
    2b52:	fc 01       	movw	r30, r24
    2b54:	82 81       	ldd	r24, Z+2	; 0x02
    2b56:	93 81       	ldd	r25, Z+3	; 0x03
    2b58:	fc 01       	movw	r30, r24
    2b5a:	82 81       	ldd	r24, Z+2	; 0x02
    2b5c:	93 81       	ldd	r25, Z+3	; 0x03
    2b5e:	a4 81       	ldd	r26, Z+4	; 0x04
    2b60:	b5 81       	ldd	r27, Z+5	; 0x05
    2b62:	08 c0       	rjmp	.+16     	; 0x2b74 <async+0xb0>
    2b64:	80 91 3c 01 	lds	r24, 0x013C	; 0x80013c <timestamp>
    2b68:	90 91 3d 01 	lds	r25, 0x013D	; 0x80013d <timestamp+0x1>
    2b6c:	a0 91 3e 01 	lds	r26, 0x013E	; 0x80013e <timestamp+0x2>
    2b70:	b0 91 3f 01 	lds	r27, 0x013F	; 0x80013f <timestamp+0x3>
    2b74:	28 85       	ldd	r18, Y+8	; 0x08
    2b76:	39 85       	ldd	r19, Y+9	; 0x09
    2b78:	4a 85       	ldd	r20, Y+10	; 0x0a
    2b7a:	5b 85       	ldd	r21, Y+11	; 0x0b
    2b7c:	82 0f       	add	r24, r18
    2b7e:	93 1f       	adc	r25, r19
    2b80:	a4 1f       	adc	r26, r20
    2b82:	b5 1f       	adc	r27, r21
    2b84:	2e 81       	ldd	r18, Y+6	; 0x06
    2b86:	3f 81       	ldd	r19, Y+7	; 0x07
    2b88:	f9 01       	movw	r30, r18
    2b8a:	82 83       	std	Z+2, r24	; 0x02
    2b8c:	93 83       	std	Z+3, r25	; 0x03
    2b8e:	a4 83       	std	Z+4, r26	; 0x04
    2b90:	b5 83       	std	Z+5, r27	; 0x05
    2b92:	8e 81       	ldd	r24, Y+6	; 0x06
    2b94:	9f 81       	ldd	r25, Y+7	; 0x07
    2b96:	fc 01       	movw	r30, r24
    2b98:	22 81       	ldd	r18, Z+2	; 0x02
    2b9a:	33 81       	ldd	r19, Z+3	; 0x03
    2b9c:	44 81       	ldd	r20, Z+4	; 0x04
    2b9e:	55 81       	ldd	r21, Z+5	; 0x05
    2ba0:	8c 85       	ldd	r24, Y+12	; 0x0c
    2ba2:	9d 85       	ldd	r25, Y+13	; 0x0d
    2ba4:	ae 85       	ldd	r26, Y+14	; 0x0e
    2ba6:	bf 85       	ldd	r27, Y+15	; 0x0f
    2ba8:	18 16       	cp	r1, r24
    2baa:	19 06       	cpc	r1, r25
    2bac:	1a 06       	cpc	r1, r26
    2bae:	1b 06       	cpc	r1, r27
    2bb0:	2c f4       	brge	.+10     	; 0x2bbc <async+0xf8>
    2bb2:	8c 85       	ldd	r24, Y+12	; 0x0c
    2bb4:	9d 85       	ldd	r25, Y+13	; 0x0d
    2bb6:	ae 85       	ldd	r26, Y+14	; 0x0e
    2bb8:	bf 85       	ldd	r27, Y+15	; 0x0f
    2bba:	04 c0       	rjmp	.+8      	; 0x2bc4 <async+0x100>
    2bbc:	8f ef       	ldi	r24, 0xFF	; 255
    2bbe:	9f ef       	ldi	r25, 0xFF	; 255
    2bc0:	af ef       	ldi	r26, 0xFF	; 255
    2bc2:	bf e7       	ldi	r27, 0x7F	; 127
    2bc4:	82 0f       	add	r24, r18
    2bc6:	93 1f       	adc	r25, r19
    2bc8:	a4 1f       	adc	r26, r20
    2bca:	b5 1f       	adc	r27, r21
    2bcc:	2e 81       	ldd	r18, Y+6	; 0x06
    2bce:	3f 81       	ldd	r19, Y+7	; 0x07
    2bd0:	f9 01       	movw	r30, r18
    2bd2:	86 83       	std	Z+6, r24	; 0x06
    2bd4:	97 83       	std	Z+7, r25	; 0x07
    2bd6:	a0 87       	std	Z+8, r26	; 0x08
    2bd8:	b1 87       	std	Z+9, r27	; 0x09
    2bda:	80 91 40 01 	lds	r24, 0x0140	; 0x800140 <overflows>
    2bde:	90 91 41 01 	lds	r25, 0x0141	; 0x800141 <overflows+0x1>
    2be2:	09 2e       	mov	r0, r25
    2be4:	00 0c       	add	r0, r0
    2be6:	aa 0b       	sbc	r26, r26
    2be8:	bb 0b       	sbc	r27, r27
    2bea:	ac 01       	movw	r20, r24
    2bec:	33 27       	eor	r19, r19
    2bee:	22 27       	eor	r18, r18
    2bf0:	84 e8       	ldi	r24, 0x84	; 132
    2bf2:	90 e0       	ldi	r25, 0x00	; 0
    2bf4:	fc 01       	movw	r30, r24
    2bf6:	80 81       	ld	r24, Z
    2bf8:	91 81       	ldd	r25, Z+1	; 0x01
    2bfa:	cc 01       	movw	r24, r24
    2bfc:	a0 e0       	ldi	r26, 0x00	; 0
    2bfe:	b0 e0       	ldi	r27, 0x00	; 0
    2c00:	82 2b       	or	r24, r18
    2c02:	93 2b       	or	r25, r19
    2c04:	a4 2b       	or	r26, r20
    2c06:	b5 2b       	or	r27, r21
    2c08:	89 83       	std	Y+1, r24	; 0x01
    2c0a:	9a 83       	std	Y+2, r25	; 0x02
    2c0c:	ab 83       	std	Y+3, r26	; 0x03
    2c0e:	bc 83       	std	Y+4, r27	; 0x04
    2c10:	86 e3       	ldi	r24, 0x36	; 54
    2c12:	90 e0       	ldi	r25, 0x00	; 0
    2c14:	fc 01       	movw	r30, r24
    2c16:	80 81       	ld	r24, Z
    2c18:	88 2f       	mov	r24, r24
    2c1a:	90 e0       	ldi	r25, 0x00	; 0
    2c1c:	81 70       	andi	r24, 0x01	; 1
    2c1e:	99 27       	eor	r25, r25
    2c20:	89 2b       	or	r24, r25
    2c22:	e1 f0       	breq	.+56     	; 0x2c5c <async+0x198>
    2c24:	80 91 40 01 	lds	r24, 0x0140	; 0x800140 <overflows>
    2c28:	90 91 41 01 	lds	r25, 0x0141	; 0x800141 <overflows+0x1>
    2c2c:	01 96       	adiw	r24, 0x01	; 1
    2c2e:	09 2e       	mov	r0, r25
    2c30:	00 0c       	add	r0, r0
    2c32:	aa 0b       	sbc	r26, r26
    2c34:	bb 0b       	sbc	r27, r27
    2c36:	ac 01       	movw	r20, r24
    2c38:	33 27       	eor	r19, r19
    2c3a:	22 27       	eor	r18, r18
    2c3c:	84 e8       	ldi	r24, 0x84	; 132
    2c3e:	90 e0       	ldi	r25, 0x00	; 0
    2c40:	fc 01       	movw	r30, r24
    2c42:	80 81       	ld	r24, Z
    2c44:	91 81       	ldd	r25, Z+1	; 0x01
    2c46:	cc 01       	movw	r24, r24
    2c48:	a0 e0       	ldi	r26, 0x00	; 0
    2c4a:	b0 e0       	ldi	r27, 0x00	; 0
    2c4c:	82 2b       	or	r24, r18
    2c4e:	93 2b       	or	r25, r19
    2c50:	a4 2b       	or	r26, r20
    2c52:	b5 2b       	or	r27, r21
    2c54:	89 83       	std	Y+1, r24	; 0x01
    2c56:	9a 83       	std	Y+2, r25	; 0x02
    2c58:	ab 83       	std	Y+3, r26	; 0x03
    2c5a:	bc 83       	std	Y+4, r27	; 0x04
    2c5c:	8e 81       	ldd	r24, Y+6	; 0x06
    2c5e:	9f 81       	ldd	r25, Y+7	; 0x07
    2c60:	fc 01       	movw	r30, r24
    2c62:	22 81       	ldd	r18, Z+2	; 0x02
    2c64:	33 81       	ldd	r19, Z+3	; 0x03
    2c66:	44 81       	ldd	r20, Z+4	; 0x04
    2c68:	55 81       	ldd	r21, Z+5	; 0x05
    2c6a:	89 81       	ldd	r24, Y+1	; 0x01
    2c6c:	9a 81       	ldd	r25, Y+2	; 0x02
    2c6e:	ab 81       	ldd	r26, Y+3	; 0x03
    2c70:	bc 81       	ldd	r27, Y+4	; 0x04
    2c72:	79 01       	movw	r14, r18
    2c74:	8a 01       	movw	r16, r20
    2c76:	e8 1a       	sub	r14, r24
    2c78:	f9 0a       	sbc	r15, r25
    2c7a:	0a 0b       	sbc	r16, r26
    2c7c:	1b 0b       	sbc	r17, r27
    2c7e:	d8 01       	movw	r26, r16
    2c80:	c7 01       	movw	r24, r14
    2c82:	18 16       	cp	r1, r24
    2c84:	19 06       	cpc	r1, r25
    2c86:	1a 06       	cpc	r1, r26
    2c88:	1b 06       	cpc	r1, r27
    2c8a:	0c f0       	brlt	.+2      	; 0x2c8e <async+0x1ca>
    2c8c:	61 c0       	rjmp	.+194    	; 0x2d50 <async+0x28c>
    2c8e:	8e 81       	ldd	r24, Y+6	; 0x06
    2c90:	9f 81       	ldd	r25, Y+7	; 0x07
    2c92:	6a e3       	ldi	r22, 0x3A	; 58
    2c94:	71 e0       	ldi	r23, 0x01	; 1
    2c96:	0e 94 b0 11 	call	0x2360	; 0x2360 <enqueueByBaseline>
    2c9a:	80 91 3a 01 	lds	r24, 0x013A	; 0x80013a <timerQ>
    2c9e:	90 91 3b 01 	lds	r25, 0x013B	; 0x80013b <timerQ+0x1>
    2ca2:	89 2b       	or	r24, r25
    2ca4:	09 f4       	brne	.+2      	; 0x2ca8 <async+0x1e4>
    2ca6:	4a c0       	rjmp	.+148    	; 0x2d3c <async+0x278>
    2ca8:	80 91 3a 01 	lds	r24, 0x013A	; 0x80013a <timerQ>
    2cac:	90 91 3b 01 	lds	r25, 0x013B	; 0x80013b <timerQ+0x1>
    2cb0:	fc 01       	movw	r30, r24
    2cb2:	82 81       	ldd	r24, Z+2	; 0x02
    2cb4:	93 81       	ldd	r25, Z+3	; 0x03
    2cb6:	a4 81       	ldd	r26, Z+4	; 0x04
    2cb8:	b5 81       	ldd	r27, Z+5	; 0x05
    2cba:	cd 01       	movw	r24, r26
    2cbc:	bb 27       	eor	r27, r27
    2cbe:	97 fd       	sbrc	r25, 7
    2cc0:	b0 95       	com	r27
    2cc2:	ab 2f       	mov	r26, r27
    2cc4:	9c 01       	movw	r18, r24
    2cc6:	80 91 40 01 	lds	r24, 0x0140	; 0x800140 <overflows>
    2cca:	90 91 41 01 	lds	r25, 0x0141	; 0x800141 <overflows+0x1>
    2cce:	28 17       	cp	r18, r24
    2cd0:	39 07       	cpc	r19, r25
    2cd2:	a1 f5       	brne	.+104    	; 0x2d3c <async+0x278>
    2cd4:	28 e8       	ldi	r18, 0x88	; 136
    2cd6:	30 e0       	ldi	r19, 0x00	; 0
    2cd8:	80 91 3a 01 	lds	r24, 0x013A	; 0x80013a <timerQ>
    2cdc:	90 91 3b 01 	lds	r25, 0x013B	; 0x80013b <timerQ+0x1>
    2ce0:	fc 01       	movw	r30, r24
    2ce2:	82 81       	ldd	r24, Z+2	; 0x02
    2ce4:	93 81       	ldd	r25, Z+3	; 0x03
    2ce6:	a4 81       	ldd	r26, Z+4	; 0x04
    2ce8:	b5 81       	ldd	r27, Z+5	; 0x05
    2cea:	ac 01       	movw	r20, r24
    2cec:	84 e8       	ldi	r24, 0x84	; 132
    2cee:	90 e0       	ldi	r25, 0x00	; 0
    2cf0:	fc 01       	movw	r30, r24
    2cf2:	80 81       	ld	r24, Z
    2cf4:	91 81       	ldd	r25, Z+1	; 0x01
    2cf6:	7a 01       	movw	r14, r20
    2cf8:	e8 1a       	sub	r14, r24
    2cfa:	f9 0a       	sbc	r15, r25
    2cfc:	c7 01       	movw	r24, r14
    2cfe:	01 97       	sbiw	r24, 0x01	; 1
    2d00:	39 f4       	brne	.+14     	; 0x2d10 <async+0x24c>
    2d02:	84 e8       	ldi	r24, 0x84	; 132
    2d04:	90 e0       	ldi	r25, 0x00	; 0
    2d06:	fc 01       	movw	r30, r24
    2d08:	80 81       	ld	r24, Z
    2d0a:	91 81       	ldd	r25, Z+1	; 0x01
    2d0c:	01 96       	adiw	r24, 0x01	; 1
    2d0e:	09 c0       	rjmp	.+18     	; 0x2d22 <async+0x25e>
    2d10:	80 91 3a 01 	lds	r24, 0x013A	; 0x80013a <timerQ>
    2d14:	90 91 3b 01 	lds	r25, 0x013B	; 0x80013b <timerQ+0x1>
    2d18:	fc 01       	movw	r30, r24
    2d1a:	82 81       	ldd	r24, Z+2	; 0x02
    2d1c:	93 81       	ldd	r25, Z+3	; 0x03
    2d1e:	a4 81       	ldd	r26, Z+4	; 0x04
    2d20:	b5 81       	ldd	r27, Z+5	; 0x05
    2d22:	f9 01       	movw	r30, r18
    2d24:	91 83       	std	Z+1, r25	; 0x01
    2d26:	80 83       	st	Z, r24
    2d28:	8f e6       	ldi	r24, 0x6F	; 111
    2d2a:	90 e0       	ldi	r25, 0x00	; 0
    2d2c:	2f e6       	ldi	r18, 0x6F	; 111
    2d2e:	30 e0       	ldi	r19, 0x00	; 0
    2d30:	f9 01       	movw	r30, r18
    2d32:	20 81       	ld	r18, Z
    2d34:	22 60       	ori	r18, 0x02	; 2
    2d36:	fc 01       	movw	r30, r24
    2d38:	20 83       	st	Z, r18
    2d3a:	46 c0       	rjmp	.+140    	; 0x2dc8 <async+0x304>
    2d3c:	8f e6       	ldi	r24, 0x6F	; 111
    2d3e:	90 e0       	ldi	r25, 0x00	; 0
    2d40:	2f e6       	ldi	r18, 0x6F	; 111
    2d42:	30 e0       	ldi	r19, 0x00	; 0
    2d44:	f9 01       	movw	r30, r18
    2d46:	20 81       	ld	r18, Z
    2d48:	2d 7f       	andi	r18, 0xFD	; 253
    2d4a:	fc 01       	movw	r30, r24
    2d4c:	20 83       	st	Z, r18
    2d4e:	3c c0       	rjmp	.+120    	; 0x2dc8 <async+0x304>
    2d50:	8e 81       	ldd	r24, Y+6	; 0x06
    2d52:	9f 81       	ldd	r25, Y+7	; 0x07
    2d54:	68 e3       	ldi	r22, 0x38	; 56
    2d56:	71 e0       	ldi	r23, 0x01	; 1
    2d58:	0e 94 52 11 	call	0x22a4	; 0x22a4 <enqueueByDeadline>
    2d5c:	8d 81       	ldd	r24, Y+5	; 0x05
    2d5e:	88 23       	and	r24, r24
    2d60:	99 f1       	breq	.+102    	; 0x2dc8 <async+0x304>
    2d62:	80 91 32 01 	lds	r24, 0x0132	; 0x800132 <threadPool>
    2d66:	90 91 33 01 	lds	r25, 0x0133	; 0x800133 <threadPool+0x1>
    2d6a:	89 2b       	or	r24, r25
    2d6c:	69 f1       	breq	.+90     	; 0x2dc8 <async+0x304>
    2d6e:	80 91 38 01 	lds	r24, 0x0138	; 0x800138 <__data_end>
    2d72:	90 91 39 01 	lds	r25, 0x0139	; 0x800139 <__data_end+0x1>
    2d76:	fc 01       	movw	r30, r24
    2d78:	26 81       	ldd	r18, Z+6	; 0x06
    2d7a:	37 81       	ldd	r19, Z+7	; 0x07
    2d7c:	40 85       	ldd	r20, Z+8	; 0x08
    2d7e:	51 85       	ldd	r21, Z+9	; 0x09
    2d80:	80 91 34 01 	lds	r24, 0x0134	; 0x800134 <activeStack>
    2d84:	90 91 35 01 	lds	r25, 0x0135	; 0x800135 <activeStack+0x1>
    2d88:	fc 01       	movw	r30, r24
    2d8a:	82 81       	ldd	r24, Z+2	; 0x02
    2d8c:	93 81       	ldd	r25, Z+3	; 0x03
    2d8e:	fc 01       	movw	r30, r24
    2d90:	86 81       	ldd	r24, Z+6	; 0x06
    2d92:	97 81       	ldd	r25, Z+7	; 0x07
    2d94:	a0 85       	ldd	r26, Z+8	; 0x08
    2d96:	b1 85       	ldd	r27, Z+9	; 0x09
    2d98:	79 01       	movw	r14, r18
    2d9a:	8a 01       	movw	r16, r20
    2d9c:	e8 1a       	sub	r14, r24
    2d9e:	f9 0a       	sbc	r15, r25
    2da0:	0a 0b       	sbc	r16, r26
    2da2:	1b 0b       	sbc	r17, r27
    2da4:	d8 01       	movw	r26, r16
    2da6:	c7 01       	movw	r24, r14
    2da8:	bb 23       	and	r27, r27
    2daa:	74 f4       	brge	.+28     	; 0x2dc8 <async+0x304>
    2dac:	82 e3       	ldi	r24, 0x32	; 50
    2dae:	91 e0       	ldi	r25, 0x01	; 1
    2db0:	0e 94 91 12 	call	0x2522	; 0x2522 <pop>
    2db4:	64 e3       	ldi	r22, 0x34	; 52
    2db6:	71 e0       	ldi	r23, 0x01	; 1
    2db8:	0e 94 6e 12 	call	0x24dc	; 0x24dc <push>
    2dbc:	80 91 34 01 	lds	r24, 0x0134	; 0x800134 <activeStack>
    2dc0:	90 91 35 01 	lds	r25, 0x0135	; 0x800135 <activeStack+0x1>
    2dc4:	0e 94 40 14 	call	0x2880	; 0x2880 <dispatch>
    2dc8:	8d 81       	ldd	r24, Y+5	; 0x05
    2dca:	88 23       	and	r24, r24
    2dcc:	09 f0       	breq	.+2      	; 0x2dd0 <async+0x30c>
    2dce:	78 94       	sei
    2dd0:	8e 81       	ldd	r24, Y+6	; 0x06
    2dd2:	9f 81       	ldd	r25, Y+7	; 0x07
    2dd4:	65 96       	adiw	r28, 0x15	; 21
    2dd6:	0f b6       	in	r0, 0x3f	; 63
    2dd8:	f8 94       	cli
    2dda:	de bf       	out	0x3e, r29	; 62
    2ddc:	0f be       	out	0x3f, r0	; 63
    2dde:	cd bf       	out	0x3d, r28	; 61
    2de0:	df 91       	pop	r29
    2de2:	cf 91       	pop	r28
    2de4:	1f 91       	pop	r17
    2de6:	0f 91       	pop	r16
    2de8:	ff 90       	pop	r15
    2dea:	ef 90       	pop	r14
    2dec:	df 90       	pop	r13
    2dee:	cf 90       	pop	r12
    2df0:	08 95       	ret

00002df2 <sync>:
    2df2:	cf 93       	push	r28
    2df4:	df 93       	push	r29
    2df6:	cd b7       	in	r28, 0x3d	; 61
    2df8:	de b7       	in	r29, 0x3e	; 62
    2dfa:	2c 97       	sbiw	r28, 0x0c	; 12
    2dfc:	0f b6       	in	r0, 0x3f	; 63
    2dfe:	f8 94       	cli
    2e00:	de bf       	out	0x3e, r29	; 62
    2e02:	0f be       	out	0x3f, r0	; 63
    2e04:	cd bf       	out	0x3d, r28	; 61
    2e06:	98 87       	std	Y+8, r25	; 0x08
    2e08:	8f 83       	std	Y+7, r24	; 0x07
    2e0a:	7a 87       	std	Y+10, r23	; 0x0a
    2e0c:	69 87       	std	Y+9, r22	; 0x09
    2e0e:	5c 87       	std	Y+12, r21	; 0x0c
    2e10:	4b 87       	std	Y+11, r20	; 0x0b
    2e12:	8f e5       	ldi	r24, 0x5F	; 95
    2e14:	90 e0       	ldi	r25, 0x00	; 0
    2e16:	fc 01       	movw	r30, r24
    2e18:	80 81       	ld	r24, Z
    2e1a:	80 78       	andi	r24, 0x80	; 128
    2e1c:	8b 83       	std	Y+3, r24	; 0x03
    2e1e:	f8 94       	cli
    2e20:	8f 81       	ldd	r24, Y+7	; 0x07
    2e22:	98 85       	ldd	r25, Y+8	; 0x08
    2e24:	fc 01       	movw	r30, r24
    2e26:	80 81       	ld	r24, Z
    2e28:	91 81       	ldd	r25, Z+1	; 0x01
    2e2a:	9a 83       	std	Y+2, r25	; 0x02
    2e2c:	89 83       	std	Y+1, r24	; 0x01
    2e2e:	89 81       	ldd	r24, Y+1	; 0x01
    2e30:	9a 81       	ldd	r25, Y+2	; 0x02
    2e32:	89 2b       	or	r24, r25
    2e34:	09 f4       	brne	.+2      	; 0x2e38 <sync+0x46>
    2e36:	5a c0       	rjmp	.+180    	; 0x2eec <sync+0xfa>
    2e38:	0a c0       	rjmp	.+20     	; 0x2e4e <sync+0x5c>
    2e3a:	89 81       	ldd	r24, Y+1	; 0x01
    2e3c:	9a 81       	ldd	r25, Y+2	; 0x02
    2e3e:	fc 01       	movw	r30, r24
    2e40:	84 81       	ldd	r24, Z+4	; 0x04
    2e42:	95 81       	ldd	r25, Z+5	; 0x05
    2e44:	fc 01       	movw	r30, r24
    2e46:	80 81       	ld	r24, Z
    2e48:	91 81       	ldd	r25, Z+1	; 0x01
    2e4a:	9a 83       	std	Y+2, r25	; 0x02
    2e4c:	89 83       	std	Y+1, r24	; 0x01
    2e4e:	89 81       	ldd	r24, Y+1	; 0x01
    2e50:	9a 81       	ldd	r25, Y+2	; 0x02
    2e52:	fc 01       	movw	r30, r24
    2e54:	84 81       	ldd	r24, Z+4	; 0x04
    2e56:	95 81       	ldd	r25, Z+5	; 0x05
    2e58:	89 2b       	or	r24, r25
    2e5a:	79 f7       	brne	.-34     	; 0x2e3a <sync+0x48>
    2e5c:	80 91 36 01 	lds	r24, 0x0136	; 0x800136 <current>
    2e60:	90 91 37 01 	lds	r25, 0x0137	; 0x800137 <current+0x1>
    2e64:	29 81       	ldd	r18, Y+1	; 0x01
    2e66:	3a 81       	ldd	r19, Y+2	; 0x02
    2e68:	28 17       	cp	r18, r24
    2e6a:	39 07       	cpc	r19, r25
    2e6c:	19 f0       	breq	.+6      	; 0x2e74 <sync+0x82>
    2e6e:	8b 81       	ldd	r24, Y+3	; 0x03
    2e70:	88 23       	and	r24, r24
    2e72:	39 f4       	brne	.+14     	; 0x2e82 <sync+0x90>
    2e74:	8b 81       	ldd	r24, Y+3	; 0x03
    2e76:	88 23       	and	r24, r24
    2e78:	09 f0       	breq	.+2      	; 0x2e7c <sync+0x8a>
    2e7a:	78 94       	sei
    2e7c:	8f ef       	ldi	r24, 0xFF	; 255
    2e7e:	9f ef       	ldi	r25, 0xFF	; 255
    2e80:	83 c0       	rjmp	.+262    	; 0x2f88 <sync+0x196>
    2e82:	8f 81       	ldd	r24, Y+7	; 0x07
    2e84:	98 85       	ldd	r25, Y+8	; 0x08
    2e86:	fc 01       	movw	r30, r24
    2e88:	82 81       	ldd	r24, Z+2	; 0x02
    2e8a:	93 81       	ldd	r25, Z+3	; 0x03
    2e8c:	89 2b       	or	r24, r25
    2e8e:	41 f0       	breq	.+16     	; 0x2ea0 <sync+0xae>
    2e90:	8f 81       	ldd	r24, Y+7	; 0x07
    2e92:	98 85       	ldd	r25, Y+8	; 0x08
    2e94:	fc 01       	movw	r30, r24
    2e96:	82 81       	ldd	r24, Z+2	; 0x02
    2e98:	93 81       	ldd	r25, Z+3	; 0x03
    2e9a:	fc 01       	movw	r30, r24
    2e9c:	15 82       	std	Z+5, r1	; 0x05
    2e9e:	14 82       	std	Z+4, r1	; 0x04
    2ea0:	20 91 36 01 	lds	r18, 0x0136	; 0x800136 <current>
    2ea4:	30 91 37 01 	lds	r19, 0x0137	; 0x800137 <current+0x1>
    2ea8:	8f 81       	ldd	r24, Y+7	; 0x07
    2eaa:	98 85       	ldd	r25, Y+8	; 0x08
    2eac:	fc 01       	movw	r30, r24
    2eae:	33 83       	std	Z+3, r19	; 0x03
    2eb0:	22 83       	std	Z+2, r18	; 0x02
    2eb2:	80 91 36 01 	lds	r24, 0x0136	; 0x800136 <current>
    2eb6:	90 91 37 01 	lds	r25, 0x0137	; 0x800137 <current+0x1>
    2eba:	2f 81       	ldd	r18, Y+7	; 0x07
    2ebc:	38 85       	ldd	r19, Y+8	; 0x08
    2ebe:	fc 01       	movw	r30, r24
    2ec0:	35 83       	std	Z+5, r19	; 0x05
    2ec2:	24 83       	std	Z+4, r18	; 0x04
    2ec4:	89 81       	ldd	r24, Y+1	; 0x01
    2ec6:	9a 81       	ldd	r25, Y+2	; 0x02
    2ec8:	0e 94 40 14 	call	0x2880	; 0x2880 <dispatch>
    2ecc:	80 91 36 01 	lds	r24, 0x0136	; 0x800136 <current>
    2ed0:	90 91 37 01 	lds	r25, 0x0137	; 0x800137 <current+0x1>
    2ed4:	fc 01       	movw	r30, r24
    2ed6:	82 81       	ldd	r24, Z+2	; 0x02
    2ed8:	93 81       	ldd	r25, Z+3	; 0x03
    2eda:	89 2b       	or	r24, r25
    2edc:	39 f4       	brne	.+14     	; 0x2eec <sync+0xfa>
    2ede:	8b 81       	ldd	r24, Y+3	; 0x03
    2ee0:	88 23       	and	r24, r24
    2ee2:	09 f0       	breq	.+2      	; 0x2ee6 <sync+0xf4>
    2ee4:	78 94       	sei
    2ee6:	80 e0       	ldi	r24, 0x00	; 0
    2ee8:	90 e0       	ldi	r25, 0x00	; 0
    2eea:	4e c0       	rjmp	.+156    	; 0x2f88 <sync+0x196>
    2eec:	20 91 36 01 	lds	r18, 0x0136	; 0x800136 <current>
    2ef0:	30 91 37 01 	lds	r19, 0x0137	; 0x800137 <current+0x1>
    2ef4:	8f 81       	ldd	r24, Y+7	; 0x07
    2ef6:	98 85       	ldd	r25, Y+8	; 0x08
    2ef8:	fc 01       	movw	r30, r24
    2efa:	31 83       	std	Z+1, r19	; 0x01
    2efc:	20 83       	st	Z, r18
    2efe:	8b 81       	ldd	r24, Y+3	; 0x03
    2f00:	88 23       	and	r24, r24
    2f02:	41 f0       	breq	.+16     	; 0x2f14 <sync+0x122>
    2f04:	8f 81       	ldd	r24, Y+7	; 0x07
    2f06:	98 85       	ldd	r25, Y+8	; 0x08
    2f08:	fc 01       	movw	r30, r24
    2f0a:	82 81       	ldd	r24, Z+2	; 0x02
    2f0c:	93 81       	ldd	r25, Z+3	; 0x03
    2f0e:	01 97       	sbiw	r24, 0x01	; 1
    2f10:	09 f0       	breq	.+2      	; 0x2f14 <sync+0x122>
    2f12:	78 94       	sei
    2f14:	4b 85       	ldd	r20, Y+11	; 0x0b
    2f16:	5c 85       	ldd	r21, Y+12	; 0x0c
    2f18:	8f 81       	ldd	r24, Y+7	; 0x07
    2f1a:	98 85       	ldd	r25, Y+8	; 0x08
    2f1c:	29 85       	ldd	r18, Y+9	; 0x09
    2f1e:	3a 85       	ldd	r19, Y+10	; 0x0a
    2f20:	ba 01       	movw	r22, r20
    2f22:	f9 01       	movw	r30, r18
    2f24:	09 95       	icall
    2f26:	9d 83       	std	Y+5, r25	; 0x05
    2f28:	8c 83       	std	Y+4, r24	; 0x04
    2f2a:	8f e5       	ldi	r24, 0x5F	; 95
    2f2c:	90 e0       	ldi	r25, 0x00	; 0
    2f2e:	fc 01       	movw	r30, r24
    2f30:	80 81       	ld	r24, Z
    2f32:	80 78       	andi	r24, 0x80	; 128
    2f34:	8e 83       	std	Y+6, r24	; 0x06
    2f36:	f8 94       	cli
    2f38:	8f 81       	ldd	r24, Y+7	; 0x07
    2f3a:	98 85       	ldd	r25, Y+8	; 0x08
    2f3c:	fc 01       	movw	r30, r24
    2f3e:	11 82       	std	Z+1, r1	; 0x01
    2f40:	10 82       	st	Z, r1
    2f42:	8f 81       	ldd	r24, Y+7	; 0x07
    2f44:	98 85       	ldd	r25, Y+8	; 0x08
    2f46:	fc 01       	movw	r30, r24
    2f48:	82 81       	ldd	r24, Z+2	; 0x02
    2f4a:	93 81       	ldd	r25, Z+3	; 0x03
    2f4c:	9a 83       	std	Y+2, r25	; 0x02
    2f4e:	89 83       	std	Y+1, r24	; 0x01
    2f50:	89 81       	ldd	r24, Y+1	; 0x01
    2f52:	9a 81       	ldd	r25, Y+2	; 0x02
    2f54:	89 2b       	or	r24, r25
    2f56:	91 f0       	breq	.+36     	; 0x2f7c <sync+0x18a>
    2f58:	89 81       	ldd	r24, Y+1	; 0x01
    2f5a:	9a 81       	ldd	r25, Y+2	; 0x02
    2f5c:	01 97       	sbiw	r24, 0x01	; 1
    2f5e:	71 f0       	breq	.+28     	; 0x2f7c <sync+0x18a>
    2f60:	8f 81       	ldd	r24, Y+7	; 0x07
    2f62:	98 85       	ldd	r25, Y+8	; 0x08
    2f64:	fc 01       	movw	r30, r24
    2f66:	13 82       	std	Z+3, r1	; 0x03
    2f68:	12 82       	std	Z+2, r1	; 0x02
    2f6a:	89 81       	ldd	r24, Y+1	; 0x01
    2f6c:	9a 81       	ldd	r25, Y+2	; 0x02
    2f6e:	fc 01       	movw	r30, r24
    2f70:	15 82       	std	Z+5, r1	; 0x05
    2f72:	14 82       	std	Z+4, r1	; 0x04
    2f74:	89 81       	ldd	r24, Y+1	; 0x01
    2f76:	9a 81       	ldd	r25, Y+2	; 0x02
    2f78:	0e 94 40 14 	call	0x2880	; 0x2880 <dispatch>
    2f7c:	8b 81       	ldd	r24, Y+3	; 0x03
    2f7e:	88 23       	and	r24, r24
    2f80:	09 f0       	breq	.+2      	; 0x2f84 <sync+0x192>
    2f82:	78 94       	sei
    2f84:	8c 81       	ldd	r24, Y+4	; 0x04
    2f86:	9d 81       	ldd	r25, Y+5	; 0x05
    2f88:	2c 96       	adiw	r28, 0x0c	; 12
    2f8a:	0f b6       	in	r0, 0x3f	; 63
    2f8c:	f8 94       	cli
    2f8e:	de bf       	out	0x3e, r29	; 62
    2f90:	0f be       	out	0x3f, r0	; 63
    2f92:	cd bf       	out	0x3d, r28	; 61
    2f94:	df 91       	pop	r29
    2f96:	cf 91       	pop	r28
    2f98:	08 95       	ret

00002f9a <initialize>:
    2f9a:	cf 93       	push	r28
    2f9c:	df 93       	push	r29
    2f9e:	00 d0       	rcall	.+0      	; 0x2fa0 <initialize+0x6>
    2fa0:	cd b7       	in	r28, 0x3d	; 61
    2fa2:	de b7       	in	r29, 0x3e	; 62
    2fa4:	1a 82       	std	Y+2, r1	; 0x02
    2fa6:	19 82       	std	Y+1, r1	; 0x01
    2fa8:	1e c0       	rjmp	.+60     	; 0x2fe6 <initialize+0x4c>
    2faa:	89 81       	ldd	r24, Y+1	; 0x01
    2fac:	9a 81       	ldd	r25, Y+2	; 0x02
    2fae:	01 96       	adiw	r24, 0x01	; 1
    2fb0:	82 95       	swap	r24
    2fb2:	92 95       	swap	r25
    2fb4:	90 7f       	andi	r25, 0xF0	; 240
    2fb6:	98 27       	eor	r25, r24
    2fb8:	80 7f       	andi	r24, 0xF0	; 240
    2fba:	98 27       	eor	r25, r24
    2fbc:	9c 01       	movw	r18, r24
    2fbe:	25 5e       	subi	r18, 0xE5	; 229
    2fc0:	3d 4f       	sbci	r19, 0xFD	; 253
    2fc2:	89 81       	ldd	r24, Y+1	; 0x01
    2fc4:	9a 81       	ldd	r25, Y+2	; 0x02
    2fc6:	82 95       	swap	r24
    2fc8:	92 95       	swap	r25
    2fca:	90 7f       	andi	r25, 0xF0	; 240
    2fcc:	98 27       	eor	r25, r24
    2fce:	80 7f       	andi	r24, 0xF0	; 240
    2fd0:	98 27       	eor	r25, r24
    2fd2:	85 5e       	subi	r24, 0xE5	; 229
    2fd4:	9d 4f       	sbci	r25, 0xFD	; 253
    2fd6:	fc 01       	movw	r30, r24
    2fd8:	31 83       	std	Z+1, r19	; 0x01
    2fda:	20 83       	st	Z, r18
    2fdc:	89 81       	ldd	r24, Y+1	; 0x01
    2fde:	9a 81       	ldd	r25, Y+2	; 0x02
    2fe0:	01 96       	adiw	r24, 0x01	; 1
    2fe2:	9a 83       	std	Y+2, r25	; 0x02
    2fe4:	89 83       	std	Y+1, r24	; 0x01
    2fe6:	89 81       	ldd	r24, Y+1	; 0x01
    2fe8:	9a 81       	ldd	r25, Y+2	; 0x02
    2fea:	0e 97       	sbiw	r24, 0x0e	; 14
    2fec:	f4 f2       	brlt	.-68     	; 0x2faa <initialize+0x10>
    2fee:	10 92 fc 02 	sts	0x02FC, r1	; 0x8002fc <messages+0xe1>
    2ff2:	10 92 fb 02 	sts	0x02FB, r1	; 0x8002fb <messages+0xe0>
    2ff6:	1a 82       	std	Y+2, r1	; 0x02
    2ff8:	19 82       	std	Y+1, r1	; 0x01
    2ffa:	20 c0       	rjmp	.+64     	; 0x303c <initialize+0xa2>
    2ffc:	89 81       	ldd	r24, Y+1	; 0x01
    2ffe:	9a 81       	ldd	r25, Y+2	; 0x02
    3000:	9c 01       	movw	r18, r24
    3002:	2f 5f       	subi	r18, 0xFF	; 255
    3004:	3f 4f       	sbci	r19, 0xFF	; 255
    3006:	4d e1       	ldi	r20, 0x1D	; 29
    3008:	42 9f       	mul	r20, r18
    300a:	c0 01       	movw	r24, r0
    300c:	43 9f       	mul	r20, r19
    300e:	90 0d       	add	r25, r0
    3010:	11 24       	eor	r1, r1
    3012:	9c 01       	movw	r18, r24
    3014:	2a 59       	subi	r18, 0x9A	; 154
    3016:	3e 4f       	sbci	r19, 0xFE	; 254
    3018:	49 81       	ldd	r20, Y+1	; 0x01
    301a:	5a 81       	ldd	r21, Y+2	; 0x02
    301c:	6d e1       	ldi	r22, 0x1D	; 29
    301e:	64 9f       	mul	r22, r20
    3020:	c0 01       	movw	r24, r0
    3022:	65 9f       	mul	r22, r21
    3024:	90 0d       	add	r25, r0
    3026:	11 24       	eor	r1, r1
    3028:	8a 59       	subi	r24, 0x9A	; 154
    302a:	9e 4f       	sbci	r25, 0xFE	; 254
    302c:	fc 01       	movw	r30, r24
    302e:	31 83       	std	Z+1, r19	; 0x01
    3030:	20 83       	st	Z, r18
    3032:	89 81       	ldd	r24, Y+1	; 0x01
    3034:	9a 81       	ldd	r25, Y+2	; 0x02
    3036:	01 96       	adiw	r24, 0x01	; 1
    3038:	9a 83       	std	Y+2, r25	; 0x02
    303a:	89 83       	std	Y+1, r24	; 0x01
    303c:	89 81       	ldd	r24, Y+1	; 0x01
    303e:	9a 81       	ldd	r25, Y+2	; 0x02
    3040:	03 97       	sbiw	r24, 0x03	; 3
    3042:	e4 f2       	brlt	.-72     	; 0x2ffc <initialize+0x62>
    3044:	10 92 be 01 	sts	0x01BE, r1	; 0x8001be <threads+0x58>
    3048:	10 92 bd 01 	sts	0x01BD, r1	; 0x8001bd <threads+0x57>
    304c:	1a 82       	std	Y+2, r1	; 0x02
    304e:	19 82       	std	Y+1, r1	; 0x01
    3050:	66 c0       	rjmp	.+204    	; 0x311e <initialize+0x184>
    3052:	29 81       	ldd	r18, Y+1	; 0x01
    3054:	3a 81       	ldd	r19, Y+2	; 0x02
    3056:	4d e1       	ldi	r20, 0x1D	; 29
    3058:	42 9f       	mul	r20, r18
    305a:	c0 01       	movw	r24, r0
    305c:	43 9f       	mul	r20, r19
    305e:	90 0d       	add	r25, r0
    3060:	11 24       	eor	r1, r1
    3062:	06 96       	adiw	r24, 0x06	; 6
    3064:	8a 59       	subi	r24, 0x9A	; 154
    3066:	9e 4f       	sbci	r25, 0xFE	; 254
    3068:	0e 94 92 19 	call	0x3324	; 0x3324 <setjmp>
    306c:	29 81       	ldd	r18, Y+1	; 0x01
    306e:	3a 81       	ldd	r19, Y+2	; 0x02
    3070:	4d e1       	ldi	r20, 0x1D	; 29
    3072:	42 9f       	mul	r20, r18
    3074:	c0 01       	movw	r24, r0
    3076:	43 9f       	mul	r20, r19
    3078:	90 0d       	add	r25, r0
    307a:	11 24       	eor	r1, r1
    307c:	06 96       	adiw	r24, 0x06	; 6
    307e:	8a 59       	subi	r24, 0x9A	; 154
    3080:	9e 4f       	sbci	r25, 0xFE	; 254
    3082:	40 96       	adiw	r24, 0x10	; 16
    3084:	49 81       	ldd	r20, Y+1	; 0x01
    3086:	5a 81       	ldd	r21, Y+2	; 0x02
    3088:	60 e6       	ldi	r22, 0x60	; 96
    308a:	64 9f       	mul	r22, r20
    308c:	90 01       	movw	r18, r0
    308e:	65 9f       	mul	r22, r21
    3090:	30 0d       	add	r19, r0
    3092:	11 24       	eor	r1, r1
    3094:	25 5f       	subi	r18, 0xF5	; 245
    3096:	3c 4f       	sbci	r19, 0xFC	; 252
    3098:	24 5a       	subi	r18, 0xA4	; 164
    309a:	3f 4f       	sbci	r19, 0xFF	; 255
    309c:	fc 01       	movw	r30, r24
    309e:	31 83       	std	Z+1, r19	; 0x01
    30a0:	20 83       	st	Z, r18
    30a2:	29 81       	ldd	r18, Y+1	; 0x01
    30a4:	3a 81       	ldd	r19, Y+2	; 0x02
    30a6:	4d e1       	ldi	r20, 0x1D	; 29
    30a8:	42 9f       	mul	r20, r18
    30aa:	c0 01       	movw	r24, r0
    30ac:	43 9f       	mul	r20, r19
    30ae:	90 0d       	add	r25, r0
    30b0:	11 24       	eor	r1, r1
    30b2:	06 96       	adiw	r24, 0x06	; 6
    30b4:	8a 59       	subi	r24, 0x9A	; 154
    30b6:	9e 4f       	sbci	r25, 0xFE	; 254
    30b8:	42 96       	adiw	r24, 0x12	; 18
    30ba:	49 81       	ldd	r20, Y+1	; 0x01
    30bc:	5a 81       	ldd	r21, Y+2	; 0x02
    30be:	60 e6       	ldi	r22, 0x60	; 96
    30c0:	64 9f       	mul	r22, r20
    30c2:	90 01       	movw	r18, r0
    30c4:	65 9f       	mul	r22, r21
    30c6:	30 0d       	add	r19, r0
    30c8:	11 24       	eor	r1, r1
    30ca:	25 5f       	subi	r18, 0xF5	; 245
    30cc:	3c 4f       	sbci	r19, 0xFC	; 252
    30ce:	24 5a       	subi	r18, 0xA4	; 164
    30d0:	3f 4f       	sbci	r19, 0xFF	; 255
    30d2:	fc 01       	movw	r30, r24
    30d4:	31 83       	std	Z+1, r19	; 0x01
    30d6:	20 83       	st	Z, r18
    30d8:	29 81       	ldd	r18, Y+1	; 0x01
    30da:	3a 81       	ldd	r19, Y+2	; 0x02
    30dc:	4d e1       	ldi	r20, 0x1D	; 29
    30de:	42 9f       	mul	r20, r18
    30e0:	c0 01       	movw	r24, r0
    30e2:	43 9f       	mul	r20, r19
    30e4:	90 0d       	add	r25, r0
    30e6:	11 24       	eor	r1, r1
    30e8:	06 96       	adiw	r24, 0x06	; 6
    30ea:	8a 59       	subi	r24, 0x9A	; 154
    30ec:	9e 4f       	sbci	r25, 0xFE	; 254
    30ee:	45 96       	adiw	r24, 0x15	; 21
    30f0:	23 e6       	ldi	r18, 0x63	; 99
    30f2:	34 e1       	ldi	r19, 0x14	; 20
    30f4:	fc 01       	movw	r30, r24
    30f6:	31 83       	std	Z+1, r19	; 0x01
    30f8:	20 83       	st	Z, r18
    30fa:	29 81       	ldd	r18, Y+1	; 0x01
    30fc:	3a 81       	ldd	r19, Y+2	; 0x02
    30fe:	4d e1       	ldi	r20, 0x1D	; 29
    3100:	42 9f       	mul	r20, r18
    3102:	c0 01       	movw	r24, r0
    3104:	43 9f       	mul	r20, r19
    3106:	90 0d       	add	r25, r0
    3108:	11 24       	eor	r1, r1
    310a:	86 59       	subi	r24, 0x96	; 150
    310c:	9e 4f       	sbci	r25, 0xFE	; 254
    310e:	fc 01       	movw	r30, r24
    3110:	11 82       	std	Z+1, r1	; 0x01
    3112:	10 82       	st	Z, r1
    3114:	89 81       	ldd	r24, Y+1	; 0x01
    3116:	9a 81       	ldd	r25, Y+2	; 0x02
    3118:	01 96       	adiw	r24, 0x01	; 1
    311a:	9a 83       	std	Y+2, r25	; 0x02
    311c:	89 83       	std	Y+1, r24	; 0x01
    311e:	89 81       	ldd	r24, Y+1	; 0x01
    3120:	9a 81       	ldd	r25, Y+2	; 0x02
    3122:	04 97       	sbiw	r24, 0x04	; 4
    3124:	0c f4       	brge	.+2      	; 0x3128 <initialize+0x18e>
    3126:	95 cf       	rjmp	.-214    	; 0x3052 <initialize+0xb8>
    3128:	10 92 ff 01 	sts	0x01FF, r1	; 0x8001ff <thread0+0x1>
    312c:	10 92 fe 01 	sts	0x01FE, r1	; 0x8001fe <thread0>
    3130:	10 92 03 02 	sts	0x0203, r1	; 0x800203 <thread0+0x5>
    3134:	10 92 02 02 	sts	0x0202, r1	; 0x800202 <thread0+0x4>
    3138:	10 92 01 02 	sts	0x0201, r1	; 0x800201 <thread0+0x3>
    313c:	10 92 00 02 	sts	0x0200, r1	; 0x800200 <thread0+0x2>
    3140:	81 e6       	ldi	r24, 0x61	; 97
    3142:	90 e0       	ldi	r25, 0x00	; 0
    3144:	20 e8       	ldi	r18, 0x80	; 128
    3146:	fc 01       	movw	r30, r24
    3148:	20 83       	st	Z, r18
    314a:	81 e6       	ldi	r24, 0x61	; 97
    314c:	90 e0       	ldi	r25, 0x00	; 0
    314e:	fc 01       	movw	r30, r24
    3150:	10 82       	st	Z, r1
    3152:	84 e8       	ldi	r24, 0x84	; 132
    3154:	90 e0       	ldi	r25, 0x00	; 0
    3156:	fc 01       	movw	r30, r24
    3158:	11 82       	std	Z+1, r1	; 0x01
    315a:	10 82       	st	Z, r1
    315c:	81 e8       	ldi	r24, 0x81	; 129
    315e:	90 e0       	ldi	r25, 0x00	; 0
    3160:	24 e0       	ldi	r18, 0x04	; 4
    3162:	fc 01       	movw	r30, r24
    3164:	20 83       	st	Z, r18
    3166:	8f e6       	ldi	r24, 0x6F	; 111
    3168:	90 e0       	ldi	r25, 0x00	; 0
    316a:	21 e0       	ldi	r18, 0x01	; 1
    316c:	fc 01       	movw	r30, r24
    316e:	20 83       	st	Z, r18
    3170:	00 00       	nop
    3172:	0f 90       	pop	r0
    3174:	0f 90       	pop	r0
    3176:	df 91       	pop	r29
    3178:	cf 91       	pop	r28
    317a:	08 95       	ret

0000317c <install>:
    317c:	cf 93       	push	r28
    317e:	df 93       	push	r29
    3180:	00 d0       	rcall	.+0      	; 0x3182 <install+0x6>
    3182:	00 d0       	rcall	.+0      	; 0x3184 <install+0x8>
    3184:	00 d0       	rcall	.+0      	; 0x3186 <install+0xa>
    3186:	cd b7       	in	r28, 0x3d	; 61
    3188:	de b7       	in	r29, 0x3e	; 62
    318a:	9b 83       	std	Y+3, r25	; 0x03
    318c:	8a 83       	std	Y+2, r24	; 0x02
    318e:	7d 83       	std	Y+5, r23	; 0x05
    3190:	6c 83       	std	Y+4, r22	; 0x04
    3192:	4e 83       	std	Y+6, r20	; 0x06
    3194:	8e 81       	ldd	r24, Y+6	; 0x06
    3196:	82 31       	cpi	r24, 0x12	; 18
    3198:	50 f5       	brcc	.+84     	; 0x31ee <install+0x72>
    319a:	8f e5       	ldi	r24, 0x5F	; 95
    319c:	90 e0       	ldi	r25, 0x00	; 0
    319e:	fc 01       	movw	r30, r24
    31a0:	80 81       	ld	r24, Z
    31a2:	80 78       	andi	r24, 0x80	; 128
    31a4:	89 83       	std	Y+1, r24	; 0x01
    31a6:	f8 94       	cli
    31a8:	8e 81       	ldd	r24, Y+6	; 0x06
    31aa:	88 2f       	mov	r24, r24
    31ac:	90 e0       	ldi	r25, 0x00	; 0
    31ae:	88 0f       	add	r24, r24
    31b0:	99 1f       	adc	r25, r25
    31b2:	8e 5b       	subi	r24, 0xBE	; 190
    31b4:	9e 4f       	sbci	r25, 0xFE	; 254
    31b6:	2a 81       	ldd	r18, Y+2	; 0x02
    31b8:	3b 81       	ldd	r19, Y+3	; 0x03
    31ba:	fc 01       	movw	r30, r24
    31bc:	31 83       	std	Z+1, r19	; 0x01
    31be:	20 83       	st	Z, r18
    31c0:	8e 81       	ldd	r24, Y+6	; 0x06
    31c2:	88 2f       	mov	r24, r24
    31c4:	90 e0       	ldi	r25, 0x00	; 0
    31c6:	88 0f       	add	r24, r24
    31c8:	99 1f       	adc	r25, r25
    31ca:	86 52       	subi	r24, 0x26	; 38
    31cc:	9e 4f       	sbci	r25, 0xFE	; 254
    31ce:	2c 81       	ldd	r18, Y+4	; 0x04
    31d0:	3d 81       	ldd	r19, Y+5	; 0x05
    31d2:	fc 01       	movw	r30, r24
    31d4:	31 83       	std	Z+1, r19	; 0x01
    31d6:	20 83       	st	Z, r18
    31d8:	8a 81       	ldd	r24, Y+2	; 0x02
    31da:	9b 81       	ldd	r25, Y+3	; 0x03
    31dc:	21 e0       	ldi	r18, 0x01	; 1
    31de:	30 e0       	ldi	r19, 0x00	; 0
    31e0:	fc 01       	movw	r30, r24
    31e2:	33 83       	std	Z+3, r19	; 0x03
    31e4:	22 83       	std	Z+2, r18	; 0x02
    31e6:	89 81       	ldd	r24, Y+1	; 0x01
    31e8:	88 23       	and	r24, r24
    31ea:	09 f0       	breq	.+2      	; 0x31ee <install+0x72>
    31ec:	78 94       	sei
    31ee:	00 00       	nop
    31f0:	26 96       	adiw	r28, 0x06	; 6
    31f2:	0f b6       	in	r0, 0x3f	; 63
    31f4:	f8 94       	cli
    31f6:	de bf       	out	0x3e, r29	; 62
    31f8:	0f be       	out	0x3f, r0	; 63
    31fa:	cd bf       	out	0x3d, r28	; 61
    31fc:	df 91       	pop	r29
    31fe:	cf 91       	pop	r28
    3200:	08 95       	ret

00003202 <tinytimber>:
    3202:	cf 92       	push	r12
    3204:	df 92       	push	r13
    3206:	ef 92       	push	r14
    3208:	ff 92       	push	r15
    320a:	0f 93       	push	r16
    320c:	1f 93       	push	r17
    320e:	cf 93       	push	r28
    3210:	df 93       	push	r29
    3212:	cd b7       	in	r28, 0x3d	; 61
    3214:	de b7       	in	r29, 0x3e	; 62
    3216:	27 97       	sbiw	r28, 0x07	; 7
    3218:	0f b6       	in	r0, 0x3f	; 63
    321a:	f8 94       	cli
    321c:	de bf       	out	0x3e, r29	; 62
    321e:	0f be       	out	0x3f, r0	; 63
    3220:	cd bf       	out	0x3d, r28	; 61
    3222:	9b 83       	std	Y+3, r25	; 0x03
    3224:	8a 83       	std	Y+2, r24	; 0x02
    3226:	7d 83       	std	Y+5, r23	; 0x05
    3228:	6c 83       	std	Y+4, r22	; 0x04
    322a:	5f 83       	std	Y+7, r21	; 0x07
    322c:	4e 83       	std	Y+6, r20	; 0x06
    322e:	8f e5       	ldi	r24, 0x5F	; 95
    3230:	90 e0       	ldi	r25, 0x00	; 0
    3232:	fc 01       	movw	r30, r24
    3234:	80 81       	ld	r24, Z
    3236:	80 78       	andi	r24, 0x80	; 128
    3238:	89 83       	std	Y+1, r24	; 0x01
    323a:	f8 94       	cli
    323c:	0e 94 cd 17 	call	0x2f9a	; 0x2f9a <initialize>
    3240:	78 94       	sei
    3242:	8c 81       	ldd	r24, Y+4	; 0x04
    3244:	9d 81       	ldd	r25, Y+5	; 0x05
    3246:	89 2b       	or	r24, r25
    3248:	89 f0       	breq	.+34     	; 0x326c <tinytimber+0x6a>
    324a:	4e 81       	ldd	r20, Y+6	; 0x06
    324c:	5f 81       	ldd	r21, Y+7	; 0x07
    324e:	2c 81       	ldd	r18, Y+4	; 0x04
    3250:	3d 81       	ldd	r19, Y+5	; 0x05
    3252:	8a 81       	ldd	r24, Y+2	; 0x02
    3254:	9b 81       	ldd	r25, Y+3	; 0x03
    3256:	6a 01       	movw	r12, r20
    3258:	79 01       	movw	r14, r18
    325a:	8c 01       	movw	r16, r24
    325c:	20 e0       	ldi	r18, 0x00	; 0
    325e:	30 e0       	ldi	r19, 0x00	; 0
    3260:	a9 01       	movw	r20, r18
    3262:	60 e0       	ldi	r22, 0x00	; 0
    3264:	70 e0       	ldi	r23, 0x00	; 0
    3266:	cb 01       	movw	r24, r22
    3268:	0e 94 62 15 	call	0x2ac4	; 0x2ac4 <async>
    326c:	8f e5       	ldi	r24, 0x5F	; 95
    326e:	90 e0       	ldi	r25, 0x00	; 0
    3270:	fc 01       	movw	r30, r24
    3272:	80 81       	ld	r24, Z
    3274:	80 78       	andi	r24, 0x80	; 128
    3276:	89 83       	std	Y+1, r24	; 0x01
    3278:	f8 94       	cli
    327a:	0e 94 00 15 	call	0x2a00	; 0x2a00 <idle>
    327e:	80 e0       	ldi	r24, 0x00	; 0
    3280:	90 e0       	ldi	r25, 0x00	; 0
    3282:	27 96       	adiw	r28, 0x07	; 7
    3284:	0f b6       	in	r0, 0x3f	; 63
    3286:	f8 94       	cli
    3288:	de bf       	out	0x3e, r29	; 62
    328a:	0f be       	out	0x3f, r0	; 63
    328c:	cd bf       	out	0x3d, r28	; 61
    328e:	df 91       	pop	r29
    3290:	cf 91       	pop	r28
    3292:	1f 91       	pop	r17
    3294:	0f 91       	pop	r16
    3296:	ff 90       	pop	r15
    3298:	ef 90       	pop	r14
    329a:	df 90       	pop	r13
    329c:	cf 90       	pop	r12
    329e:	08 95       	ret

000032a0 <__divmodhi4>:
    32a0:	97 fb       	bst	r25, 7
    32a2:	07 2e       	mov	r0, r23
    32a4:	16 f4       	brtc	.+4      	; 0x32aa <__divmodhi4+0xa>
    32a6:	00 94       	com	r0
    32a8:	07 d0       	rcall	.+14     	; 0x32b8 <__divmodhi4_neg1>
    32aa:	77 fd       	sbrc	r23, 7
    32ac:	09 d0       	rcall	.+18     	; 0x32c0 <__divmodhi4_neg2>
    32ae:	0e 94 6f 19 	call	0x32de	; 0x32de <__udivmodhi4>
    32b2:	07 fc       	sbrc	r0, 7
    32b4:	05 d0       	rcall	.+10     	; 0x32c0 <__divmodhi4_neg2>
    32b6:	3e f4       	brtc	.+14     	; 0x32c6 <__divmodhi4_exit>

000032b8 <__divmodhi4_neg1>:
    32b8:	90 95       	com	r25
    32ba:	81 95       	neg	r24
    32bc:	9f 4f       	sbci	r25, 0xFF	; 255
    32be:	08 95       	ret

000032c0 <__divmodhi4_neg2>:
    32c0:	70 95       	com	r23
    32c2:	61 95       	neg	r22
    32c4:	7f 4f       	sbci	r23, 0xFF	; 255

000032c6 <__divmodhi4_exit>:
    32c6:	08 95       	ret

000032c8 <__muluhisi3>:
    32c8:	0e 94 83 19 	call	0x3306	; 0x3306 <__umulhisi3>
    32cc:	a5 9f       	mul	r26, r21
    32ce:	90 0d       	add	r25, r0
    32d0:	b4 9f       	mul	r27, r20
    32d2:	90 0d       	add	r25, r0
    32d4:	a4 9f       	mul	r26, r20
    32d6:	80 0d       	add	r24, r0
    32d8:	91 1d       	adc	r25, r1
    32da:	11 24       	eor	r1, r1
    32dc:	08 95       	ret

000032de <__udivmodhi4>:
    32de:	aa 1b       	sub	r26, r26
    32e0:	bb 1b       	sub	r27, r27
    32e2:	51 e1       	ldi	r21, 0x11	; 17
    32e4:	07 c0       	rjmp	.+14     	; 0x32f4 <__udivmodhi4_ep>

000032e6 <__udivmodhi4_loop>:
    32e6:	aa 1f       	adc	r26, r26
    32e8:	bb 1f       	adc	r27, r27
    32ea:	a6 17       	cp	r26, r22
    32ec:	b7 07       	cpc	r27, r23
    32ee:	10 f0       	brcs	.+4      	; 0x32f4 <__udivmodhi4_ep>
    32f0:	a6 1b       	sub	r26, r22
    32f2:	b7 0b       	sbc	r27, r23

000032f4 <__udivmodhi4_ep>:
    32f4:	88 1f       	adc	r24, r24
    32f6:	99 1f       	adc	r25, r25
    32f8:	5a 95       	dec	r21
    32fa:	a9 f7       	brne	.-22     	; 0x32e6 <__udivmodhi4_loop>
    32fc:	80 95       	com	r24
    32fe:	90 95       	com	r25
    3300:	bc 01       	movw	r22, r24
    3302:	cd 01       	movw	r24, r26
    3304:	08 95       	ret

00003306 <__umulhisi3>:
    3306:	a2 9f       	mul	r26, r18
    3308:	b0 01       	movw	r22, r0
    330a:	b3 9f       	mul	r27, r19
    330c:	c0 01       	movw	r24, r0
    330e:	a3 9f       	mul	r26, r19
    3310:	70 0d       	add	r23, r0
    3312:	81 1d       	adc	r24, r1
    3314:	11 24       	eor	r1, r1
    3316:	91 1d       	adc	r25, r1
    3318:	b2 9f       	mul	r27, r18
    331a:	70 0d       	add	r23, r0
    331c:	81 1d       	adc	r24, r1
    331e:	11 24       	eor	r1, r1
    3320:	91 1d       	adc	r25, r1
    3322:	08 95       	ret

00003324 <setjmp>:
    3324:	dc 01       	movw	r26, r24
    3326:	2d 92       	st	X+, r2
    3328:	3d 92       	st	X+, r3
    332a:	4d 92       	st	X+, r4
    332c:	5d 92       	st	X+, r5
    332e:	6d 92       	st	X+, r6
    3330:	7d 92       	st	X+, r7
    3332:	8d 92       	st	X+, r8
    3334:	9d 92       	st	X+, r9
    3336:	ad 92       	st	X+, r10
    3338:	bd 92       	st	X+, r11
    333a:	cd 92       	st	X+, r12
    333c:	dd 92       	st	X+, r13
    333e:	ed 92       	st	X+, r14
    3340:	fd 92       	st	X+, r15
    3342:	0d 93       	st	X+, r16
    3344:	1d 93       	st	X+, r17
    3346:	cd 93       	st	X+, r28
    3348:	dd 93       	st	X+, r29
    334a:	ff 91       	pop	r31
    334c:	ef 91       	pop	r30
    334e:	8d b7       	in	r24, 0x3d	; 61
    3350:	8d 93       	st	X+, r24
    3352:	8e b7       	in	r24, 0x3e	; 62
    3354:	8d 93       	st	X+, r24
    3356:	8f b7       	in	r24, 0x3f	; 63
    3358:	8d 93       	st	X+, r24
    335a:	ed 93       	st	X+, r30
    335c:	fd 93       	st	X+, r31
    335e:	88 27       	eor	r24, r24
    3360:	99 27       	eor	r25, r25
    3362:	09 94       	ijmp

00003364 <longjmp>:
    3364:	dc 01       	movw	r26, r24
    3366:	cb 01       	movw	r24, r22
    3368:	81 30       	cpi	r24, 0x01	; 1
    336a:	91 05       	cpc	r25, r1
    336c:	81 1d       	adc	r24, r1
    336e:	2d 90       	ld	r2, X+
    3370:	3d 90       	ld	r3, X+
    3372:	4d 90       	ld	r4, X+
    3374:	5d 90       	ld	r5, X+
    3376:	6d 90       	ld	r6, X+
    3378:	7d 90       	ld	r7, X+
    337a:	8d 90       	ld	r8, X+
    337c:	9d 90       	ld	r9, X+
    337e:	ad 90       	ld	r10, X+
    3380:	bd 90       	ld	r11, X+
    3382:	cd 90       	ld	r12, X+
    3384:	dd 90       	ld	r13, X+
    3386:	ed 90       	ld	r14, X+
    3388:	fd 90       	ld	r15, X+
    338a:	0d 91       	ld	r16, X+
    338c:	1d 91       	ld	r17, X+
    338e:	cd 91       	ld	r28, X+
    3390:	dd 91       	ld	r29, X+
    3392:	ed 91       	ld	r30, X+
    3394:	fd 91       	ld	r31, X+
    3396:	0d 90       	ld	r0, X+
    3398:	f8 94       	cli
    339a:	fe bf       	out	0x3e, r31	; 62
    339c:	0f be       	out	0x3f, r0	; 63
    339e:	ed bf       	out	0x3d, r30	; 61
    33a0:	ed 91       	ld	r30, X+
    33a2:	fd 91       	ld	r31, X+
    33a4:	09 94       	ijmp

000033a6 <_exit>:
    33a6:	f8 94       	cli

000033a8 <__stop_program>:
    33a8:	ff cf       	rjmp	.-2      	; 0x33a8 <__stop_program>
