
Lab4-Proj.elf:     file format elf32-avr

Sections:
Idx Name          Size      VMA       LMA       File off  Algn
  0 .data         00000038  00800100  00002f7e  00003012  2**0
                  CONTENTS, ALLOC, LOAD, DATA
  1 .text         00002f7e  00000000  00000000  00000094  2**1
                  CONTENTS, ALLOC, LOAD, READONLY, CODE
  2 .bss          00000353  00800138  00800138  0000304a  2**0
                  ALLOC
  3 .comment      00000030  00000000  00000000  0000304a  2**0
                  CONTENTS, READONLY
  4 .note.gnu.avr.deviceinfo 00000040  00000000  00000000  0000307c  2**2
                  CONTENTS, READONLY
  5 .debug_info   000007b6  00000000  00000000  000030bc  2**0
                  CONTENTS, READONLY, DEBUGGING
  6 .debug_abbrev 0000074b  00000000  00000000  00003872  2**0
                  CONTENTS, READONLY, DEBUGGING
  7 .debug_line   00000122  00000000  00000000  00003fbd  2**0
                  CONTENTS, READONLY, DEBUGGING
  8 .debug_str    000002b3  00000000  00000000  000040df  2**0
                  CONTENTS, READONLY, DEBUGGING

Disassembly of section .text:

00000000 <__vectors>:
       0:	0c 94 2e 00 	jmp	0x5c	; 0x5c <__ctors_end>
       4:	0c 94 b0 05 	jmp	0xb60	; 0xb60 <__vector_1>
       8:	0c 94 38 06 	jmp	0xc70	; 0xc70 <__vector_2>
       c:	0c 94 c0 06 	jmp	0xd80	; 0xd80 <__vector_3>
      10:	0c 94 48 07 	jmp	0xe90	; 0xe90 <__vector_4>
      14:	0c 94 d0 07 	jmp	0xfa0	; 0xfa0 <__vector_5>
      18:	0c 94 4b 00 	jmp	0x96	; 0x96 <__bad_interrupt>
      1c:	0c 94 2f 11 	jmp	0x225e	; 0x225e <__vector_7>
      20:	0c 94 4b 00 	jmp	0x96	; 0x96 <__bad_interrupt>
      24:	0c 94 a1 10 	jmp	0x2142	; 0x2142 <__vector_9>
      28:	0c 94 58 08 	jmp	0x10b0	; 0x10b0 <__vector_10>
      2c:	0c 94 e0 08 	jmp	0x11c0	; 0x11c0 <__vector_11>
      30:	0c 94 68 09 	jmp	0x12d0	; 0x12d0 <__vector_12>
      34:	0c 94 f0 09 	jmp	0x13e0	; 0x13e0 <__vector_13>
      38:	0c 94 78 0a 	jmp	0x14f0	; 0x14f0 <__vector_14>
      3c:	0c 94 00 0b 	jmp	0x1600	; 0x1600 <__vector_15>
      40:	0c 94 88 0b 	jmp	0x1710	; 0x1710 <__vector_16>
      44:	0c 94 10 0c 	jmp	0x1820	; 0x1820 <__vector_17>
      48:	0c 94 98 0c 	jmp	0x1930	; 0x1930 <__vector_18>
      4c:	0c 94 20 0d 	jmp	0x1a40	; 0x1a40 <__vector_19>
      50:	0c 94 a8 0d 	jmp	0x1b50	; 0x1b50 <__vector_20>
      54:	0c 94 30 0e 	jmp	0x1c60	; 0x1c60 <__vector_21>
      58:	0c 94 b8 0e 	jmp	0x1d70	; 0x1d70 <__vector_22>

0000005c <__ctors_end>:
      5c:	11 24       	eor	r1, r1
      5e:	1f be       	out	0x3f, r1	; 63
      60:	cf ef       	ldi	r28, 0xFF	; 255
      62:	d4 e0       	ldi	r29, 0x04	; 4
      64:	de bf       	out	0x3e, r29	; 62
      66:	cd bf       	out	0x3d, r28	; 61

00000068 <__do_copy_data>:
      68:	11 e0       	ldi	r17, 0x01	; 1
      6a:	a0 e0       	ldi	r26, 0x00	; 0
      6c:	b1 e0       	ldi	r27, 0x01	; 1
      6e:	ee e7       	ldi	r30, 0x7E	; 126
      70:	ff e2       	ldi	r31, 0x2F	; 47
      72:	02 c0       	rjmp	.+4      	; 0x78 <__do_copy_data+0x10>
      74:	05 90       	lpm	r0, Z+
      76:	0d 92       	st	X+, r0
      78:	a8 33       	cpi	r26, 0x38	; 56
      7a:	b1 07       	cpc	r27, r17
      7c:	d9 f7       	brne	.-10     	; 0x74 <__do_copy_data+0xc>

0000007e <__do_clear_bss>:
      7e:	24 e0       	ldi	r18, 0x04	; 4
      80:	a8 e3       	ldi	r26, 0x38	; 56
      82:	b1 e0       	ldi	r27, 0x01	; 1
      84:	01 c0       	rjmp	.+2      	; 0x88 <.do_clear_bss_start>

00000086 <.do_clear_bss_loop>:
      86:	1d 92       	st	X+, r1

00000088 <.do_clear_bss_start>:
      88:	ab 38       	cpi	r26, 0x8B	; 139
      8a:	b2 07       	cpc	r27, r18
      8c:	e1 f7       	brne	.-8      	; 0x86 <.do_clear_bss_loop>
      8e:	0e 94 de 03 	call	0x7bc	; 0x7bc <main>
      92:	0c 94 bd 17 	jmp	0x2f7a	; 0x2f7a <_exit>

00000096 <__bad_interrupt>:
      96:	0c 94 00 00 	jmp	0	; 0x0 <__vectors>

0000009a <Switch>:
      9a:	cf 92       	push	r12
      9c:	df 92       	push	r13
      9e:	ef 92       	push	r14
      a0:	ff 92       	push	r15
      a2:	0f 93       	push	r16
      a4:	1f 93       	push	r17
      a6:	fc 01       	movw	r30, r24
      a8:	26 81       	ldd	r18, Z+6	; 0x06
      aa:	21 11       	cpse	r18, r1
      ac:	0a c0       	rjmp	.+20     	; 0xc2 <Switch+0x28>
      ae:	21 e0       	ldi	r18, 0x01	; 1
      b0:	fc 01       	movw	r30, r24
      b2:	26 83       	std	Z+6, r18	; 0x06
      b4:	1f 91       	pop	r17
      b6:	0f 91       	pop	r16
      b8:	ff 90       	pop	r15
      ba:	ef 90       	pop	r14
      bc:	df 90       	pop	r13
      be:	cf 90       	pop	r12
      c0:	08 95       	ret
      c2:	16 82       	std	Z+6, r1	; 0x06
      c4:	04 81       	ldd	r16, Z+4	; 0x04
      c6:	15 81       	ldd	r17, Z+5	; 0x05
      c8:	c1 2c       	mov	r12, r1
      ca:	d1 2c       	mov	r13, r1
      cc:	8b ee       	ldi	r24, 0xEB	; 235
      ce:	e8 2e       	mov	r14, r24
      d0:	80 e0       	ldi	r24, 0x00	; 0
      d2:	f8 2e       	mov	r15, r24
      d4:	20 e0       	ldi	r18, 0x00	; 0
      d6:	30 e0       	ldi	r19, 0x00	; 0
      d8:	a9 01       	movw	r20, r18
      da:	60 e0       	ldi	r22, 0x00	; 0
      dc:	70 e0       	ldi	r23, 0x00	; 0
      de:	cb 01       	movw	r24, r22
      e0:	0e 94 50 13 	call	0x26a0	; 0x26a0 <async>
      e4:	1f 91       	pop	r17
      e6:	0f 91       	pop	r16
      e8:	ff 90       	pop	r15
      ea:	ef 90       	pop	r14
      ec:	df 90       	pop	r13
      ee:	cf 90       	pop	r12
      f0:	08 95       	ret

000000f2 <Change>:
      f2:	cf 92       	push	r12
      f4:	df 92       	push	r13
      f6:	ef 92       	push	r14
      f8:	ff 92       	push	r15
      fa:	0f 93       	push	r16
      fc:	1f 93       	push	r17
      fe:	fc 01       	movw	r30, r24
     100:	04 81       	ldd	r16, Z+4	; 0x04
     102:	15 81       	ldd	r17, Z+5	; 0x05
     104:	c1 2c       	mov	r12, r1
     106:	d1 2c       	mov	r13, r1
     108:	89 e1       	ldi	r24, 0x19	; 25
     10a:	e8 2e       	mov	r14, r24
     10c:	81 e0       	ldi	r24, 0x01	; 1
     10e:	f8 2e       	mov	r15, r24
     110:	20 e0       	ldi	r18, 0x00	; 0
     112:	30 e0       	ldi	r19, 0x00	; 0
     114:	a9 01       	movw	r20, r18
     116:	60 e0       	ldi	r22, 0x00	; 0
     118:	70 e0       	ldi	r23, 0x00	; 0
     11a:	cb 01       	movw	r24, r22
     11c:	0e 94 50 13 	call	0x26a0	; 0x26a0 <async>
     120:	1f 91       	pop	r17
     122:	0f 91       	pop	r16
     124:	ff 90       	pop	r15
     126:	ef 90       	pop	r14
     128:	df 90       	pop	r13
     12a:	cf 90       	pop	r12
     12c:	08 95       	ret

0000012e <holdJoyStick>:
     12e:	cf 92       	push	r12
     130:	df 92       	push	r13
     132:	ef 92       	push	r14
     134:	ff 92       	push	r15
     136:	0f 93       	push	r16
     138:	1f 93       	push	r17
     13a:	cf 93       	push	r28
     13c:	df 93       	push	r29
     13e:	ec 01       	movw	r28, r24
     140:	1f 99       	sbic	0x03, 7	; 3
     142:	1e c0       	rjmp	.+60     	; 0x180 <holdJoyStick+0x52>
     144:	0c 81       	ldd	r16, Y+4	; 0x04
     146:	1d 81       	ldd	r17, Y+5	; 0x05
     148:	c1 2c       	mov	r12, r1
     14a:	d1 2c       	mov	r13, r1
     14c:	2c ea       	ldi	r18, 0xAC	; 172
     14e:	e2 2e       	mov	r14, r18
     150:	21 e0       	ldi	r18, 0x01	; 1
     152:	f2 2e       	mov	r15, r18
     154:	20 e0       	ldi	r18, 0x00	; 0
     156:	30 e0       	ldi	r19, 0x00	; 0
     158:	a9 01       	movw	r20, r18
     15a:	60 e0       	ldi	r22, 0x00	; 0
     15c:	70 e0       	ldi	r23, 0x00	; 0
     15e:	cb 01       	movw	r24, r22
     160:	0e 94 50 13 	call	0x26a0	; 0x26a0 <async>
     164:	37 e9       	ldi	r19, 0x97	; 151
     166:	e3 2e       	mov	r14, r19
     168:	30 e0       	ldi	r19, 0x00	; 0
     16a:	f3 2e       	mov	r15, r19
     16c:	8e 01       	movw	r16, r28
     16e:	20 e0       	ldi	r18, 0x00	; 0
     170:	30 e0       	ldi	r19, 0x00	; 0
     172:	a9 01       	movw	r20, r18
     174:	6a e1       	ldi	r22, 0x1A	; 26
     176:	76 e0       	ldi	r23, 0x06	; 6
     178:	80 e0       	ldi	r24, 0x00	; 0
     17a:	90 e0       	ldi	r25, 0x00	; 0
     17c:	0e 94 50 13 	call	0x26a0	; 0x26a0 <async>
     180:	1e 99       	sbic	0x03, 6	; 3
     182:	1e c0       	rjmp	.+60     	; 0x1c0 <holdJoyStick+0x92>
     184:	0c 81       	ldd	r16, Y+4	; 0x04
     186:	1d 81       	ldd	r17, Y+5	; 0x05
     188:	c1 2c       	mov	r12, r1
     18a:	d1 2c       	mov	r13, r1
     18c:	85 e8       	ldi	r24, 0x85	; 133
     18e:	e8 2e       	mov	r14, r24
     190:	81 e0       	ldi	r24, 0x01	; 1
     192:	f8 2e       	mov	r15, r24
     194:	20 e0       	ldi	r18, 0x00	; 0
     196:	30 e0       	ldi	r19, 0x00	; 0
     198:	a9 01       	movw	r20, r18
     19a:	60 e0       	ldi	r22, 0x00	; 0
     19c:	70 e0       	ldi	r23, 0x00	; 0
     19e:	cb 01       	movw	r24, r22
     1a0:	0e 94 50 13 	call	0x26a0	; 0x26a0 <async>
     1a4:	97 e9       	ldi	r25, 0x97	; 151
     1a6:	e9 2e       	mov	r14, r25
     1a8:	90 e0       	ldi	r25, 0x00	; 0
     1aa:	f9 2e       	mov	r15, r25
     1ac:	8e 01       	movw	r16, r28
     1ae:	20 e0       	ldi	r18, 0x00	; 0
     1b0:	30 e0       	ldi	r19, 0x00	; 0
     1b2:	a9 01       	movw	r20, r18
     1b4:	6a e1       	ldi	r22, 0x1A	; 26
     1b6:	76 e0       	ldi	r23, 0x06	; 6
     1b8:	80 e0       	ldi	r24, 0x00	; 0
     1ba:	90 e0       	ldi	r25, 0x00	; 0
     1bc:	0e 94 50 13 	call	0x26a0	; 0x26a0 <async>
     1c0:	80 e0       	ldi	r24, 0x00	; 0
     1c2:	90 e0       	ldi	r25, 0x00	; 0
     1c4:	df 91       	pop	r29
     1c6:	cf 91       	pop	r28
     1c8:	1f 91       	pop	r17
     1ca:	0f 91       	pop	r16
     1cc:	ff 90       	pop	r15
     1ce:	ef 90       	pop	r14
     1d0:	df 90       	pop	r13
     1d2:	cf 90       	pop	r12
     1d4:	08 95       	ret

000001d6 <joyStickHorizontalControll>:
     1d6:	cf 92       	push	r12
     1d8:	df 92       	push	r13
     1da:	ef 92       	push	r14
     1dc:	ff 92       	push	r15
     1de:	0f 93       	push	r16
     1e0:	1f 93       	push	r17
     1e2:	ac 01       	movw	r20, r24
     1e4:	9c b1       	in	r25, 0x0c	; 12
     1e6:	2c b1       	in	r18, 0x0c	; 12
     1e8:	31 e0       	ldi	r19, 0x01	; 1
     1ea:	96 95       	lsr	r25
     1ec:	91 70       	andi	r25, 0x01	; 1
     1ee:	93 13       	cpse	r25, r19
     1f0:	0e c0       	rjmp	.+28     	; 0x20e <__EEPROM_REGION_LENGTH__+0xe>
     1f2:	26 fb       	bst	r18, 6
     1f4:	22 27       	eor	r18, r18
     1f6:	20 f9       	bld	r18, 0
     1f8:	23 13       	cpse	r18, r19
     1fa:	09 c0       	rjmp	.+18     	; 0x20e <__EEPROM_REGION_LENGTH__+0xe>
     1fc:	80 e0       	ldi	r24, 0x00	; 0
     1fe:	90 e0       	ldi	r25, 0x00	; 0
     200:	1f 91       	pop	r17
     202:	0f 91       	pop	r16
     204:	ff 90       	pop	r15
     206:	ef 90       	pop	r14
     208:	df 90       	pop	r13
     20a:	cf 90       	pop	r12
     20c:	08 95       	ret
     20e:	fa 01       	movw	r30, r20
     210:	04 81       	ldd	r16, Z+4	; 0x04
     212:	15 81       	ldd	r17, Z+5	; 0x05
     214:	c1 2c       	mov	r12, r1
     216:	d1 2c       	mov	r13, r1
     218:	83 ed       	ldi	r24, 0xD3	; 211
     21a:	e8 2e       	mov	r14, r24
     21c:	81 e0       	ldi	r24, 0x01	; 1
     21e:	f8 2e       	mov	r15, r24
     220:	20 e0       	ldi	r18, 0x00	; 0
     222:	30 e0       	ldi	r19, 0x00	; 0
     224:	a9 01       	movw	r20, r18
     226:	60 e0       	ldi	r22, 0x00	; 0
     228:	70 e0       	ldi	r23, 0x00	; 0
     22a:	cb 01       	movw	r24, r22
     22c:	0e 94 50 13 	call	0x26a0	; 0x26a0 <async>
     230:	e5 cf       	rjmp	.-54     	; 0x1fc <joyStickHorizontalControll+0x26>

00000232 <joyStickVerticalControll>:
     232:	cf 92       	push	r12
     234:	df 92       	push	r13
     236:	ef 92       	push	r14
     238:	ff 92       	push	r15
     23a:	0f 93       	push	r16
     23c:	1f 93       	push	r17
     23e:	cf 93       	push	r28
     240:	df 93       	push	r29
     242:	ec 01       	movw	r28, r24
     244:	1f 99       	sbic	0x03, 7	; 3
     246:	1d c0       	rjmp	.+58     	; 0x282 <joyStickVerticalControll+0x50>
     248:	c1 2c       	mov	r12, r1
     24a:	d1 2c       	mov	r13, r1
     24c:	37 e9       	ldi	r19, 0x97	; 151
     24e:	e3 2e       	mov	r14, r19
     250:	30 e0       	ldi	r19, 0x00	; 0
     252:	f3 2e       	mov	r15, r19
     254:	8c 01       	movw	r16, r24
     256:	20 e0       	ldi	r18, 0x00	; 0
     258:	30 e0       	ldi	r19, 0x00	; 0
     25a:	a9 01       	movw	r20, r18
     25c:	60 e0       	ldi	r22, 0x00	; 0
     25e:	70 e0       	ldi	r23, 0x00	; 0
     260:	cb 01       	movw	r24, r22
     262:	0e 94 50 13 	call	0x26a0	; 0x26a0 <async>
     266:	0c 81       	ldd	r16, Y+4	; 0x04
     268:	1d 81       	ldd	r17, Y+5	; 0x05
     26a:	4c ea       	ldi	r20, 0xAC	; 172
     26c:	e4 2e       	mov	r14, r20
     26e:	41 e0       	ldi	r20, 0x01	; 1
     270:	f4 2e       	mov	r15, r20
     272:	20 e0       	ldi	r18, 0x00	; 0
     274:	30 e0       	ldi	r19, 0x00	; 0
     276:	a9 01       	movw	r20, r18
     278:	60 e0       	ldi	r22, 0x00	; 0
     27a:	70 e0       	ldi	r23, 0x00	; 0
     27c:	cb 01       	movw	r24, r22
     27e:	0e 94 50 13 	call	0x26a0	; 0x26a0 <async>
     282:	1e 9b       	sbis	0x03, 6	; 3
     284:	12 c0       	rjmp	.+36     	; 0x2aa <joyStickVerticalControll+0x78>
     286:	1c 99       	sbic	0x03, 4	; 3
     288:	05 c0       	rjmp	.+10     	; 0x294 <joyStickVerticalControll+0x62>
     28a:	8e 81       	ldd	r24, Y+6	; 0x06
     28c:	81 11       	cpse	r24, r1
     28e:	2b c0       	rjmp	.+86     	; 0x2e6 <joyStickVerticalControll+0xb4>
     290:	81 e0       	ldi	r24, 0x01	; 1
     292:	8e 83       	std	Y+6, r24	; 0x06
     294:	80 e0       	ldi	r24, 0x00	; 0
     296:	90 e0       	ldi	r25, 0x00	; 0
     298:	df 91       	pop	r29
     29a:	cf 91       	pop	r28
     29c:	1f 91       	pop	r17
     29e:	0f 91       	pop	r16
     2a0:	ff 90       	pop	r15
     2a2:	ef 90       	pop	r14
     2a4:	df 90       	pop	r13
     2a6:	cf 90       	pop	r12
     2a8:	08 95       	ret
     2aa:	c1 2c       	mov	r12, r1
     2ac:	d1 2c       	mov	r13, r1
     2ae:	97 e9       	ldi	r25, 0x97	; 151
     2b0:	e9 2e       	mov	r14, r25
     2b2:	90 e0       	ldi	r25, 0x00	; 0
     2b4:	f9 2e       	mov	r15, r25
     2b6:	8e 01       	movw	r16, r28
     2b8:	20 e0       	ldi	r18, 0x00	; 0
     2ba:	30 e0       	ldi	r19, 0x00	; 0
     2bc:	a9 01       	movw	r20, r18
     2be:	60 e0       	ldi	r22, 0x00	; 0
     2c0:	70 e0       	ldi	r23, 0x00	; 0
     2c2:	cb 01       	movw	r24, r22
     2c4:	0e 94 50 13 	call	0x26a0	; 0x26a0 <async>
     2c8:	0c 81       	ldd	r16, Y+4	; 0x04
     2ca:	1d 81       	ldd	r17, Y+5	; 0x05
     2cc:	25 e8       	ldi	r18, 0x85	; 133
     2ce:	e2 2e       	mov	r14, r18
     2d0:	21 e0       	ldi	r18, 0x01	; 1
     2d2:	f2 2e       	mov	r15, r18
     2d4:	20 e0       	ldi	r18, 0x00	; 0
     2d6:	30 e0       	ldi	r19, 0x00	; 0
     2d8:	a9 01       	movw	r20, r18
     2da:	60 e0       	ldi	r22, 0x00	; 0
     2dc:	70 e0       	ldi	r23, 0x00	; 0
     2de:	cb 01       	movw	r24, r22
     2e0:	0e 94 50 13 	call	0x26a0	; 0x26a0 <async>
     2e4:	d0 cf       	rjmp	.-96     	; 0x286 <joyStickVerticalControll+0x54>
     2e6:	1e 82       	std	Y+6, r1	; 0x06
     2e8:	0c 81       	ldd	r16, Y+4	; 0x04
     2ea:	1d 81       	ldd	r17, Y+5	; 0x05
     2ec:	c1 2c       	mov	r12, r1
     2ee:	d1 2c       	mov	r13, r1
     2f0:	80 ee       	ldi	r24, 0xE0	; 224
     2f2:	e8 2e       	mov	r14, r24
     2f4:	81 e0       	ldi	r24, 0x01	; 1
     2f6:	f8 2e       	mov	r15, r24
     2f8:	20 e0       	ldi	r18, 0x00	; 0
     2fa:	30 e0       	ldi	r19, 0x00	; 0
     2fc:	a9 01       	movw	r20, r18
     2fe:	60 e0       	ldi	r22, 0x00	; 0
     300:	70 e0       	ldi	r23, 0x00	; 0
     302:	cb 01       	movw	r24, r22
     304:	0e 94 50 13 	call	0x26a0	; 0x26a0 <async>
     308:	c5 cf       	rjmp	.-118    	; 0x294 <joyStickVerticalControll+0x62>

0000030a <freqUp>:
     30a:	cf 92       	push	r12
     30c:	df 92       	push	r13
     30e:	ef 92       	push	r14
     310:	ff 92       	push	r15
     312:	0f 93       	push	r16
     314:	1f 93       	push	r17
     316:	fc 01       	movw	r30, r24
     318:	24 81       	ldd	r18, Z+4	; 0x04
     31a:	21 11       	cpse	r18, r1
     31c:	1a c0       	rjmp	.+52     	; 0x352 <freqUp+0x48>
     31e:	fc 01       	movw	r30, r24
     320:	07 81       	ldd	r16, Z+7	; 0x07
     322:	10 85       	ldd	r17, Z+8	; 0x08
     324:	c1 2c       	mov	r12, r1
     326:	d1 2c       	mov	r13, r1
     328:	82 ef       	ldi	r24, 0xF2	; 242
     32a:	e8 2e       	mov	r14, r24
     32c:	84 e0       	ldi	r24, 0x04	; 4
     32e:	f8 2e       	mov	r15, r24
     330:	20 e0       	ldi	r18, 0x00	; 0
     332:	30 e0       	ldi	r19, 0x00	; 0
     334:	a9 01       	movw	r20, r18
     336:	60 e0       	ldi	r22, 0x00	; 0
     338:	70 e0       	ldi	r23, 0x00	; 0
     33a:	cb 01       	movw	r24, r22
     33c:	0e 94 50 13 	call	0x26a0	; 0x26a0 <async>
     340:	80 e0       	ldi	r24, 0x00	; 0
     342:	90 e0       	ldi	r25, 0x00	; 0
     344:	1f 91       	pop	r17
     346:	0f 91       	pop	r16
     348:	ff 90       	pop	r15
     34a:	ef 90       	pop	r14
     34c:	df 90       	pop	r13
     34e:	cf 90       	pop	r12
     350:	08 95       	ret
     352:	05 81       	ldd	r16, Z+5	; 0x05
     354:	16 81       	ldd	r17, Z+6	; 0x06
     356:	e6 cf       	rjmp	.-52     	; 0x324 <freqUp+0x1a>

00000358 <freqDown>:
     358:	cf 92       	push	r12
     35a:	df 92       	push	r13
     35c:	ef 92       	push	r14
     35e:	ff 92       	push	r15
     360:	0f 93       	push	r16
     362:	1f 93       	push	r17
     364:	fc 01       	movw	r30, r24
     366:	24 81       	ldd	r18, Z+4	; 0x04
     368:	21 11       	cpse	r18, r1
     36a:	1a c0       	rjmp	.+52     	; 0x3a0 <freqDown+0x48>
     36c:	fc 01       	movw	r30, r24
     36e:	07 81       	ldd	r16, Z+7	; 0x07
     370:	10 85       	ldd	r17, Z+8	; 0x08
     372:	c1 2c       	mov	r12, r1
     374:	d1 2c       	mov	r13, r1
     376:	83 e2       	ldi	r24, 0x23	; 35
     378:	e8 2e       	mov	r14, r24
     37a:	85 e0       	ldi	r24, 0x05	; 5
     37c:	f8 2e       	mov	r15, r24
     37e:	20 e0       	ldi	r18, 0x00	; 0
     380:	30 e0       	ldi	r19, 0x00	; 0
     382:	a9 01       	movw	r20, r18
     384:	60 e0       	ldi	r22, 0x00	; 0
     386:	70 e0       	ldi	r23, 0x00	; 0
     388:	cb 01       	movw	r24, r22
     38a:	0e 94 50 13 	call	0x26a0	; 0x26a0 <async>
     38e:	80 e0       	ldi	r24, 0x00	; 0
     390:	90 e0       	ldi	r25, 0x00	; 0
     392:	1f 91       	pop	r17
     394:	0f 91       	pop	r16
     396:	ff 90       	pop	r15
     398:	ef 90       	pop	r14
     39a:	df 90       	pop	r13
     39c:	cf 90       	pop	r12
     39e:	08 95       	ret
     3a0:	05 81       	ldd	r16, Z+5	; 0x05
     3a2:	16 81       	ldd	r17, Z+6	; 0x06
     3a4:	e6 cf       	rjmp	.-52     	; 0x372 <freqDown+0x1a>

000003a6 <switchState>:
     3a6:	fc 01       	movw	r30, r24
     3a8:	24 81       	ldd	r18, Z+4	; 0x04
     3aa:	91 e0       	ldi	r25, 0x01	; 1
     3ac:	29 27       	eor	r18, r25
     3ae:	24 83       	std	Z+4, r18	; 0x04
     3b0:	e9 ef       	ldi	r30, 0xF9	; 249
     3b2:	f0 e0       	ldi	r31, 0x00	; 0
     3b4:	80 81       	ld	r24, Z
     3b6:	98 27       	eor	r25, r24
     3b8:	90 83       	st	Z, r25
     3ba:	80 e0       	ldi	r24, 0x00	; 0
     3bc:	90 e0       	ldi	r25, 0x00	; 0
     3be:	08 95       	ret

000003c0 <press>:
     3c0:	cf 92       	push	r12
     3c2:	df 92       	push	r13
     3c4:	ef 92       	push	r14
     3c6:	ff 92       	push	r15
     3c8:	0f 93       	push	r16
     3ca:	1f 93       	push	r17
     3cc:	fc 01       	movw	r30, r24
     3ce:	24 81       	ldd	r18, Z+4	; 0x04
     3d0:	21 11       	cpse	r18, r1
     3d2:	1a c0       	rjmp	.+52     	; 0x408 <__DATA_REGION_LENGTH__+0x8>
     3d4:	fc 01       	movw	r30, r24
     3d6:	07 81       	ldd	r16, Z+7	; 0x07
     3d8:	10 85       	ldd	r17, Z+8	; 0x08
     3da:	c1 2c       	mov	r12, r1
     3dc:	d1 2c       	mov	r13, r1
     3de:	8a e6       	ldi	r24, 0x6A	; 106
     3e0:	e8 2e       	mov	r14, r24
     3e2:	85 e0       	ldi	r24, 0x05	; 5
     3e4:	f8 2e       	mov	r15, r24
     3e6:	20 e0       	ldi	r18, 0x00	; 0
     3e8:	30 e0       	ldi	r19, 0x00	; 0
     3ea:	a9 01       	movw	r20, r18
     3ec:	60 e0       	ldi	r22, 0x00	; 0
     3ee:	70 e0       	ldi	r23, 0x00	; 0
     3f0:	cb 01       	movw	r24, r22
     3f2:	0e 94 50 13 	call	0x26a0	; 0x26a0 <async>
     3f6:	80 e0       	ldi	r24, 0x00	; 0
     3f8:	90 e0       	ldi	r25, 0x00	; 0
     3fa:	1f 91       	pop	r17
     3fc:	0f 91       	pop	r16
     3fe:	ff 90       	pop	r15
     400:	ef 90       	pop	r14
     402:	df 90       	pop	r13
     404:	cf 90       	pop	r12
     406:	08 95       	ret
     408:	05 81       	ldd	r16, Z+5	; 0x05
     40a:	16 81       	ldd	r17, Z+6	; 0x06
     40c:	e6 cf       	rjmp	.-52     	; 0x3da <press+0x1a>

0000040e <startPulse>:
     40e:	cf 92       	push	r12
     410:	df 92       	push	r13
     412:	ef 92       	push	r14
     414:	ff 92       	push	r15
     416:	0f 93       	push	r16
     418:	1f 93       	push	r17
     41a:	cf 93       	push	r28
     41c:	df 93       	push	r29
     41e:	ec 01       	movw	r28, r24
     420:	0d 81       	ldd	r16, Y+5	; 0x05
     422:	1e 81       	ldd	r17, Y+6	; 0x06
     424:	c1 2c       	mov	r12, r1
     426:	d1 2c       	mov	r13, r1
     428:	87 e8       	ldi	r24, 0x87	; 135
     42a:	e8 2e       	mov	r14, r24
     42c:	84 e0       	ldi	r24, 0x04	; 4
     42e:	f8 2e       	mov	r15, r24
     430:	20 e0       	ldi	r18, 0x00	; 0
     432:	30 e0       	ldi	r19, 0x00	; 0
     434:	a9 01       	movw	r20, r18
     436:	60 e0       	ldi	r22, 0x00	; 0
     438:	70 e0       	ldi	r23, 0x00	; 0
     43a:	cb 01       	movw	r24, r22
     43c:	0e 94 50 13 	call	0x26a0	; 0x26a0 <async>
     440:	0f 81       	ldd	r16, Y+7	; 0x07
     442:	18 85       	ldd	r17, Y+8	; 0x08
     444:	20 e0       	ldi	r18, 0x00	; 0
     446:	30 e0       	ldi	r19, 0x00	; 0
     448:	a9 01       	movw	r20, r18
     44a:	60 e0       	ldi	r22, 0x00	; 0
     44c:	70 e0       	ldi	r23, 0x00	; 0
     44e:	cb 01       	movw	r24, r22
     450:	0e 94 50 13 	call	0x26a0	; 0x26a0 <async>
     454:	df 91       	pop	r29
     456:	cf 91       	pop	r28
     458:	1f 91       	pop	r17
     45a:	0f 91       	pop	r16
     45c:	ff 90       	pop	r15
     45e:	ef 90       	pop	r14
     460:	df 90       	pop	r13
     462:	cf 90       	pop	r12
     464:	08 95       	ret

00000466 <INIT>:
     466:	e1 e6       	ldi	r30, 0x61	; 97
     468:	f0 e0       	ldi	r31, 0x00	; 0
     46a:	80 e8       	ldi	r24, 0x80	; 128
     46c:	80 83       	st	Z, r24
     46e:	10 82       	st	Z, r1
     470:	97 eb       	ldi	r25, 0xB7	; 183
     472:	90 93 e5 00 	sts	0x00E5, r25	; 0x8000e5 <__TEXT_REGION_LENGTH__+0x7fc0e5>
     476:	97 e0       	ldi	r25, 0x07	; 7
     478:	90 93 e6 00 	sts	0x00E6, r25	; 0x8000e6 <__TEXT_REGION_LENGTH__+0x7fc0e6>
     47c:	9e e2       	ldi	r25, 0x2E	; 46
     47e:	90 93 e7 00 	sts	0x00E7, r25	; 0x8000e7 <__TEXT_REGION_LENGTH__+0x7fc0e7>
     482:	80 93 e4 00 	sts	0x00E4, r24	; 0x8000e4 <__TEXT_REGION_LENGTH__+0x7fc0e4>
     486:	e9 ef       	ldi	r30, 0xF9	; 249
     488:	f0 e0       	ldi	r31, 0x00	; 0
     48a:	90 81       	ld	r25, Z
     48c:	81 e0       	ldi	r24, 0x01	; 1
     48e:	89 27       	eor	r24, r25
     490:	80 83       	st	Z, r24
     492:	8d b1       	in	r24, 0x0d	; 13
     494:	80 67       	ori	r24, 0x70	; 112
     496:	8d b9       	out	0x0d, r24	; 13
     498:	75 9a       	sbi	0x0e, 5	; 14
     49a:	85 b1       	in	r24, 0x05	; 5
     49c:	80 6d       	ori	r24, 0xD0	; 208
     49e:	85 b9       	out	0x05, r24	; 5
     4a0:	8e b1       	in	r24, 0x0e	; 14
     4a2:	8c 60       	ori	r24, 0x0C	; 12
     4a4:	8e b9       	out	0x0e, r24	; 14
     4a6:	8d b3       	in	r24, 0x1d	; 29
     4a8:	80 6c       	ori	r24, 0xC0	; 192
     4aa:	8d bb       	out	0x1d, r24	; 29
     4ac:	ec e6       	ldi	r30, 0x6C	; 108
     4ae:	f0 e0       	ldi	r31, 0x00	; 0
     4b0:	80 81       	ld	r24, Z
     4b2:	80 6d       	ori	r24, 0xD0	; 208
     4b4:	80 83       	st	Z, r24
     4b6:	eb e6       	ldi	r30, 0x6B	; 107
     4b8:	f0 e0       	ldi	r31, 0x00	; 0
     4ba:	80 81       	ld	r24, Z
     4bc:	8c 60       	ori	r24, 0x0C	; 12
     4be:	80 83       	st	Z, r24
     4c0:	08 95       	ret

000004c2 <writeChar>:
     4c2:	cf 93       	push	r28
     4c4:	df 93       	push	r29
     4c6:	cd b7       	in	r28, 0x3d	; 61
     4c8:	de b7       	in	r29, 0x3e	; 62
     4ca:	29 97       	sbiw	r28, 0x09	; 9
     4cc:	0f b6       	in	r0, 0x3f	; 63
     4ce:	f8 94       	cli
     4d0:	de bf       	out	0x3e, r29	; 62
     4d2:	0f be       	out	0x3f, r0	; 63
     4d4:	cd bf       	out	0x3d, r28	; 61
     4d6:	8f 83       	std	Y+7, r24	; 0x07
     4d8:	79 87       	std	Y+9, r23	; 0x09
     4da:	68 87       	std	Y+8, r22	; 0x08
     4dc:	88 85       	ldd	r24, Y+8	; 0x08
     4de:	99 85       	ldd	r25, Y+9	; 0x09
     4e0:	99 23       	and	r25, r25
     4e2:	0c f4       	brge	.+2      	; 0x4e6 <writeChar+0x24>
     4e4:	09 c1       	rjmp	.+530    	; 0x6f8 <__stack+0x1f9>
     4e6:	88 85       	ldd	r24, Y+8	; 0x08
     4e8:	99 85       	ldd	r25, Y+9	; 0x09
     4ea:	06 97       	sbiw	r24, 0x06	; 6
     4ec:	0c f0       	brlt	.+2      	; 0x4f0 <writeChar+0x2e>
     4ee:	04 c1       	rjmp	.+520    	; 0x6f8 <__stack+0x1f9>
     4f0:	8f 81       	ldd	r24, Y+7	; 0x07
     4f2:	80 33       	cpi	r24, 0x30	; 48
     4f4:	08 f4       	brcc	.+2      	; 0x4f8 <writeChar+0x36>
     4f6:	00 c1       	rjmp	.+512    	; 0x6f8 <__stack+0x1f9>
     4f8:	8f 81       	ldd	r24, Y+7	; 0x07
     4fa:	8a 33       	cpi	r24, 0x3A	; 58
     4fc:	08 f0       	brcs	.+2      	; 0x500 <__stack+0x1>
     4fe:	fc c0       	rjmp	.+504    	; 0x6f8 <__stack+0x1f9>
     500:	88 85       	ldd	r24, Y+8	; 0x08
     502:	99 85       	ldd	r25, Y+9	; 0x09
     504:	88 5d       	subi	r24, 0xD8	; 216
     506:	9e 4f       	sbci	r25, 0xFE	; 254
     508:	fc 01       	movw	r30, r24
     50a:	80 81       	ld	r24, Z
     50c:	88 2f       	mov	r24, r24
     50e:	90 e0       	ldi	r25, 0x00	; 0
     510:	84 51       	subi	r24, 0x14	; 20
     512:	9f 4f       	sbci	r25, 0xFF	; 255
     514:	9c 83       	std	Y+4, r25	; 0x04
     516:	8b 83       	std	Y+3, r24	; 0x03
     518:	8f 81       	ldd	r24, Y+7	; 0x07
     51a:	88 2f       	mov	r24, r24
     51c:	90 e0       	ldi	r25, 0x00	; 0
     51e:	c0 97       	sbiw	r24, 0x30	; 48
     520:	9e 83       	std	Y+6, r25	; 0x06
     522:	8d 83       	std	Y+5, r24	; 0x05
     524:	1a 82       	std	Y+2, r1	; 0x02
     526:	19 82       	std	Y+1, r1	; 0x01
     528:	88 85       	ldd	r24, Y+8	; 0x08
     52a:	99 85       	ldd	r25, Y+9	; 0x09
     52c:	81 70       	andi	r24, 0x01	; 1
     52e:	90 78       	andi	r25, 0x80	; 128
     530:	99 23       	and	r25, r25
     532:	24 f4       	brge	.+8      	; 0x53c <__stack+0x3d>
     534:	01 97       	sbiw	r24, 0x01	; 1
     536:	8e 6f       	ori	r24, 0xFE	; 254
     538:	9f 6f       	ori	r25, 0xFF	; 255
     53a:	01 96       	adiw	r24, 0x01	; 1
     53c:	01 97       	sbiw	r24, 0x01	; 1
     53e:	99 f5       	brne	.+102    	; 0x5a6 <__stack+0xa7>
     540:	84 e0       	ldi	r24, 0x04	; 4
     542:	90 e0       	ldi	r25, 0x00	; 0
     544:	9a 83       	std	Y+2, r25	; 0x02
     546:	89 83       	std	Y+1, r24	; 0x01
     548:	8b 81       	ldd	r24, Y+3	; 0x03
     54a:	9c 81       	ldd	r25, Y+4	; 0x04
     54c:	fc 01       	movw	r30, r24
     54e:	80 81       	ld	r24, Z
     550:	28 2f       	mov	r18, r24
     552:	2f 70       	andi	r18, 0x0F	; 15
     554:	8b 81       	ldd	r24, Y+3	; 0x03
     556:	9c 81       	ldd	r25, Y+4	; 0x04
     558:	fc 01       	movw	r30, r24
     55a:	20 83       	st	Z, r18
     55c:	8b 81       	ldd	r24, Y+3	; 0x03
     55e:	9c 81       	ldd	r25, Y+4	; 0x04
     560:	05 96       	adiw	r24, 0x05	; 5
     562:	2b 81       	ldd	r18, Y+3	; 0x03
     564:	3c 81       	ldd	r19, Y+4	; 0x04
     566:	2b 5f       	subi	r18, 0xFB	; 251
     568:	3f 4f       	sbci	r19, 0xFF	; 255
     56a:	f9 01       	movw	r30, r18
     56c:	20 81       	ld	r18, Z
     56e:	2f 70       	andi	r18, 0x0F	; 15
     570:	fc 01       	movw	r30, r24
     572:	20 83       	st	Z, r18
     574:	8b 81       	ldd	r24, Y+3	; 0x03
     576:	9c 81       	ldd	r25, Y+4	; 0x04
     578:	0a 96       	adiw	r24, 0x0a	; 10
     57a:	2b 81       	ldd	r18, Y+3	; 0x03
     57c:	3c 81       	ldd	r19, Y+4	; 0x04
     57e:	26 5f       	subi	r18, 0xF6	; 246
     580:	3f 4f       	sbci	r19, 0xFF	; 255
     582:	f9 01       	movw	r30, r18
     584:	20 81       	ld	r18, Z
     586:	2f 70       	andi	r18, 0x0F	; 15
     588:	fc 01       	movw	r30, r24
     58a:	20 83       	st	Z, r18
     58c:	8b 81       	ldd	r24, Y+3	; 0x03
     58e:	9c 81       	ldd	r25, Y+4	; 0x04
     590:	0f 96       	adiw	r24, 0x0f	; 15
     592:	2b 81       	ldd	r18, Y+3	; 0x03
     594:	3c 81       	ldd	r19, Y+4	; 0x04
     596:	21 5f       	subi	r18, 0xF1	; 241
     598:	3f 4f       	sbci	r19, 0xFF	; 255
     59a:	f9 01       	movw	r30, r18
     59c:	20 81       	ld	r18, Z
     59e:	2f 70       	andi	r18, 0x0F	; 15
     5a0:	fc 01       	movw	r30, r24
     5a2:	20 83       	st	Z, r18
     5a4:	2e c0       	rjmp	.+92     	; 0x602 <__stack+0x103>
     5a6:	8b 81       	ldd	r24, Y+3	; 0x03
     5a8:	9c 81       	ldd	r25, Y+4	; 0x04
     5aa:	fc 01       	movw	r30, r24
     5ac:	80 81       	ld	r24, Z
     5ae:	28 2f       	mov	r18, r24
     5b0:	20 7f       	andi	r18, 0xF0	; 240
     5b2:	8b 81       	ldd	r24, Y+3	; 0x03
     5b4:	9c 81       	ldd	r25, Y+4	; 0x04
     5b6:	fc 01       	movw	r30, r24
     5b8:	20 83       	st	Z, r18
     5ba:	8b 81       	ldd	r24, Y+3	; 0x03
     5bc:	9c 81       	ldd	r25, Y+4	; 0x04
     5be:	05 96       	adiw	r24, 0x05	; 5
     5c0:	2b 81       	ldd	r18, Y+3	; 0x03
     5c2:	3c 81       	ldd	r19, Y+4	; 0x04
     5c4:	2b 5f       	subi	r18, 0xFB	; 251
     5c6:	3f 4f       	sbci	r19, 0xFF	; 255
     5c8:	f9 01       	movw	r30, r18
     5ca:	20 81       	ld	r18, Z
     5cc:	20 7f       	andi	r18, 0xF0	; 240
     5ce:	fc 01       	movw	r30, r24
     5d0:	20 83       	st	Z, r18
     5d2:	8b 81       	ldd	r24, Y+3	; 0x03
     5d4:	9c 81       	ldd	r25, Y+4	; 0x04
     5d6:	0a 96       	adiw	r24, 0x0a	; 10
     5d8:	2b 81       	ldd	r18, Y+3	; 0x03
     5da:	3c 81       	ldd	r19, Y+4	; 0x04
     5dc:	26 5f       	subi	r18, 0xF6	; 246
     5de:	3f 4f       	sbci	r19, 0xFF	; 255
     5e0:	f9 01       	movw	r30, r18
     5e2:	20 81       	ld	r18, Z
     5e4:	20 7f       	andi	r18, 0xF0	; 240
     5e6:	fc 01       	movw	r30, r24
     5e8:	20 83       	st	Z, r18
     5ea:	8b 81       	ldd	r24, Y+3	; 0x03
     5ec:	9c 81       	ldd	r25, Y+4	; 0x04
     5ee:	0f 96       	adiw	r24, 0x0f	; 15
     5f0:	2b 81       	ldd	r18, Y+3	; 0x03
     5f2:	3c 81       	ldd	r19, Y+4	; 0x04
     5f4:	21 5f       	subi	r18, 0xF1	; 241
     5f6:	3f 4f       	sbci	r19, 0xFF	; 255
     5f8:	f9 01       	movw	r30, r18
     5fa:	20 81       	ld	r18, Z
     5fc:	20 7f       	andi	r18, 0xF0	; 240
     5fe:	fc 01       	movw	r30, r24
     600:	20 83       	st	Z, r18
     602:	8d 81       	ldd	r24, Y+5	; 0x05
     604:	9e 81       	ldd	r25, Y+6	; 0x06
     606:	88 0f       	add	r24, r24
     608:	99 1f       	adc	r25, r25
     60a:	88 0f       	add	r24, r24
     60c:	99 1f       	adc	r25, r25
     60e:	80 50       	subi	r24, 0x00	; 0
     610:	9f 4f       	sbci	r25, 0xFF	; 255
     612:	fc 01       	movw	r30, r24
     614:	80 81       	ld	r24, Z
     616:	88 2f       	mov	r24, r24
     618:	90 e0       	ldi	r25, 0x00	; 0
     61a:	09 80       	ldd	r0, Y+1	; 0x01
     61c:	02 c0       	rjmp	.+4      	; 0x622 <__stack+0x123>
     61e:	88 0f       	add	r24, r24
     620:	99 1f       	adc	r25, r25
     622:	0a 94       	dec	r0
     624:	e2 f7       	brpl	.-8      	; 0x61e <__stack+0x11f>
     626:	28 2f       	mov	r18, r24
     628:	8b 81       	ldd	r24, Y+3	; 0x03
     62a:	9c 81       	ldd	r25, Y+4	; 0x04
     62c:	fc 01       	movw	r30, r24
     62e:	80 81       	ld	r24, Z
     630:	82 2b       	or	r24, r18
     632:	28 2f       	mov	r18, r24
     634:	8b 81       	ldd	r24, Y+3	; 0x03
     636:	9c 81       	ldd	r25, Y+4	; 0x04
     638:	fc 01       	movw	r30, r24
     63a:	20 83       	st	Z, r18
     63c:	8b 81       	ldd	r24, Y+3	; 0x03
     63e:	9c 81       	ldd	r25, Y+4	; 0x04
     640:	05 96       	adiw	r24, 0x05	; 5
     642:	2d 81       	ldd	r18, Y+5	; 0x05
     644:	3e 81       	ldd	r19, Y+6	; 0x06
     646:	22 0f       	add	r18, r18
     648:	33 1f       	adc	r19, r19
     64a:	22 0f       	add	r18, r18
     64c:	33 1f       	adc	r19, r19
     64e:	2f 5f       	subi	r18, 0xFF	; 255
     650:	3e 4f       	sbci	r19, 0xFE	; 254
     652:	f9 01       	movw	r30, r18
     654:	20 81       	ld	r18, Z
     656:	22 2f       	mov	r18, r18
     658:	30 e0       	ldi	r19, 0x00	; 0
     65a:	09 80       	ldd	r0, Y+1	; 0x01
     65c:	02 c0       	rjmp	.+4      	; 0x662 <__stack+0x163>
     65e:	22 0f       	add	r18, r18
     660:	33 1f       	adc	r19, r19
     662:	0a 94       	dec	r0
     664:	e2 f7       	brpl	.-8      	; 0x65e <__stack+0x15f>
     666:	42 2f       	mov	r20, r18
     668:	2b 81       	ldd	r18, Y+3	; 0x03
     66a:	3c 81       	ldd	r19, Y+4	; 0x04
     66c:	2b 5f       	subi	r18, 0xFB	; 251
     66e:	3f 4f       	sbci	r19, 0xFF	; 255
     670:	f9 01       	movw	r30, r18
     672:	20 81       	ld	r18, Z
     674:	24 2b       	or	r18, r20
     676:	fc 01       	movw	r30, r24
     678:	20 83       	st	Z, r18
     67a:	8b 81       	ldd	r24, Y+3	; 0x03
     67c:	9c 81       	ldd	r25, Y+4	; 0x04
     67e:	0a 96       	adiw	r24, 0x0a	; 10
     680:	2d 81       	ldd	r18, Y+5	; 0x05
     682:	3e 81       	ldd	r19, Y+6	; 0x06
     684:	22 0f       	add	r18, r18
     686:	33 1f       	adc	r19, r19
     688:	22 0f       	add	r18, r18
     68a:	33 1f       	adc	r19, r19
     68c:	2e 5f       	subi	r18, 0xFE	; 254
     68e:	3e 4f       	sbci	r19, 0xFE	; 254
     690:	f9 01       	movw	r30, r18
     692:	20 81       	ld	r18, Z
     694:	22 2f       	mov	r18, r18
     696:	30 e0       	ldi	r19, 0x00	; 0
     698:	09 80       	ldd	r0, Y+1	; 0x01
     69a:	02 c0       	rjmp	.+4      	; 0x6a0 <__stack+0x1a1>
     69c:	22 0f       	add	r18, r18
     69e:	33 1f       	adc	r19, r19
     6a0:	0a 94       	dec	r0
     6a2:	e2 f7       	brpl	.-8      	; 0x69c <__stack+0x19d>
     6a4:	42 2f       	mov	r20, r18
     6a6:	2b 81       	ldd	r18, Y+3	; 0x03
     6a8:	3c 81       	ldd	r19, Y+4	; 0x04
     6aa:	26 5f       	subi	r18, 0xF6	; 246
     6ac:	3f 4f       	sbci	r19, 0xFF	; 255
     6ae:	f9 01       	movw	r30, r18
     6b0:	20 81       	ld	r18, Z
     6b2:	24 2b       	or	r18, r20
     6b4:	fc 01       	movw	r30, r24
     6b6:	20 83       	st	Z, r18
     6b8:	8b 81       	ldd	r24, Y+3	; 0x03
     6ba:	9c 81       	ldd	r25, Y+4	; 0x04
     6bc:	0f 96       	adiw	r24, 0x0f	; 15
     6be:	2d 81       	ldd	r18, Y+5	; 0x05
     6c0:	3e 81       	ldd	r19, Y+6	; 0x06
     6c2:	22 0f       	add	r18, r18
     6c4:	33 1f       	adc	r19, r19
     6c6:	22 0f       	add	r18, r18
     6c8:	33 1f       	adc	r19, r19
     6ca:	2d 5f       	subi	r18, 0xFD	; 253
     6cc:	3e 4f       	sbci	r19, 0xFE	; 254
     6ce:	f9 01       	movw	r30, r18
     6d0:	20 81       	ld	r18, Z
     6d2:	22 2f       	mov	r18, r18
     6d4:	30 e0       	ldi	r19, 0x00	; 0
     6d6:	09 80       	ldd	r0, Y+1	; 0x01
     6d8:	02 c0       	rjmp	.+4      	; 0x6de <__stack+0x1df>
     6da:	22 0f       	add	r18, r18
     6dc:	33 1f       	adc	r19, r19
     6de:	0a 94       	dec	r0
     6e0:	e2 f7       	brpl	.-8      	; 0x6da <__stack+0x1db>
     6e2:	42 2f       	mov	r20, r18
     6e4:	2b 81       	ldd	r18, Y+3	; 0x03
     6e6:	3c 81       	ldd	r19, Y+4	; 0x04
     6e8:	21 5f       	subi	r18, 0xF1	; 241
     6ea:	3f 4f       	sbci	r19, 0xFF	; 255
     6ec:	f9 01       	movw	r30, r18
     6ee:	20 81       	ld	r18, Z
     6f0:	24 2b       	or	r18, r20
     6f2:	fc 01       	movw	r30, r24
     6f4:	20 83       	st	Z, r18
     6f6:	01 c0       	rjmp	.+2      	; 0x6fa <__stack+0x1fb>
     6f8:	00 00       	nop
     6fa:	29 96       	adiw	r28, 0x09	; 9
     6fc:	0f b6       	in	r0, 0x3f	; 63
     6fe:	f8 94       	cli
     700:	de bf       	out	0x3e, r29	; 62
     702:	0f be       	out	0x3f, r0	; 63
     704:	cd bf       	out	0x3d, r28	; 61
     706:	df 91       	pop	r29
     708:	cf 91       	pop	r28
     70a:	08 95       	ret

0000070c <printAt>:
     70c:	cf 93       	push	r28
     70e:	df 93       	push	r29
     710:	cd b7       	in	r28, 0x3d	; 61
     712:	de b7       	in	r29, 0x3e	; 62
     714:	2a 97       	sbiw	r28, 0x0a	; 10
     716:	0f b6       	in	r0, 0x3f	; 63
     718:	f8 94       	cli
     71a:	de bf       	out	0x3e, r29	; 62
     71c:	0f be       	out	0x3f, r0	; 63
     71e:	cd bf       	out	0x3d, r28	; 61
     720:	98 87       	std	Y+8, r25	; 0x08
     722:	8f 83       	std	Y+7, r24	; 0x07
     724:	7a 87       	std	Y+10, r23	; 0x0a
     726:	69 87       	std	Y+9, r22	; 0x09
     728:	89 85       	ldd	r24, Y+9	; 0x09
     72a:	9a 85       	ldd	r25, Y+10	; 0x0a
     72c:	9e 83       	std	Y+6, r25	; 0x06
     72e:	8d 83       	std	Y+5, r24	; 0x05
     730:	8d 81       	ldd	r24, Y+5	; 0x05
     732:	88 1f       	adc	r24, r24
     734:	88 27       	eor	r24, r24
     736:	88 1f       	adc	r24, r24
     738:	9e 81       	ldd	r25, Y+6	; 0x06
     73a:	93 70       	andi	r25, 0x03	; 3
     73c:	99 0f       	add	r25, r25
     73e:	89 2b       	or	r24, r25
     740:	88 2f       	mov	r24, r24
     742:	90 e0       	ldi	r25, 0x00	; 0
     744:	9a 83       	std	Y+2, r25	; 0x02
     746:	89 83       	std	Y+1, r24	; 0x01
     748:	8d 81       	ldd	r24, Y+5	; 0x05
     74a:	8f 77       	andi	r24, 0x7F	; 127
     74c:	88 2f       	mov	r24, r24
     74e:	90 e0       	ldi	r25, 0x00	; 0
     750:	9c 83       	std	Y+4, r25	; 0x04
     752:	8b 83       	std	Y+3, r24	; 0x03
     754:	8b 81       	ldd	r24, Y+3	; 0x03
     756:	9c 81       	ldd	r25, Y+4	; 0x04
     758:	24 e6       	ldi	r18, 0x64	; 100
     75a:	30 e0       	ldi	r19, 0x00	; 0
     75c:	b9 01       	movw	r22, r18
     75e:	0e 94 3e 17 	call	0x2e7c	; 0x2e7c <__divmodhi4>
     762:	2a e0       	ldi	r18, 0x0A	; 10
     764:	30 e0       	ldi	r19, 0x00	; 0
     766:	b9 01       	movw	r22, r18
     768:	0e 94 3e 17 	call	0x2e7c	; 0x2e7c <__divmodhi4>
     76c:	cb 01       	movw	r24, r22
     76e:	20 e3       	ldi	r18, 0x30	; 48
     770:	28 0f       	add	r18, r24
     772:	89 81       	ldd	r24, Y+1	; 0x01
     774:	9a 81       	ldd	r25, Y+2	; 0x02
     776:	bc 01       	movw	r22, r24
     778:	82 2f       	mov	r24, r18
     77a:	0e 94 61 02 	call	0x4c2	; 0x4c2 <writeChar>
     77e:	89 81       	ldd	r24, Y+1	; 0x01
     780:	9a 81       	ldd	r25, Y+2	; 0x02
     782:	01 96       	adiw	r24, 0x01	; 1
     784:	9a 83       	std	Y+2, r25	; 0x02
     786:	89 83       	std	Y+1, r24	; 0x01
     788:	8b 81       	ldd	r24, Y+3	; 0x03
     78a:	9c 81       	ldd	r25, Y+4	; 0x04
     78c:	2a e0       	ldi	r18, 0x0A	; 10
     78e:	30 e0       	ldi	r19, 0x00	; 0
     790:	b9 01       	movw	r22, r18
     792:	0e 94 3e 17 	call	0x2e7c	; 0x2e7c <__divmodhi4>
     796:	20 e3       	ldi	r18, 0x30	; 48
     798:	28 0f       	add	r18, r24
     79a:	89 81       	ldd	r24, Y+1	; 0x01
     79c:	9a 81       	ldd	r25, Y+2	; 0x02
     79e:	bc 01       	movw	r22, r24
     7a0:	82 2f       	mov	r24, r18
     7a2:	0e 94 61 02 	call	0x4c2	; 0x4c2 <writeChar>
     7a6:	80 e0       	ldi	r24, 0x00	; 0
     7a8:	90 e0       	ldi	r25, 0x00	; 0
     7aa:	2a 96       	adiw	r28, 0x0a	; 10
     7ac:	0f b6       	in	r0, 0x3f	; 63
     7ae:	f8 94       	cli
     7b0:	de bf       	out	0x3e, r29	; 62
     7b2:	0f be       	out	0x3f, r0	; 63
     7b4:	cd bf       	out	0x3d, r28	; 61
     7b6:	df 91       	pop	r29
     7b8:	cf 91       	pop	r28
     7ba:	08 95       	ret

000007bc <main>:
     7bc:	0f 93       	push	r16
     7be:	1f 93       	push	r17
     7c0:	cf 93       	push	r28
     7c2:	df 93       	push	r29
     7c4:	cd b7       	in	r28, 0x3d	; 61
     7c6:	de b7       	in	r29, 0x3e	; 62
     7c8:	c0 54       	subi	r28, 0x40	; 64
     7ca:	d1 09       	sbc	r29, r1
     7cc:	0f b6       	in	r0, 0x3f	; 63
     7ce:	f8 94       	cli
     7d0:	de bf       	out	0x3e, r29	; 62
     7d2:	0f be       	out	0x3f, r0	; 63
     7d4:	cd bf       	out	0x3d, r28	; 61
     7d6:	0e 94 33 02 	call	0x466	; 0x466 <INIT>
     7da:	1e ae       	std	Y+62, r1	; 0x3e
     7dc:	1d ae       	std	Y+61, r1	; 0x3d
     7de:	21 96       	adiw	r28, 0x01	; 1
     7e0:	1f ae       	std	Y+63, r1	; 0x3f
     7e2:	1e ae       	std	Y+62, r1	; 0x3e
     7e4:	21 97       	sbiw	r28, 0x01	; 1
     7e6:	1a ae       	std	Y+58, r1	; 0x3a
     7e8:	19 ae       	std	Y+57, r1	; 0x39
     7ea:	1c ae       	std	Y+60, r1	; 0x3c
     7ec:	1b ae       	std	Y+59, r1	; 0x3b
     7ee:	1a 8a       	std	Y+18, r1	; 0x12
     7f0:	19 8a       	std	Y+17, r1	; 0x11
     7f2:	1c 8a       	std	Y+20, r1	; 0x14
     7f4:	1b 8a       	std	Y+19, r1	; 0x13
     7f6:	1e 8a       	std	Y+22, r1	; 0x16
     7f8:	1d 8a       	std	Y+21, r1	; 0x15
     7fa:	18 8e       	std	Y+24, r1	; 0x18
     7fc:	1f 8a       	std	Y+23, r1	; 0x17
     7fe:	81 e0       	ldi	r24, 0x01	; 1
     800:	90 e0       	ldi	r25, 0x00	; 0
     802:	9a 8f       	std	Y+26, r25	; 0x1a
     804:	89 8f       	std	Y+25, r24	; 0x19
     806:	9c 8f       	std	Y+28, r25	; 0x1c
     808:	8b 8f       	std	Y+27, r24	; 0x1b
     80a:	9e 01       	movw	r18, r28
     80c:	23 5c       	subi	r18, 0xC3	; 195
     80e:	3f 4f       	sbci	r19, 0xFF	; 255
     810:	3e 8f       	std	Y+30, r19	; 0x1e
     812:	2d 8f       	std	Y+29, r18	; 0x1d
     814:	ce 01       	movw	r24, r28
     816:	c9 96       	adiw	r24, 0x39	; 57
     818:	98 a3       	std	Y+32, r25	; 0x20
     81a:	8f 8f       	std	Y+31, r24	; 0x1f
     81c:	1a 82       	std	Y+2, r1	; 0x02
     81e:	19 82       	std	Y+1, r1	; 0x01
     820:	1c 82       	std	Y+4, r1	; 0x04
     822:	1b 82       	std	Y+3, r1	; 0x03
     824:	1e 82       	std	Y+6, r1	; 0x06
     826:	1d 82       	std	Y+5, r1	; 0x05
     828:	18 86       	std	Y+8, r1	; 0x08
     82a:	1f 82       	std	Y+7, r1	; 0x07
     82c:	44 e0       	ldi	r20, 0x04	; 4
     82e:	50 e0       	ldi	r21, 0x00	; 0
     830:	5a 87       	std	Y+10, r21	; 0x0a
     832:	49 87       	std	Y+9, r20	; 0x09
     834:	43 e0       	ldi	r20, 0x03	; 3
     836:	50 e0       	ldi	r21, 0x00	; 0
     838:	5c 87       	std	Y+12, r21	; 0x0c
     83a:	4b 87       	std	Y+11, r20	; 0x0b
     83c:	3e 87       	std	Y+14, r19	; 0x0e
     83e:	2d 87       	std	Y+13, r18	; 0x0d
     840:	98 8b       	std	Y+16, r25	; 0x10
     842:	8f 87       	std	Y+15, r24	; 0x0f
     844:	1a a2       	std	Y+34, r1	; 0x22
     846:	19 a2       	std	Y+33, r1	; 0x21
     848:	1c a2       	std	Y+36, r1	; 0x24
     84a:	1b a2       	std	Y+35, r1	; 0x23
     84c:	1d a2       	std	Y+37, r1	; 0x25
     84e:	88 97       	sbiw	r24, 0x28	; 40
     850:	9f a3       	std	Y+39, r25	; 0x27
     852:	8e a3       	std	Y+38, r24	; 0x26
     854:	40 97       	sbiw	r24, 0x10	; 16
     856:	99 a7       	std	Y+41, r25	; 0x29
     858:	88 a7       	std	Y+40, r24	; 0x28
     85a:	fe 01       	movw	r30, r28
     85c:	ba 96       	adiw	r30, 0x2a	; 42
     85e:	88 e0       	ldi	r24, 0x08	; 8
     860:	df 01       	movw	r26, r30
     862:	1d 92       	st	X+, r1
     864:	8a 95       	dec	r24
     866:	e9 f7       	brne	.-6      	; 0x862 <main+0xa6>
     868:	8e 01       	movw	r16, r28
     86a:	0f 5d       	subi	r16, 0xDF	; 223
     86c:	1f 4f       	sbci	r17, 0xFF	; 255
     86e:	1f a7       	std	Y+47, r17	; 0x2f
     870:	0e a7       	std	Y+46, r16	; 0x2e
     872:	1b aa       	std	Y+51, r1	; 0x33
     874:	1a aa       	std	Y+50, r1	; 0x32
     876:	1d aa       	std	Y+53, r1	; 0x35
     878:	1c aa       	std	Y+52, r1	; 0x34
     87a:	ff ab       	std	Y+55, r31	; 0x37
     87c:	ee ab       	std	Y+54, r30	; 0x36
     87e:	18 ae       	std	Y+56, r1	; 0x38
     880:	41 e0       	ldi	r20, 0x01	; 1
     882:	6d e4       	ldi	r22, 0x4D	; 77
     884:	70 e0       	ldi	r23, 0x00	; 0
     886:	ce 01       	movw	r24, r28
     888:	c2 96       	adiw	r24, 0x32	; 50
     88a:	0e 94 ac 16 	call	0x2d58	; 0x2d58 <install>
     88e:	42 e0       	ldi	r20, 0x02	; 2
     890:	69 e7       	ldi	r22, 0x79	; 121
     892:	70 e0       	ldi	r23, 0x00	; 0
     894:	ce 01       	movw	r24, r28
     896:	c2 96       	adiw	r24, 0x32	; 50
     898:	0e 94 ac 16 	call	0x2d58	; 0x2d58 <install>
     89c:	40 e0       	ldi	r20, 0x00	; 0
     89e:	50 e0       	ldi	r21, 0x00	; 0
     8a0:	67 e0       	ldi	r22, 0x07	; 7
     8a2:	72 e0       	ldi	r23, 0x02	; 2
     8a4:	c8 01       	movw	r24, r16
     8a6:	0e 94 ef 16 	call	0x2dde	; 0x2dde <tinytimber>
     8aa:	c0 5c       	subi	r28, 0xC0	; 192
     8ac:	df 4f       	sbci	r29, 0xFF	; 255
     8ae:	0f b6       	in	r0, 0x3f	; 63
     8b0:	f8 94       	cli
     8b2:	de bf       	out	0x3e, r29	; 62
     8b4:	0f be       	out	0x3f, r0	; 63
     8b6:	cd bf       	out	0x3d, r28	; 61
     8b8:	df 91       	pop	r29
     8ba:	cf 91       	pop	r28
     8bc:	1f 91       	pop	r17
     8be:	0f 91       	pop	r16
     8c0:	08 95       	ret

000008c2 <sendSignal>:
     8c2:	61 30       	cpi	r22, 0x01	; 1
     8c4:	71 05       	cpc	r23, r1
     8c6:	89 f0       	breq	.+34     	; 0x8ea <sendSignal+0x28>
     8c8:	63 30       	cpi	r22, 0x03	; 3
     8ca:	71 05       	cpc	r23, r1
     8cc:	49 f0       	breq	.+18     	; 0x8e0 <sendSignal+0x1e>
     8ce:	90 91 fe 00 	lds	r25, 0x00FE	; 0x8000fe <__TEXT_REGION_LENGTH__+0x7fc0fe>
     8d2:	81 e0       	ldi	r24, 0x01	; 1
     8d4:	89 27       	eor	r24, r25
     8d6:	80 93 fe 00 	sts	0x00FE, r24	; 0x8000fe <__TEXT_REGION_LENGTH__+0x7fc0fe>
     8da:	80 e0       	ldi	r24, 0x00	; 0
     8dc:	90 e0       	ldi	r25, 0x00	; 0
     8de:	08 95       	ret
     8e0:	9e b1       	in	r25, 0x0e	; 14
     8e2:	80 e4       	ldi	r24, 0x40	; 64
     8e4:	89 27       	eor	r24, r25
     8e6:	8e b9       	out	0x0e, r24	; 14
     8e8:	f2 cf       	rjmp	.-28     	; 0x8ce <sendSignal+0xc>
     8ea:	9e b1       	in	r25, 0x0e	; 14
     8ec:	80 e1       	ldi	r24, 0x10	; 16
     8ee:	89 27       	eor	r24, r25
     8f0:	8e b9       	out	0x0e, r24	; 14
     8f2:	ed cf       	rjmp	.-38     	; 0x8ce <sendSignal+0xc>

000008f4 <setLow>:
     8f4:	61 30       	cpi	r22, 0x01	; 1
     8f6:	71 05       	cpc	r23, r1
     8f8:	31 f0       	breq	.+12     	; 0x906 <setLow+0x12>
     8fa:	63 30       	cpi	r22, 0x03	; 3
     8fc:	71 05       	cpc	r23, r1
     8fe:	19 f0       	breq	.+6      	; 0x906 <setLow+0x12>
     900:	80 e0       	ldi	r24, 0x00	; 0
     902:	90 e0       	ldi	r25, 0x00	; 0
     904:	08 95       	ret
     906:	1e b8       	out	0x0e, r1	; 14
     908:	80 e0       	ldi	r24, 0x00	; 0
     90a:	90 e0       	ldi	r25, 0x00	; 0
     90c:	08 95       	ret

0000090e <generator>:
     90e:	cf 92       	push	r12
     910:	df 92       	push	r13
     912:	ef 92       	push	r14
     914:	ff 92       	push	r15
     916:	0f 93       	push	r16
     918:	1f 93       	push	r17
     91a:	cf 93       	push	r28
     91c:	df 93       	push	r29
     91e:	ec 01       	movw	r28, r24
     920:	8c 81       	ldd	r24, Y+4	; 0x04
     922:	9d 81       	ldd	r25, Y+5	; 0x05
     924:	ca 84       	ldd	r12, Y+10	; 0x0a
     926:	db 84       	ldd	r13, Y+11	; 0x0b
     928:	89 2b       	or	r24, r25
     92a:	39 f5       	brne	.+78     	; 0x97a <generator+0x6c>
     92c:	8a e7       	ldi	r24, 0x7A	; 122
     92e:	e8 2e       	mov	r14, r24
     930:	84 e0       	ldi	r24, 0x04	; 4
     932:	f8 2e       	mov	r15, r24
     934:	8e 01       	movw	r16, r28
     936:	20 e0       	ldi	r18, 0x00	; 0
     938:	30 e0       	ldi	r19, 0x00	; 0
     93a:	a9 01       	movw	r20, r18
     93c:	60 e0       	ldi	r22, 0x00	; 0
     93e:	70 e0       	ldi	r23, 0x00	; 0
     940:	cb 01       	movw	r24, r22
     942:	0e 94 50 13 	call	0x26a0	; 0x26a0 <async>
     946:	c1 2c       	mov	r12, r1
     948:	d1 2c       	mov	r13, r1
     94a:	97 e8       	ldi	r25, 0x87	; 135
     94c:	e9 2e       	mov	r14, r25
     94e:	94 e0       	ldi	r25, 0x04	; 4
     950:	f9 2e       	mov	r15, r25
     952:	20 e0       	ldi	r18, 0x00	; 0
     954:	30 e0       	ldi	r19, 0x00	; 0
     956:	a9 01       	movw	r20, r18
     958:	62 e1       	ldi	r22, 0x12	; 18
     95a:	7a e7       	ldi	r23, 0x7A	; 122
     95c:	80 e0       	ldi	r24, 0x00	; 0
     95e:	90 e0       	ldi	r25, 0x00	; 0
     960:	0e 94 50 13 	call	0x26a0	; 0x26a0 <async>
     964:	80 e0       	ldi	r24, 0x00	; 0
     966:	90 e0       	ldi	r25, 0x00	; 0
     968:	df 91       	pop	r29
     96a:	cf 91       	pop	r28
     96c:	1f 91       	pop	r17
     96e:	0f 91       	pop	r16
     970:	ff 90       	pop	r15
     972:	ef 90       	pop	r14
     974:	df 90       	pop	r13
     976:	cf 90       	pop	r12
     978:	08 95       	ret
     97a:	0c 85       	ldd	r16, Y+12	; 0x0c
     97c:	1d 85       	ldd	r17, Y+13	; 0x0d
     97e:	41 e6       	ldi	r20, 0x61	; 97
     980:	e4 2e       	mov	r14, r20
     982:	44 e0       	ldi	r20, 0x04	; 4
     984:	f4 2e       	mov	r15, r20
     986:	20 e0       	ldi	r18, 0x00	; 0
     988:	30 e0       	ldi	r19, 0x00	; 0
     98a:	a9 01       	movw	r20, r18
     98c:	60 e0       	ldi	r22, 0x00	; 0
     98e:	70 e0       	ldi	r23, 0x00	; 0
     990:	cb 01       	movw	r24, r22
     992:	0e 94 50 13 	call	0x26a0	; 0x26a0 <async>
     996:	6c 81       	ldd	r22, Y+4	; 0x04
     998:	7d 81       	ldd	r23, Y+5	; 0x05
     99a:	84 ef       	ldi	r24, 0xF4	; 244
     99c:	91 e0       	ldi	r25, 0x01	; 1
     99e:	0e 94 3e 17 	call	0x2e7c	; 0x2e7c <__divmodhi4>
     9a2:	2d e7       	ldi	r18, 0x7D	; 125
     9a4:	30 e0       	ldi	r19, 0x00	; 0
     9a6:	db 01       	movw	r26, r22
     9a8:	0e 94 52 17 	call	0x2ea4	; 0x2ea4 <__usmulhisi3>
     9ac:	97 fd       	sbrc	r25, 7
     9ae:	15 c0       	rjmp	.+42     	; 0x9da <generator+0xcc>
     9b0:	95 95       	asr	r25
     9b2:	87 95       	ror	r24
     9b4:	77 95       	ror	r23
     9b6:	67 95       	ror	r22
     9b8:	95 95       	asr	r25
     9ba:	87 95       	ror	r24
     9bc:	77 95       	ror	r23
     9be:	67 95       	ror	r22
     9c0:	c1 2c       	mov	r12, r1
     9c2:	d1 2c       	mov	r13, r1
     9c4:	37 e8       	ldi	r19, 0x87	; 135
     9c6:	e3 2e       	mov	r14, r19
     9c8:	34 e0       	ldi	r19, 0x04	; 4
     9ca:	f3 2e       	mov	r15, r19
     9cc:	8e 01       	movw	r16, r28
     9ce:	20 e0       	ldi	r18, 0x00	; 0
     9d0:	30 e0       	ldi	r19, 0x00	; 0
     9d2:	a9 01       	movw	r20, r18
     9d4:	0e 94 50 13 	call	0x26a0	; 0x26a0 <async>
     9d8:	c5 cf       	rjmp	.-118    	; 0x964 <generator+0x56>
     9da:	6d 5f       	subi	r22, 0xFD	; 253
     9dc:	7f 4f       	sbci	r23, 0xFF	; 255
     9de:	8f 4f       	sbci	r24, 0xFF	; 255
     9e0:	9f 4f       	sbci	r25, 0xFF	; 255
     9e2:	e6 cf       	rjmp	.-52     	; 0x9b0 <generator+0xa2>

000009e4 <increase>:
     9e4:	cf 92       	push	r12
     9e6:	df 92       	push	r13
     9e8:	ef 92       	push	r14
     9ea:	ff 92       	push	r15
     9ec:	0f 93       	push	r16
     9ee:	1f 93       	push	r17
     9f0:	fc 01       	movw	r30, r24
     9f2:	c4 80       	ldd	r12, Z+4	; 0x04
     9f4:	d5 80       	ldd	r13, Z+5	; 0x05
     9f6:	f3 e6       	ldi	r31, 0x63	; 99
     9f8:	cf 16       	cp	r12, r31
     9fa:	d1 04       	cpc	r13, r1
     9fc:	dc f4       	brge	.+54     	; 0xa34 <increase+0x50>
     9fe:	fc 01       	movw	r30, r24
     a00:	2f ef       	ldi	r18, 0xFF	; 255
     a02:	c2 1a       	sub	r12, r18
     a04:	d2 0a       	sbc	r13, r18
     a06:	d5 82       	std	Z+5, r13	; 0x05
     a08:	c4 82       	std	Z+4, r12	; 0x04
     a0a:	d0 84       	ldd	r13, Z+8	; 0x08
     a0c:	d0 fa       	bst	r13, 0
     a0e:	c7 f8       	bld	r12, 7
     a10:	8d 2d       	mov	r24, r13
     a12:	86 95       	lsr	r24
     a14:	83 70       	andi	r24, 0x03	; 3
     a16:	d8 2e       	mov	r13, r24
     a18:	06 85       	ldd	r16, Z+14	; 0x0e
     a1a:	17 85       	ldd	r17, Z+15	; 0x0f
     a1c:	86 e8       	ldi	r24, 0x86	; 134
     a1e:	e8 2e       	mov	r14, r24
     a20:	83 e0       	ldi	r24, 0x03	; 3
     a22:	f8 2e       	mov	r15, r24
     a24:	20 e0       	ldi	r18, 0x00	; 0
     a26:	30 e0       	ldi	r19, 0x00	; 0
     a28:	a9 01       	movw	r20, r18
     a2a:	60 e0       	ldi	r22, 0x00	; 0
     a2c:	70 e0       	ldi	r23, 0x00	; 0
     a2e:	cb 01       	movw	r24, r22
     a30:	0e 94 50 13 	call	0x26a0	; 0x26a0 <async>
     a34:	80 e0       	ldi	r24, 0x00	; 0
     a36:	90 e0       	ldi	r25, 0x00	; 0
     a38:	1f 91       	pop	r17
     a3a:	0f 91       	pop	r16
     a3c:	ff 90       	pop	r15
     a3e:	ef 90       	pop	r14
     a40:	df 90       	pop	r13
     a42:	cf 90       	pop	r12
     a44:	08 95       	ret

00000a46 <decrease>:
     a46:	cf 92       	push	r12
     a48:	df 92       	push	r13
     a4a:	ef 92       	push	r14
     a4c:	ff 92       	push	r15
     a4e:	0f 93       	push	r16
     a50:	1f 93       	push	r17
     a52:	cf 93       	push	r28
     a54:	df 93       	push	r29
     a56:	ec 01       	movw	r28, r24
     a58:	cc 80       	ldd	r12, Y+4	; 0x04
     a5a:	dd 80       	ldd	r13, Y+5	; 0x05
     a5c:	1c 14       	cp	r1, r12
     a5e:	1d 04       	cpc	r1, r13
     a60:	2c f4       	brge	.+10     	; 0xa6c <decrease+0x26>
     a62:	81 e0       	ldi	r24, 0x01	; 1
     a64:	c8 1a       	sub	r12, r24
     a66:	d1 08       	sbc	r13, r1
     a68:	dd 82       	std	Y+5, r13	; 0x05
     a6a:	cc 82       	std	Y+4, r12	; 0x04
     a6c:	c1 14       	cp	r12, r1
     a6e:	d1 04       	cpc	r13, r1
     a70:	89 f4       	brne	.+34     	; 0xa94 <decrease+0x4e>
     a72:	ca 84       	ldd	r12, Y+10	; 0x0a
     a74:	db 84       	ldd	r13, Y+11	; 0x0b
     a76:	9a e7       	ldi	r25, 0x7A	; 122
     a78:	e9 2e       	mov	r14, r25
     a7a:	94 e0       	ldi	r25, 0x04	; 4
     a7c:	f9 2e       	mov	r15, r25
     a7e:	8e 01       	movw	r16, r28
     a80:	20 e0       	ldi	r18, 0x00	; 0
     a82:	30 e0       	ldi	r19, 0x00	; 0
     a84:	a9 01       	movw	r20, r18
     a86:	60 e0       	ldi	r22, 0x00	; 0
     a88:	70 e0       	ldi	r23, 0x00	; 0
     a8a:	cb 01       	movw	r24, r22
     a8c:	0e 94 50 13 	call	0x26a0	; 0x26a0 <async>
     a90:	cc 80       	ldd	r12, Y+4	; 0x04
     a92:	dd 80       	ldd	r13, Y+5	; 0x05
     a94:	d8 84       	ldd	r13, Y+8	; 0x08
     a96:	d0 fa       	bst	r13, 0
     a98:	c7 f8       	bld	r12, 7
     a9a:	8d 2d       	mov	r24, r13
     a9c:	86 95       	lsr	r24
     a9e:	83 70       	andi	r24, 0x03	; 3
     aa0:	d8 2e       	mov	r13, r24
     aa2:	0e 85       	ldd	r16, Y+14	; 0x0e
     aa4:	1f 85       	ldd	r17, Y+15	; 0x0f
     aa6:	86 e8       	ldi	r24, 0x86	; 134
     aa8:	e8 2e       	mov	r14, r24
     aaa:	83 e0       	ldi	r24, 0x03	; 3
     aac:	f8 2e       	mov	r15, r24
     aae:	20 e0       	ldi	r18, 0x00	; 0
     ab0:	30 e0       	ldi	r19, 0x00	; 0
     ab2:	a9 01       	movw	r20, r18
     ab4:	60 e0       	ldi	r22, 0x00	; 0
     ab6:	70 e0       	ldi	r23, 0x00	; 0
     ab8:	cb 01       	movw	r24, r22
     aba:	0e 94 50 13 	call	0x26a0	; 0x26a0 <async>
     abe:	80 e0       	ldi	r24, 0x00	; 0
     ac0:	90 e0       	ldi	r25, 0x00	; 0
     ac2:	df 91       	pop	r29
     ac4:	cf 91       	pop	r28
     ac6:	1f 91       	pop	r17
     ac8:	0f 91       	pop	r16
     aca:	ff 90       	pop	r15
     acc:	ef 90       	pop	r14
     ace:	df 90       	pop	r13
     ad0:	cf 90       	pop	r12
     ad2:	08 95       	ret

00000ad4 <reset>:
     ad4:	cf 92       	push	r12
     ad6:	df 92       	push	r13
     ad8:	ef 92       	push	r14
     ada:	ff 92       	push	r15
     adc:	0f 93       	push	r16
     ade:	1f 93       	push	r17
     ae0:	cf 93       	push	r28
     ae2:	df 93       	push	r29
     ae4:	ec 01       	movw	r28, r24
     ae6:	8c 81       	ldd	r24, Y+4	; 0x04
     ae8:	9d 81       	ldd	r25, Y+5	; 0x05
     aea:	00 97       	sbiw	r24, 0x00	; 0
     aec:	21 f5       	brne	.+72     	; 0xb36 <reset+0x62>
     aee:	ce 80       	ldd	r12, Y+6	; 0x06
     af0:	8f 81       	ldd	r24, Y+7	; 0x07
     af2:	cc 82       	std	Y+4, r12	; 0x04
     af4:	8d 83       	std	Y+5, r24	; 0x05
     af6:	d8 84       	ldd	r13, Y+8	; 0x08
     af8:	d0 fa       	bst	r13, 0
     afa:	c7 f8       	bld	r12, 7
     afc:	8d 2d       	mov	r24, r13
     afe:	86 95       	lsr	r24
     b00:	83 70       	andi	r24, 0x03	; 3
     b02:	d8 2e       	mov	r13, r24
     b04:	0e 85       	ldd	r16, Y+14	; 0x0e
     b06:	1f 85       	ldd	r17, Y+15	; 0x0f
     b08:	86 e8       	ldi	r24, 0x86	; 134
     b0a:	e8 2e       	mov	r14, r24
     b0c:	83 e0       	ldi	r24, 0x03	; 3
     b0e:	f8 2e       	mov	r15, r24
     b10:	20 e0       	ldi	r18, 0x00	; 0
     b12:	30 e0       	ldi	r19, 0x00	; 0
     b14:	a9 01       	movw	r20, r18
     b16:	60 e0       	ldi	r22, 0x00	; 0
     b18:	70 e0       	ldi	r23, 0x00	; 0
     b1a:	cb 01       	movw	r24, r22
     b1c:	0e 94 50 13 	call	0x26a0	; 0x26a0 <async>
     b20:	80 e0       	ldi	r24, 0x00	; 0
     b22:	90 e0       	ldi	r25, 0x00	; 0
     b24:	df 91       	pop	r29
     b26:	cf 91       	pop	r28
     b28:	1f 91       	pop	r17
     b2a:	0f 91       	pop	r16
     b2c:	ff 90       	pop	r15
     b2e:	ef 90       	pop	r14
     b30:	df 90       	pop	r13
     b32:	cf 90       	pop	r12
     b34:	08 95       	ret
     b36:	9f 83       	std	Y+7, r25	; 0x07
     b38:	8e 83       	std	Y+6, r24	; 0x06
     b3a:	1d 82       	std	Y+5, r1	; 0x05
     b3c:	1c 82       	std	Y+4, r1	; 0x04
     b3e:	ca 84       	ldd	r12, Y+10	; 0x0a
     b40:	db 84       	ldd	r13, Y+11	; 0x0b
     b42:	9a e7       	ldi	r25, 0x7A	; 122
     b44:	e9 2e       	mov	r14, r25
     b46:	94 e0       	ldi	r25, 0x04	; 4
     b48:	f9 2e       	mov	r15, r25
     b4a:	8e 01       	movw	r16, r28
     b4c:	20 e0       	ldi	r18, 0x00	; 0
     b4e:	30 e0       	ldi	r19, 0x00	; 0
     b50:	a9 01       	movw	r20, r18
     b52:	60 e0       	ldi	r22, 0x00	; 0
     b54:	70 e0       	ldi	r23, 0x00	; 0
     b56:	cb 01       	movw	r24, r22
     b58:	0e 94 50 13 	call	0x26a0	; 0x26a0 <async>
     b5c:	cc 80       	ldd	r12, Y+4	; 0x04
     b5e:	cb cf       	rjmp	.-106    	; 0xaf6 <reset+0x22>

00000b60 <__vector_1>:
     b60:	1f 92       	push	r1
     b62:	0f 92       	push	r0
     b64:	00 90 5f 00 	lds	r0, 0x005F	; 0x80005f <__TEXT_REGION_LENGTH__+0x7fc05f>
     b68:	0f 92       	push	r0
     b6a:	11 24       	eor	r1, r1
     b6c:	2f 93       	push	r18
     b6e:	3f 93       	push	r19
     b70:	4f 93       	push	r20
     b72:	5f 93       	push	r21
     b74:	6f 93       	push	r22
     b76:	7f 93       	push	r23
     b78:	8f 93       	push	r24
     b7a:	9f 93       	push	r25
     b7c:	af 93       	push	r26
     b7e:	bf 93       	push	r27
     b80:	ef 93       	push	r30
     b82:	ff 93       	push	r31
     b84:	cf 93       	push	r28
     b86:	df 93       	push	r29
     b88:	cd b7       	in	r28, 0x3d	; 61
     b8a:	de b7       	in	r29, 0x3e	; 62
     b8c:	80 91 40 01 	lds	r24, 0x0140	; 0x800140 <overflows>
     b90:	90 91 41 01 	lds	r25, 0x0141	; 0x800141 <overflows+0x1>
     b94:	09 2e       	mov	r0, r25
     b96:	00 0c       	add	r0, r0
     b98:	aa 0b       	sbc	r26, r26
     b9a:	bb 0b       	sbc	r27, r27
     b9c:	ac 01       	movw	r20, r24
     b9e:	33 27       	eor	r19, r19
     ba0:	22 27       	eor	r18, r18
     ba2:	84 e8       	ldi	r24, 0x84	; 132
     ba4:	90 e0       	ldi	r25, 0x00	; 0
     ba6:	fc 01       	movw	r30, r24
     ba8:	80 81       	ld	r24, Z
     baa:	91 81       	ldd	r25, Z+1	; 0x01
     bac:	cc 01       	movw	r24, r24
     bae:	a0 e0       	ldi	r26, 0x00	; 0
     bb0:	b0 e0       	ldi	r27, 0x00	; 0
     bb2:	82 2b       	or	r24, r18
     bb4:	93 2b       	or	r25, r19
     bb6:	a4 2b       	or	r26, r20
     bb8:	b5 2b       	or	r27, r21
     bba:	80 93 3c 01 	sts	0x013C, r24	; 0x80013c <timestamp>
     bbe:	90 93 3d 01 	sts	0x013D, r25	; 0x80013d <timestamp+0x1>
     bc2:	a0 93 3e 01 	sts	0x013E, r26	; 0x80013e <timestamp+0x2>
     bc6:	b0 93 3f 01 	sts	0x013F, r27	; 0x80013f <timestamp+0x3>
     bca:	86 e3       	ldi	r24, 0x36	; 54
     bcc:	90 e0       	ldi	r25, 0x00	; 0
     bce:	fc 01       	movw	r30, r24
     bd0:	80 81       	ld	r24, Z
     bd2:	88 2f       	mov	r24, r24
     bd4:	90 e0       	ldi	r25, 0x00	; 0
     bd6:	81 70       	andi	r24, 0x01	; 1
     bd8:	99 27       	eor	r25, r25
     bda:	89 2b       	or	r24, r25
     bdc:	01 f1       	breq	.+64     	; 0xc1e <__vector_1+0xbe>
     bde:	80 91 40 01 	lds	r24, 0x0140	; 0x800140 <overflows>
     be2:	90 91 41 01 	lds	r25, 0x0141	; 0x800141 <overflows+0x1>
     be6:	01 96       	adiw	r24, 0x01	; 1
     be8:	09 2e       	mov	r0, r25
     bea:	00 0c       	add	r0, r0
     bec:	aa 0b       	sbc	r26, r26
     bee:	bb 0b       	sbc	r27, r27
     bf0:	ac 01       	movw	r20, r24
     bf2:	33 27       	eor	r19, r19
     bf4:	22 27       	eor	r18, r18
     bf6:	84 e8       	ldi	r24, 0x84	; 132
     bf8:	90 e0       	ldi	r25, 0x00	; 0
     bfa:	fc 01       	movw	r30, r24
     bfc:	80 81       	ld	r24, Z
     bfe:	91 81       	ldd	r25, Z+1	; 0x01
     c00:	cc 01       	movw	r24, r24
     c02:	a0 e0       	ldi	r26, 0x00	; 0
     c04:	b0 e0       	ldi	r27, 0x00	; 0
     c06:	82 2b       	or	r24, r18
     c08:	93 2b       	or	r25, r19
     c0a:	a4 2b       	or	r26, r20
     c0c:	b5 2b       	or	r27, r21
     c0e:	80 93 3c 01 	sts	0x013C, r24	; 0x80013c <timestamp>
     c12:	90 93 3d 01 	sts	0x013D, r25	; 0x80013d <timestamp+0x1>
     c16:	a0 93 3e 01 	sts	0x013E, r26	; 0x80013e <timestamp+0x2>
     c1a:	b0 93 3f 01 	sts	0x013F, r27	; 0x80013f <timestamp+0x3>
     c1e:	80 91 da 01 	lds	r24, 0x01DA	; 0x8001da <mtable>
     c22:	90 91 db 01 	lds	r25, 0x01DB	; 0x8001db <mtable+0x1>
     c26:	89 2b       	or	r24, r25
     c28:	61 f0       	breq	.+24     	; 0xc42 <__vector_1+0xe2>
     c2a:	20 91 da 01 	lds	r18, 0x01DA	; 0x8001da <mtable>
     c2e:	30 91 db 01 	lds	r19, 0x01DB	; 0x8001db <mtable+0x1>
     c32:	80 91 42 01 	lds	r24, 0x0142	; 0x800142 <otable>
     c36:	90 91 43 01 	lds	r25, 0x0143	; 0x800143 <otable+0x1>
     c3a:	60 e0       	ldi	r22, 0x00	; 0
     c3c:	70 e0       	ldi	r23, 0x00	; 0
     c3e:	f9 01       	movw	r30, r18
     c40:	09 95       	icall
     c42:	0e 94 fc 12 	call	0x25f8	; 0x25f8 <schedule>
     c46:	00 00       	nop
     c48:	df 91       	pop	r29
     c4a:	cf 91       	pop	r28
     c4c:	ff 91       	pop	r31
     c4e:	ef 91       	pop	r30
     c50:	bf 91       	pop	r27
     c52:	af 91       	pop	r26
     c54:	9f 91       	pop	r25
     c56:	8f 91       	pop	r24
     c58:	7f 91       	pop	r23
     c5a:	6f 91       	pop	r22
     c5c:	5f 91       	pop	r21
     c5e:	4f 91       	pop	r20
     c60:	3f 91       	pop	r19
     c62:	2f 91       	pop	r18
     c64:	0f 90       	pop	r0
     c66:	00 92 5f 00 	sts	0x005F, r0	; 0x80005f <__TEXT_REGION_LENGTH__+0x7fc05f>
     c6a:	0f 90       	pop	r0
     c6c:	1f 90       	pop	r1
     c6e:	18 95       	reti

00000c70 <__vector_2>:
     c70:	1f 92       	push	r1
     c72:	0f 92       	push	r0
     c74:	00 90 5f 00 	lds	r0, 0x005F	; 0x80005f <__TEXT_REGION_LENGTH__+0x7fc05f>
     c78:	0f 92       	push	r0
     c7a:	11 24       	eor	r1, r1
     c7c:	2f 93       	push	r18
     c7e:	3f 93       	push	r19
     c80:	4f 93       	push	r20
     c82:	5f 93       	push	r21
     c84:	6f 93       	push	r22
     c86:	7f 93       	push	r23
     c88:	8f 93       	push	r24
     c8a:	9f 93       	push	r25
     c8c:	af 93       	push	r26
     c8e:	bf 93       	push	r27
     c90:	ef 93       	push	r30
     c92:	ff 93       	push	r31
     c94:	cf 93       	push	r28
     c96:	df 93       	push	r29
     c98:	cd b7       	in	r28, 0x3d	; 61
     c9a:	de b7       	in	r29, 0x3e	; 62
     c9c:	80 91 40 01 	lds	r24, 0x0140	; 0x800140 <overflows>
     ca0:	90 91 41 01 	lds	r25, 0x0141	; 0x800141 <overflows+0x1>
     ca4:	09 2e       	mov	r0, r25
     ca6:	00 0c       	add	r0, r0
     ca8:	aa 0b       	sbc	r26, r26
     caa:	bb 0b       	sbc	r27, r27
     cac:	ac 01       	movw	r20, r24
     cae:	33 27       	eor	r19, r19
     cb0:	22 27       	eor	r18, r18
     cb2:	84 e8       	ldi	r24, 0x84	; 132
     cb4:	90 e0       	ldi	r25, 0x00	; 0
     cb6:	fc 01       	movw	r30, r24
     cb8:	80 81       	ld	r24, Z
     cba:	91 81       	ldd	r25, Z+1	; 0x01
     cbc:	cc 01       	movw	r24, r24
     cbe:	a0 e0       	ldi	r26, 0x00	; 0
     cc0:	b0 e0       	ldi	r27, 0x00	; 0
     cc2:	82 2b       	or	r24, r18
     cc4:	93 2b       	or	r25, r19
     cc6:	a4 2b       	or	r26, r20
     cc8:	b5 2b       	or	r27, r21
     cca:	80 93 3c 01 	sts	0x013C, r24	; 0x80013c <timestamp>
     cce:	90 93 3d 01 	sts	0x013D, r25	; 0x80013d <timestamp+0x1>
     cd2:	a0 93 3e 01 	sts	0x013E, r26	; 0x80013e <timestamp+0x2>
     cd6:	b0 93 3f 01 	sts	0x013F, r27	; 0x80013f <timestamp+0x3>
     cda:	86 e3       	ldi	r24, 0x36	; 54
     cdc:	90 e0       	ldi	r25, 0x00	; 0
     cde:	fc 01       	movw	r30, r24
     ce0:	80 81       	ld	r24, Z
     ce2:	88 2f       	mov	r24, r24
     ce4:	90 e0       	ldi	r25, 0x00	; 0
     ce6:	81 70       	andi	r24, 0x01	; 1
     ce8:	99 27       	eor	r25, r25
     cea:	89 2b       	or	r24, r25
     cec:	01 f1       	breq	.+64     	; 0xd2e <__vector_2+0xbe>
     cee:	80 91 40 01 	lds	r24, 0x0140	; 0x800140 <overflows>
     cf2:	90 91 41 01 	lds	r25, 0x0141	; 0x800141 <overflows+0x1>
     cf6:	01 96       	adiw	r24, 0x01	; 1
     cf8:	09 2e       	mov	r0, r25
     cfa:	00 0c       	add	r0, r0
     cfc:	aa 0b       	sbc	r26, r26
     cfe:	bb 0b       	sbc	r27, r27
     d00:	ac 01       	movw	r20, r24
     d02:	33 27       	eor	r19, r19
     d04:	22 27       	eor	r18, r18
     d06:	84 e8       	ldi	r24, 0x84	; 132
     d08:	90 e0       	ldi	r25, 0x00	; 0
     d0a:	fc 01       	movw	r30, r24
     d0c:	80 81       	ld	r24, Z
     d0e:	91 81       	ldd	r25, Z+1	; 0x01
     d10:	cc 01       	movw	r24, r24
     d12:	a0 e0       	ldi	r26, 0x00	; 0
     d14:	b0 e0       	ldi	r27, 0x00	; 0
     d16:	82 2b       	or	r24, r18
     d18:	93 2b       	or	r25, r19
     d1a:	a4 2b       	or	r26, r20
     d1c:	b5 2b       	or	r27, r21
     d1e:	80 93 3c 01 	sts	0x013C, r24	; 0x80013c <timestamp>
     d22:	90 93 3d 01 	sts	0x013D, r25	; 0x80013d <timestamp+0x1>
     d26:	a0 93 3e 01 	sts	0x013E, r26	; 0x80013e <timestamp+0x2>
     d2a:	b0 93 3f 01 	sts	0x013F, r27	; 0x80013f <timestamp+0x3>
     d2e:	80 91 dc 01 	lds	r24, 0x01DC	; 0x8001dc <mtable+0x2>
     d32:	90 91 dd 01 	lds	r25, 0x01DD	; 0x8001dd <mtable+0x3>
     d36:	89 2b       	or	r24, r25
     d38:	61 f0       	breq	.+24     	; 0xd52 <__vector_2+0xe2>
     d3a:	20 91 dc 01 	lds	r18, 0x01DC	; 0x8001dc <mtable+0x2>
     d3e:	30 91 dd 01 	lds	r19, 0x01DD	; 0x8001dd <mtable+0x3>
     d42:	80 91 44 01 	lds	r24, 0x0144	; 0x800144 <otable+0x2>
     d46:	90 91 45 01 	lds	r25, 0x0145	; 0x800145 <otable+0x3>
     d4a:	61 e0       	ldi	r22, 0x01	; 1
     d4c:	70 e0       	ldi	r23, 0x00	; 0
     d4e:	f9 01       	movw	r30, r18
     d50:	09 95       	icall
     d52:	0e 94 fc 12 	call	0x25f8	; 0x25f8 <schedule>
     d56:	00 00       	nop
     d58:	df 91       	pop	r29
     d5a:	cf 91       	pop	r28
     d5c:	ff 91       	pop	r31
     d5e:	ef 91       	pop	r30
     d60:	bf 91       	pop	r27
     d62:	af 91       	pop	r26
     d64:	9f 91       	pop	r25
     d66:	8f 91       	pop	r24
     d68:	7f 91       	pop	r23
     d6a:	6f 91       	pop	r22
     d6c:	5f 91       	pop	r21
     d6e:	4f 91       	pop	r20
     d70:	3f 91       	pop	r19
     d72:	2f 91       	pop	r18
     d74:	0f 90       	pop	r0
     d76:	00 92 5f 00 	sts	0x005F, r0	; 0x80005f <__TEXT_REGION_LENGTH__+0x7fc05f>
     d7a:	0f 90       	pop	r0
     d7c:	1f 90       	pop	r1
     d7e:	18 95       	reti

00000d80 <__vector_3>:
     d80:	1f 92       	push	r1
     d82:	0f 92       	push	r0
     d84:	00 90 5f 00 	lds	r0, 0x005F	; 0x80005f <__TEXT_REGION_LENGTH__+0x7fc05f>
     d88:	0f 92       	push	r0
     d8a:	11 24       	eor	r1, r1
     d8c:	2f 93       	push	r18
     d8e:	3f 93       	push	r19
     d90:	4f 93       	push	r20
     d92:	5f 93       	push	r21
     d94:	6f 93       	push	r22
     d96:	7f 93       	push	r23
     d98:	8f 93       	push	r24
     d9a:	9f 93       	push	r25
     d9c:	af 93       	push	r26
     d9e:	bf 93       	push	r27
     da0:	ef 93       	push	r30
     da2:	ff 93       	push	r31
     da4:	cf 93       	push	r28
     da6:	df 93       	push	r29
     da8:	cd b7       	in	r28, 0x3d	; 61
     daa:	de b7       	in	r29, 0x3e	; 62
     dac:	80 91 40 01 	lds	r24, 0x0140	; 0x800140 <overflows>
     db0:	90 91 41 01 	lds	r25, 0x0141	; 0x800141 <overflows+0x1>
     db4:	09 2e       	mov	r0, r25
     db6:	00 0c       	add	r0, r0
     db8:	aa 0b       	sbc	r26, r26
     dba:	bb 0b       	sbc	r27, r27
     dbc:	ac 01       	movw	r20, r24
     dbe:	33 27       	eor	r19, r19
     dc0:	22 27       	eor	r18, r18
     dc2:	84 e8       	ldi	r24, 0x84	; 132
     dc4:	90 e0       	ldi	r25, 0x00	; 0
     dc6:	fc 01       	movw	r30, r24
     dc8:	80 81       	ld	r24, Z
     dca:	91 81       	ldd	r25, Z+1	; 0x01
     dcc:	cc 01       	movw	r24, r24
     dce:	a0 e0       	ldi	r26, 0x00	; 0
     dd0:	b0 e0       	ldi	r27, 0x00	; 0
     dd2:	82 2b       	or	r24, r18
     dd4:	93 2b       	or	r25, r19
     dd6:	a4 2b       	or	r26, r20
     dd8:	b5 2b       	or	r27, r21
     dda:	80 93 3c 01 	sts	0x013C, r24	; 0x80013c <timestamp>
     dde:	90 93 3d 01 	sts	0x013D, r25	; 0x80013d <timestamp+0x1>
     de2:	a0 93 3e 01 	sts	0x013E, r26	; 0x80013e <timestamp+0x2>
     de6:	b0 93 3f 01 	sts	0x013F, r27	; 0x80013f <timestamp+0x3>
     dea:	86 e3       	ldi	r24, 0x36	; 54
     dec:	90 e0       	ldi	r25, 0x00	; 0
     dee:	fc 01       	movw	r30, r24
     df0:	80 81       	ld	r24, Z
     df2:	88 2f       	mov	r24, r24
     df4:	90 e0       	ldi	r25, 0x00	; 0
     df6:	81 70       	andi	r24, 0x01	; 1
     df8:	99 27       	eor	r25, r25
     dfa:	89 2b       	or	r24, r25
     dfc:	01 f1       	breq	.+64     	; 0xe3e <__vector_3+0xbe>
     dfe:	80 91 40 01 	lds	r24, 0x0140	; 0x800140 <overflows>
     e02:	90 91 41 01 	lds	r25, 0x0141	; 0x800141 <overflows+0x1>
     e06:	01 96       	adiw	r24, 0x01	; 1
     e08:	09 2e       	mov	r0, r25
     e0a:	00 0c       	add	r0, r0
     e0c:	aa 0b       	sbc	r26, r26
     e0e:	bb 0b       	sbc	r27, r27
     e10:	ac 01       	movw	r20, r24
     e12:	33 27       	eor	r19, r19
     e14:	22 27       	eor	r18, r18
     e16:	84 e8       	ldi	r24, 0x84	; 132
     e18:	90 e0       	ldi	r25, 0x00	; 0
     e1a:	fc 01       	movw	r30, r24
     e1c:	80 81       	ld	r24, Z
     e1e:	91 81       	ldd	r25, Z+1	; 0x01
     e20:	cc 01       	movw	r24, r24
     e22:	a0 e0       	ldi	r26, 0x00	; 0
     e24:	b0 e0       	ldi	r27, 0x00	; 0
     e26:	82 2b       	or	r24, r18
     e28:	93 2b       	or	r25, r19
     e2a:	a4 2b       	or	r26, r20
     e2c:	b5 2b       	or	r27, r21
     e2e:	80 93 3c 01 	sts	0x013C, r24	; 0x80013c <timestamp>
     e32:	90 93 3d 01 	sts	0x013D, r25	; 0x80013d <timestamp+0x1>
     e36:	a0 93 3e 01 	sts	0x013E, r26	; 0x80013e <timestamp+0x2>
     e3a:	b0 93 3f 01 	sts	0x013F, r27	; 0x80013f <timestamp+0x3>
     e3e:	80 91 de 01 	lds	r24, 0x01DE	; 0x8001de <mtable+0x4>
     e42:	90 91 df 01 	lds	r25, 0x01DF	; 0x8001df <mtable+0x5>
     e46:	89 2b       	or	r24, r25
     e48:	61 f0       	breq	.+24     	; 0xe62 <__vector_3+0xe2>
     e4a:	20 91 de 01 	lds	r18, 0x01DE	; 0x8001de <mtable+0x4>
     e4e:	30 91 df 01 	lds	r19, 0x01DF	; 0x8001df <mtable+0x5>
     e52:	80 91 46 01 	lds	r24, 0x0146	; 0x800146 <otable+0x4>
     e56:	90 91 47 01 	lds	r25, 0x0147	; 0x800147 <otable+0x5>
     e5a:	62 e0       	ldi	r22, 0x02	; 2
     e5c:	70 e0       	ldi	r23, 0x00	; 0
     e5e:	f9 01       	movw	r30, r18
     e60:	09 95       	icall
     e62:	0e 94 fc 12 	call	0x25f8	; 0x25f8 <schedule>
     e66:	00 00       	nop
     e68:	df 91       	pop	r29
     e6a:	cf 91       	pop	r28
     e6c:	ff 91       	pop	r31
     e6e:	ef 91       	pop	r30
     e70:	bf 91       	pop	r27
     e72:	af 91       	pop	r26
     e74:	9f 91       	pop	r25
     e76:	8f 91       	pop	r24
     e78:	7f 91       	pop	r23
     e7a:	6f 91       	pop	r22
     e7c:	5f 91       	pop	r21
     e7e:	4f 91       	pop	r20
     e80:	3f 91       	pop	r19
     e82:	2f 91       	pop	r18
     e84:	0f 90       	pop	r0
     e86:	00 92 5f 00 	sts	0x005F, r0	; 0x80005f <__TEXT_REGION_LENGTH__+0x7fc05f>
     e8a:	0f 90       	pop	r0
     e8c:	1f 90       	pop	r1
     e8e:	18 95       	reti

00000e90 <__vector_4>:
     e90:	1f 92       	push	r1
     e92:	0f 92       	push	r0
     e94:	00 90 5f 00 	lds	r0, 0x005F	; 0x80005f <__TEXT_REGION_LENGTH__+0x7fc05f>
     e98:	0f 92       	push	r0
     e9a:	11 24       	eor	r1, r1
     e9c:	2f 93       	push	r18
     e9e:	3f 93       	push	r19
     ea0:	4f 93       	push	r20
     ea2:	5f 93       	push	r21
     ea4:	6f 93       	push	r22
     ea6:	7f 93       	push	r23
     ea8:	8f 93       	push	r24
     eaa:	9f 93       	push	r25
     eac:	af 93       	push	r26
     eae:	bf 93       	push	r27
     eb0:	ef 93       	push	r30
     eb2:	ff 93       	push	r31
     eb4:	cf 93       	push	r28
     eb6:	df 93       	push	r29
     eb8:	cd b7       	in	r28, 0x3d	; 61
     eba:	de b7       	in	r29, 0x3e	; 62
     ebc:	80 91 40 01 	lds	r24, 0x0140	; 0x800140 <overflows>
     ec0:	90 91 41 01 	lds	r25, 0x0141	; 0x800141 <overflows+0x1>
     ec4:	09 2e       	mov	r0, r25
     ec6:	00 0c       	add	r0, r0
     ec8:	aa 0b       	sbc	r26, r26
     eca:	bb 0b       	sbc	r27, r27
     ecc:	ac 01       	movw	r20, r24
     ece:	33 27       	eor	r19, r19
     ed0:	22 27       	eor	r18, r18
     ed2:	84 e8       	ldi	r24, 0x84	; 132
     ed4:	90 e0       	ldi	r25, 0x00	; 0
     ed6:	fc 01       	movw	r30, r24
     ed8:	80 81       	ld	r24, Z
     eda:	91 81       	ldd	r25, Z+1	; 0x01
     edc:	cc 01       	movw	r24, r24
     ede:	a0 e0       	ldi	r26, 0x00	; 0
     ee0:	b0 e0       	ldi	r27, 0x00	; 0
     ee2:	82 2b       	or	r24, r18
     ee4:	93 2b       	or	r25, r19
     ee6:	a4 2b       	or	r26, r20
     ee8:	b5 2b       	or	r27, r21
     eea:	80 93 3c 01 	sts	0x013C, r24	; 0x80013c <timestamp>
     eee:	90 93 3d 01 	sts	0x013D, r25	; 0x80013d <timestamp+0x1>
     ef2:	a0 93 3e 01 	sts	0x013E, r26	; 0x80013e <timestamp+0x2>
     ef6:	b0 93 3f 01 	sts	0x013F, r27	; 0x80013f <timestamp+0x3>
     efa:	86 e3       	ldi	r24, 0x36	; 54
     efc:	90 e0       	ldi	r25, 0x00	; 0
     efe:	fc 01       	movw	r30, r24
     f00:	80 81       	ld	r24, Z
     f02:	88 2f       	mov	r24, r24
     f04:	90 e0       	ldi	r25, 0x00	; 0
     f06:	81 70       	andi	r24, 0x01	; 1
     f08:	99 27       	eor	r25, r25
     f0a:	89 2b       	or	r24, r25
     f0c:	01 f1       	breq	.+64     	; 0xf4e <__vector_4+0xbe>
     f0e:	80 91 40 01 	lds	r24, 0x0140	; 0x800140 <overflows>
     f12:	90 91 41 01 	lds	r25, 0x0141	; 0x800141 <overflows+0x1>
     f16:	01 96       	adiw	r24, 0x01	; 1
     f18:	09 2e       	mov	r0, r25
     f1a:	00 0c       	add	r0, r0
     f1c:	aa 0b       	sbc	r26, r26
     f1e:	bb 0b       	sbc	r27, r27
     f20:	ac 01       	movw	r20, r24
     f22:	33 27       	eor	r19, r19
     f24:	22 27       	eor	r18, r18
     f26:	84 e8       	ldi	r24, 0x84	; 132
     f28:	90 e0       	ldi	r25, 0x00	; 0
     f2a:	fc 01       	movw	r30, r24
     f2c:	80 81       	ld	r24, Z
     f2e:	91 81       	ldd	r25, Z+1	; 0x01
     f30:	cc 01       	movw	r24, r24
     f32:	a0 e0       	ldi	r26, 0x00	; 0
     f34:	b0 e0       	ldi	r27, 0x00	; 0
     f36:	82 2b       	or	r24, r18
     f38:	93 2b       	or	r25, r19
     f3a:	a4 2b       	or	r26, r20
     f3c:	b5 2b       	or	r27, r21
     f3e:	80 93 3c 01 	sts	0x013C, r24	; 0x80013c <timestamp>
     f42:	90 93 3d 01 	sts	0x013D, r25	; 0x80013d <timestamp+0x1>
     f46:	a0 93 3e 01 	sts	0x013E, r26	; 0x80013e <timestamp+0x2>
     f4a:	b0 93 3f 01 	sts	0x013F, r27	; 0x80013f <timestamp+0x3>
     f4e:	80 91 e0 01 	lds	r24, 0x01E0	; 0x8001e0 <mtable+0x6>
     f52:	90 91 e1 01 	lds	r25, 0x01E1	; 0x8001e1 <mtable+0x7>
     f56:	89 2b       	or	r24, r25
     f58:	61 f0       	breq	.+24     	; 0xf72 <__vector_4+0xe2>
     f5a:	20 91 e0 01 	lds	r18, 0x01E0	; 0x8001e0 <mtable+0x6>
     f5e:	30 91 e1 01 	lds	r19, 0x01E1	; 0x8001e1 <mtable+0x7>
     f62:	80 91 48 01 	lds	r24, 0x0148	; 0x800148 <otable+0x6>
     f66:	90 91 49 01 	lds	r25, 0x0149	; 0x800149 <otable+0x7>
     f6a:	63 e0       	ldi	r22, 0x03	; 3
     f6c:	70 e0       	ldi	r23, 0x00	; 0
     f6e:	f9 01       	movw	r30, r18
     f70:	09 95       	icall
     f72:	0e 94 fc 12 	call	0x25f8	; 0x25f8 <schedule>
     f76:	00 00       	nop
     f78:	df 91       	pop	r29
     f7a:	cf 91       	pop	r28
     f7c:	ff 91       	pop	r31
     f7e:	ef 91       	pop	r30
     f80:	bf 91       	pop	r27
     f82:	af 91       	pop	r26
     f84:	9f 91       	pop	r25
     f86:	8f 91       	pop	r24
     f88:	7f 91       	pop	r23
     f8a:	6f 91       	pop	r22
     f8c:	5f 91       	pop	r21
     f8e:	4f 91       	pop	r20
     f90:	3f 91       	pop	r19
     f92:	2f 91       	pop	r18
     f94:	0f 90       	pop	r0
     f96:	00 92 5f 00 	sts	0x005F, r0	; 0x80005f <__TEXT_REGION_LENGTH__+0x7fc05f>
     f9a:	0f 90       	pop	r0
     f9c:	1f 90       	pop	r1
     f9e:	18 95       	reti

00000fa0 <__vector_5>:
     fa0:	1f 92       	push	r1
     fa2:	0f 92       	push	r0
     fa4:	00 90 5f 00 	lds	r0, 0x005F	; 0x80005f <__TEXT_REGION_LENGTH__+0x7fc05f>
     fa8:	0f 92       	push	r0
     faa:	11 24       	eor	r1, r1
     fac:	2f 93       	push	r18
     fae:	3f 93       	push	r19
     fb0:	4f 93       	push	r20
     fb2:	5f 93       	push	r21
     fb4:	6f 93       	push	r22
     fb6:	7f 93       	push	r23
     fb8:	8f 93       	push	r24
     fba:	9f 93       	push	r25
     fbc:	af 93       	push	r26
     fbe:	bf 93       	push	r27
     fc0:	ef 93       	push	r30
     fc2:	ff 93       	push	r31
     fc4:	cf 93       	push	r28
     fc6:	df 93       	push	r29
     fc8:	cd b7       	in	r28, 0x3d	; 61
     fca:	de b7       	in	r29, 0x3e	; 62
     fcc:	80 91 40 01 	lds	r24, 0x0140	; 0x800140 <overflows>
     fd0:	90 91 41 01 	lds	r25, 0x0141	; 0x800141 <overflows+0x1>
     fd4:	09 2e       	mov	r0, r25
     fd6:	00 0c       	add	r0, r0
     fd8:	aa 0b       	sbc	r26, r26
     fda:	bb 0b       	sbc	r27, r27
     fdc:	ac 01       	movw	r20, r24
     fde:	33 27       	eor	r19, r19
     fe0:	22 27       	eor	r18, r18
     fe2:	84 e8       	ldi	r24, 0x84	; 132
     fe4:	90 e0       	ldi	r25, 0x00	; 0
     fe6:	fc 01       	movw	r30, r24
     fe8:	80 81       	ld	r24, Z
     fea:	91 81       	ldd	r25, Z+1	; 0x01
     fec:	cc 01       	movw	r24, r24
     fee:	a0 e0       	ldi	r26, 0x00	; 0
     ff0:	b0 e0       	ldi	r27, 0x00	; 0
     ff2:	82 2b       	or	r24, r18
     ff4:	93 2b       	or	r25, r19
     ff6:	a4 2b       	or	r26, r20
     ff8:	b5 2b       	or	r27, r21
     ffa:	80 93 3c 01 	sts	0x013C, r24	; 0x80013c <timestamp>
     ffe:	90 93 3d 01 	sts	0x013D, r25	; 0x80013d <timestamp+0x1>
    1002:	a0 93 3e 01 	sts	0x013E, r26	; 0x80013e <timestamp+0x2>
    1006:	b0 93 3f 01 	sts	0x013F, r27	; 0x80013f <timestamp+0x3>
    100a:	86 e3       	ldi	r24, 0x36	; 54
    100c:	90 e0       	ldi	r25, 0x00	; 0
    100e:	fc 01       	movw	r30, r24
    1010:	80 81       	ld	r24, Z
    1012:	88 2f       	mov	r24, r24
    1014:	90 e0       	ldi	r25, 0x00	; 0
    1016:	81 70       	andi	r24, 0x01	; 1
    1018:	99 27       	eor	r25, r25
    101a:	89 2b       	or	r24, r25
    101c:	01 f1       	breq	.+64     	; 0x105e <__vector_5+0xbe>
    101e:	80 91 40 01 	lds	r24, 0x0140	; 0x800140 <overflows>
    1022:	90 91 41 01 	lds	r25, 0x0141	; 0x800141 <overflows+0x1>
    1026:	01 96       	adiw	r24, 0x01	; 1
    1028:	09 2e       	mov	r0, r25
    102a:	00 0c       	add	r0, r0
    102c:	aa 0b       	sbc	r26, r26
    102e:	bb 0b       	sbc	r27, r27
    1030:	ac 01       	movw	r20, r24
    1032:	33 27       	eor	r19, r19
    1034:	22 27       	eor	r18, r18
    1036:	84 e8       	ldi	r24, 0x84	; 132
    1038:	90 e0       	ldi	r25, 0x00	; 0
    103a:	fc 01       	movw	r30, r24
    103c:	80 81       	ld	r24, Z
    103e:	91 81       	ldd	r25, Z+1	; 0x01
    1040:	cc 01       	movw	r24, r24
    1042:	a0 e0       	ldi	r26, 0x00	; 0
    1044:	b0 e0       	ldi	r27, 0x00	; 0
    1046:	82 2b       	or	r24, r18
    1048:	93 2b       	or	r25, r19
    104a:	a4 2b       	or	r26, r20
    104c:	b5 2b       	or	r27, r21
    104e:	80 93 3c 01 	sts	0x013C, r24	; 0x80013c <timestamp>
    1052:	90 93 3d 01 	sts	0x013D, r25	; 0x80013d <timestamp+0x1>
    1056:	a0 93 3e 01 	sts	0x013E, r26	; 0x80013e <timestamp+0x2>
    105a:	b0 93 3f 01 	sts	0x013F, r27	; 0x80013f <timestamp+0x3>
    105e:	80 91 e2 01 	lds	r24, 0x01E2	; 0x8001e2 <mtable+0x8>
    1062:	90 91 e3 01 	lds	r25, 0x01E3	; 0x8001e3 <mtable+0x9>
    1066:	89 2b       	or	r24, r25
    1068:	61 f0       	breq	.+24     	; 0x1082 <__vector_5+0xe2>
    106a:	20 91 e2 01 	lds	r18, 0x01E2	; 0x8001e2 <mtable+0x8>
    106e:	30 91 e3 01 	lds	r19, 0x01E3	; 0x8001e3 <mtable+0x9>
    1072:	80 91 4a 01 	lds	r24, 0x014A	; 0x80014a <otable+0x8>
    1076:	90 91 4b 01 	lds	r25, 0x014B	; 0x80014b <otable+0x9>
    107a:	64 e0       	ldi	r22, 0x04	; 4
    107c:	70 e0       	ldi	r23, 0x00	; 0
    107e:	f9 01       	movw	r30, r18
    1080:	09 95       	icall
    1082:	0e 94 fc 12 	call	0x25f8	; 0x25f8 <schedule>
    1086:	00 00       	nop
    1088:	df 91       	pop	r29
    108a:	cf 91       	pop	r28
    108c:	ff 91       	pop	r31
    108e:	ef 91       	pop	r30
    1090:	bf 91       	pop	r27
    1092:	af 91       	pop	r26
    1094:	9f 91       	pop	r25
    1096:	8f 91       	pop	r24
    1098:	7f 91       	pop	r23
    109a:	6f 91       	pop	r22
    109c:	5f 91       	pop	r21
    109e:	4f 91       	pop	r20
    10a0:	3f 91       	pop	r19
    10a2:	2f 91       	pop	r18
    10a4:	0f 90       	pop	r0
    10a6:	00 92 5f 00 	sts	0x005F, r0	; 0x80005f <__TEXT_REGION_LENGTH__+0x7fc05f>
    10aa:	0f 90       	pop	r0
    10ac:	1f 90       	pop	r1
    10ae:	18 95       	reti

000010b0 <__vector_10>:
    10b0:	1f 92       	push	r1
    10b2:	0f 92       	push	r0
    10b4:	00 90 5f 00 	lds	r0, 0x005F	; 0x80005f <__TEXT_REGION_LENGTH__+0x7fc05f>
    10b8:	0f 92       	push	r0
    10ba:	11 24       	eor	r1, r1
    10bc:	2f 93       	push	r18
    10be:	3f 93       	push	r19
    10c0:	4f 93       	push	r20
    10c2:	5f 93       	push	r21
    10c4:	6f 93       	push	r22
    10c6:	7f 93       	push	r23
    10c8:	8f 93       	push	r24
    10ca:	9f 93       	push	r25
    10cc:	af 93       	push	r26
    10ce:	bf 93       	push	r27
    10d0:	ef 93       	push	r30
    10d2:	ff 93       	push	r31
    10d4:	cf 93       	push	r28
    10d6:	df 93       	push	r29
    10d8:	cd b7       	in	r28, 0x3d	; 61
    10da:	de b7       	in	r29, 0x3e	; 62
    10dc:	80 91 40 01 	lds	r24, 0x0140	; 0x800140 <overflows>
    10e0:	90 91 41 01 	lds	r25, 0x0141	; 0x800141 <overflows+0x1>
    10e4:	09 2e       	mov	r0, r25
    10e6:	00 0c       	add	r0, r0
    10e8:	aa 0b       	sbc	r26, r26
    10ea:	bb 0b       	sbc	r27, r27
    10ec:	ac 01       	movw	r20, r24
    10ee:	33 27       	eor	r19, r19
    10f0:	22 27       	eor	r18, r18
    10f2:	84 e8       	ldi	r24, 0x84	; 132
    10f4:	90 e0       	ldi	r25, 0x00	; 0
    10f6:	fc 01       	movw	r30, r24
    10f8:	80 81       	ld	r24, Z
    10fa:	91 81       	ldd	r25, Z+1	; 0x01
    10fc:	cc 01       	movw	r24, r24
    10fe:	a0 e0       	ldi	r26, 0x00	; 0
    1100:	b0 e0       	ldi	r27, 0x00	; 0
    1102:	82 2b       	or	r24, r18
    1104:	93 2b       	or	r25, r19
    1106:	a4 2b       	or	r26, r20
    1108:	b5 2b       	or	r27, r21
    110a:	80 93 3c 01 	sts	0x013C, r24	; 0x80013c <timestamp>
    110e:	90 93 3d 01 	sts	0x013D, r25	; 0x80013d <timestamp+0x1>
    1112:	a0 93 3e 01 	sts	0x013E, r26	; 0x80013e <timestamp+0x2>
    1116:	b0 93 3f 01 	sts	0x013F, r27	; 0x80013f <timestamp+0x3>
    111a:	86 e3       	ldi	r24, 0x36	; 54
    111c:	90 e0       	ldi	r25, 0x00	; 0
    111e:	fc 01       	movw	r30, r24
    1120:	80 81       	ld	r24, Z
    1122:	88 2f       	mov	r24, r24
    1124:	90 e0       	ldi	r25, 0x00	; 0
    1126:	81 70       	andi	r24, 0x01	; 1
    1128:	99 27       	eor	r25, r25
    112a:	89 2b       	or	r24, r25
    112c:	01 f1       	breq	.+64     	; 0x116e <__vector_10+0xbe>
    112e:	80 91 40 01 	lds	r24, 0x0140	; 0x800140 <overflows>
    1132:	90 91 41 01 	lds	r25, 0x0141	; 0x800141 <overflows+0x1>
    1136:	01 96       	adiw	r24, 0x01	; 1
    1138:	09 2e       	mov	r0, r25
    113a:	00 0c       	add	r0, r0
    113c:	aa 0b       	sbc	r26, r26
    113e:	bb 0b       	sbc	r27, r27
    1140:	ac 01       	movw	r20, r24
    1142:	33 27       	eor	r19, r19
    1144:	22 27       	eor	r18, r18
    1146:	84 e8       	ldi	r24, 0x84	; 132
    1148:	90 e0       	ldi	r25, 0x00	; 0
    114a:	fc 01       	movw	r30, r24
    114c:	80 81       	ld	r24, Z
    114e:	91 81       	ldd	r25, Z+1	; 0x01
    1150:	cc 01       	movw	r24, r24
    1152:	a0 e0       	ldi	r26, 0x00	; 0
    1154:	b0 e0       	ldi	r27, 0x00	; 0
    1156:	82 2b       	or	r24, r18
    1158:	93 2b       	or	r25, r19
    115a:	a4 2b       	or	r26, r20
    115c:	b5 2b       	or	r27, r21
    115e:	80 93 3c 01 	sts	0x013C, r24	; 0x80013c <timestamp>
    1162:	90 93 3d 01 	sts	0x013D, r25	; 0x80013d <timestamp+0x1>
    1166:	a0 93 3e 01 	sts	0x013E, r26	; 0x80013e <timestamp+0x2>
    116a:	b0 93 3f 01 	sts	0x013F, r27	; 0x80013f <timestamp+0x3>
    116e:	80 91 e4 01 	lds	r24, 0x01E4	; 0x8001e4 <mtable+0xa>
    1172:	90 91 e5 01 	lds	r25, 0x01E5	; 0x8001e5 <mtable+0xb>
    1176:	89 2b       	or	r24, r25
    1178:	61 f0       	breq	.+24     	; 0x1192 <__vector_10+0xe2>
    117a:	20 91 e4 01 	lds	r18, 0x01E4	; 0x8001e4 <mtable+0xa>
    117e:	30 91 e5 01 	lds	r19, 0x01E5	; 0x8001e5 <mtable+0xb>
    1182:	80 91 4c 01 	lds	r24, 0x014C	; 0x80014c <otable+0xa>
    1186:	90 91 4d 01 	lds	r25, 0x014D	; 0x80014d <otable+0xb>
    118a:	65 e0       	ldi	r22, 0x05	; 5
    118c:	70 e0       	ldi	r23, 0x00	; 0
    118e:	f9 01       	movw	r30, r18
    1190:	09 95       	icall
    1192:	0e 94 fc 12 	call	0x25f8	; 0x25f8 <schedule>
    1196:	00 00       	nop
    1198:	df 91       	pop	r29
    119a:	cf 91       	pop	r28
    119c:	ff 91       	pop	r31
    119e:	ef 91       	pop	r30
    11a0:	bf 91       	pop	r27
    11a2:	af 91       	pop	r26
    11a4:	9f 91       	pop	r25
    11a6:	8f 91       	pop	r24
    11a8:	7f 91       	pop	r23
    11aa:	6f 91       	pop	r22
    11ac:	5f 91       	pop	r21
    11ae:	4f 91       	pop	r20
    11b0:	3f 91       	pop	r19
    11b2:	2f 91       	pop	r18
    11b4:	0f 90       	pop	r0
    11b6:	00 92 5f 00 	sts	0x005F, r0	; 0x80005f <__TEXT_REGION_LENGTH__+0x7fc05f>
    11ba:	0f 90       	pop	r0
    11bc:	1f 90       	pop	r1
    11be:	18 95       	reti

000011c0 <__vector_11>:
    11c0:	1f 92       	push	r1
    11c2:	0f 92       	push	r0
    11c4:	00 90 5f 00 	lds	r0, 0x005F	; 0x80005f <__TEXT_REGION_LENGTH__+0x7fc05f>
    11c8:	0f 92       	push	r0
    11ca:	11 24       	eor	r1, r1
    11cc:	2f 93       	push	r18
    11ce:	3f 93       	push	r19
    11d0:	4f 93       	push	r20
    11d2:	5f 93       	push	r21
    11d4:	6f 93       	push	r22
    11d6:	7f 93       	push	r23
    11d8:	8f 93       	push	r24
    11da:	9f 93       	push	r25
    11dc:	af 93       	push	r26
    11de:	bf 93       	push	r27
    11e0:	ef 93       	push	r30
    11e2:	ff 93       	push	r31
    11e4:	cf 93       	push	r28
    11e6:	df 93       	push	r29
    11e8:	cd b7       	in	r28, 0x3d	; 61
    11ea:	de b7       	in	r29, 0x3e	; 62
    11ec:	80 91 40 01 	lds	r24, 0x0140	; 0x800140 <overflows>
    11f0:	90 91 41 01 	lds	r25, 0x0141	; 0x800141 <overflows+0x1>
    11f4:	09 2e       	mov	r0, r25
    11f6:	00 0c       	add	r0, r0
    11f8:	aa 0b       	sbc	r26, r26
    11fa:	bb 0b       	sbc	r27, r27
    11fc:	ac 01       	movw	r20, r24
    11fe:	33 27       	eor	r19, r19
    1200:	22 27       	eor	r18, r18
    1202:	84 e8       	ldi	r24, 0x84	; 132
    1204:	90 e0       	ldi	r25, 0x00	; 0
    1206:	fc 01       	movw	r30, r24
    1208:	80 81       	ld	r24, Z
    120a:	91 81       	ldd	r25, Z+1	; 0x01
    120c:	cc 01       	movw	r24, r24
    120e:	a0 e0       	ldi	r26, 0x00	; 0
    1210:	b0 e0       	ldi	r27, 0x00	; 0
    1212:	82 2b       	or	r24, r18
    1214:	93 2b       	or	r25, r19
    1216:	a4 2b       	or	r26, r20
    1218:	b5 2b       	or	r27, r21
    121a:	80 93 3c 01 	sts	0x013C, r24	; 0x80013c <timestamp>
    121e:	90 93 3d 01 	sts	0x013D, r25	; 0x80013d <timestamp+0x1>
    1222:	a0 93 3e 01 	sts	0x013E, r26	; 0x80013e <timestamp+0x2>
    1226:	b0 93 3f 01 	sts	0x013F, r27	; 0x80013f <timestamp+0x3>
    122a:	86 e3       	ldi	r24, 0x36	; 54
    122c:	90 e0       	ldi	r25, 0x00	; 0
    122e:	fc 01       	movw	r30, r24
    1230:	80 81       	ld	r24, Z
    1232:	88 2f       	mov	r24, r24
    1234:	90 e0       	ldi	r25, 0x00	; 0
    1236:	81 70       	andi	r24, 0x01	; 1
    1238:	99 27       	eor	r25, r25
    123a:	89 2b       	or	r24, r25
    123c:	01 f1       	breq	.+64     	; 0x127e <__vector_11+0xbe>
    123e:	80 91 40 01 	lds	r24, 0x0140	; 0x800140 <overflows>
    1242:	90 91 41 01 	lds	r25, 0x0141	; 0x800141 <overflows+0x1>
    1246:	01 96       	adiw	r24, 0x01	; 1
    1248:	09 2e       	mov	r0, r25
    124a:	00 0c       	add	r0, r0
    124c:	aa 0b       	sbc	r26, r26
    124e:	bb 0b       	sbc	r27, r27
    1250:	ac 01       	movw	r20, r24
    1252:	33 27       	eor	r19, r19
    1254:	22 27       	eor	r18, r18
    1256:	84 e8       	ldi	r24, 0x84	; 132
    1258:	90 e0       	ldi	r25, 0x00	; 0
    125a:	fc 01       	movw	r30, r24
    125c:	80 81       	ld	r24, Z
    125e:	91 81       	ldd	r25, Z+1	; 0x01
    1260:	cc 01       	movw	r24, r24
    1262:	a0 e0       	ldi	r26, 0x00	; 0
    1264:	b0 e0       	ldi	r27, 0x00	; 0
    1266:	82 2b       	or	r24, r18
    1268:	93 2b       	or	r25, r19
    126a:	a4 2b       	or	r26, r20
    126c:	b5 2b       	or	r27, r21
    126e:	80 93 3c 01 	sts	0x013C, r24	; 0x80013c <timestamp>
    1272:	90 93 3d 01 	sts	0x013D, r25	; 0x80013d <timestamp+0x1>
    1276:	a0 93 3e 01 	sts	0x013E, r26	; 0x80013e <timestamp+0x2>
    127a:	b0 93 3f 01 	sts	0x013F, r27	; 0x80013f <timestamp+0x3>
    127e:	80 91 e6 01 	lds	r24, 0x01E6	; 0x8001e6 <mtable+0xc>
    1282:	90 91 e7 01 	lds	r25, 0x01E7	; 0x8001e7 <mtable+0xd>
    1286:	89 2b       	or	r24, r25
    1288:	61 f0       	breq	.+24     	; 0x12a2 <__vector_11+0xe2>
    128a:	20 91 e6 01 	lds	r18, 0x01E6	; 0x8001e6 <mtable+0xc>
    128e:	30 91 e7 01 	lds	r19, 0x01E7	; 0x8001e7 <mtable+0xd>
    1292:	80 91 4e 01 	lds	r24, 0x014E	; 0x80014e <otable+0xc>
    1296:	90 91 4f 01 	lds	r25, 0x014F	; 0x80014f <otable+0xd>
    129a:	66 e0       	ldi	r22, 0x06	; 6
    129c:	70 e0       	ldi	r23, 0x00	; 0
    129e:	f9 01       	movw	r30, r18
    12a0:	09 95       	icall
    12a2:	0e 94 fc 12 	call	0x25f8	; 0x25f8 <schedule>
    12a6:	00 00       	nop
    12a8:	df 91       	pop	r29
    12aa:	cf 91       	pop	r28
    12ac:	ff 91       	pop	r31
    12ae:	ef 91       	pop	r30
    12b0:	bf 91       	pop	r27
    12b2:	af 91       	pop	r26
    12b4:	9f 91       	pop	r25
    12b6:	8f 91       	pop	r24
    12b8:	7f 91       	pop	r23
    12ba:	6f 91       	pop	r22
    12bc:	5f 91       	pop	r21
    12be:	4f 91       	pop	r20
    12c0:	3f 91       	pop	r19
    12c2:	2f 91       	pop	r18
    12c4:	0f 90       	pop	r0
    12c6:	00 92 5f 00 	sts	0x005F, r0	; 0x80005f <__TEXT_REGION_LENGTH__+0x7fc05f>
    12ca:	0f 90       	pop	r0
    12cc:	1f 90       	pop	r1
    12ce:	18 95       	reti

000012d0 <__vector_12>:
    12d0:	1f 92       	push	r1
    12d2:	0f 92       	push	r0
    12d4:	00 90 5f 00 	lds	r0, 0x005F	; 0x80005f <__TEXT_REGION_LENGTH__+0x7fc05f>
    12d8:	0f 92       	push	r0
    12da:	11 24       	eor	r1, r1
    12dc:	2f 93       	push	r18
    12de:	3f 93       	push	r19
    12e0:	4f 93       	push	r20
    12e2:	5f 93       	push	r21
    12e4:	6f 93       	push	r22
    12e6:	7f 93       	push	r23
    12e8:	8f 93       	push	r24
    12ea:	9f 93       	push	r25
    12ec:	af 93       	push	r26
    12ee:	bf 93       	push	r27
    12f0:	ef 93       	push	r30
    12f2:	ff 93       	push	r31
    12f4:	cf 93       	push	r28
    12f6:	df 93       	push	r29
    12f8:	cd b7       	in	r28, 0x3d	; 61
    12fa:	de b7       	in	r29, 0x3e	; 62
    12fc:	80 91 40 01 	lds	r24, 0x0140	; 0x800140 <overflows>
    1300:	90 91 41 01 	lds	r25, 0x0141	; 0x800141 <overflows+0x1>
    1304:	09 2e       	mov	r0, r25
    1306:	00 0c       	add	r0, r0
    1308:	aa 0b       	sbc	r26, r26
    130a:	bb 0b       	sbc	r27, r27
    130c:	ac 01       	movw	r20, r24
    130e:	33 27       	eor	r19, r19
    1310:	22 27       	eor	r18, r18
    1312:	84 e8       	ldi	r24, 0x84	; 132
    1314:	90 e0       	ldi	r25, 0x00	; 0
    1316:	fc 01       	movw	r30, r24
    1318:	80 81       	ld	r24, Z
    131a:	91 81       	ldd	r25, Z+1	; 0x01
    131c:	cc 01       	movw	r24, r24
    131e:	a0 e0       	ldi	r26, 0x00	; 0
    1320:	b0 e0       	ldi	r27, 0x00	; 0
    1322:	82 2b       	or	r24, r18
    1324:	93 2b       	or	r25, r19
    1326:	a4 2b       	or	r26, r20
    1328:	b5 2b       	or	r27, r21
    132a:	80 93 3c 01 	sts	0x013C, r24	; 0x80013c <timestamp>
    132e:	90 93 3d 01 	sts	0x013D, r25	; 0x80013d <timestamp+0x1>
    1332:	a0 93 3e 01 	sts	0x013E, r26	; 0x80013e <timestamp+0x2>
    1336:	b0 93 3f 01 	sts	0x013F, r27	; 0x80013f <timestamp+0x3>
    133a:	86 e3       	ldi	r24, 0x36	; 54
    133c:	90 e0       	ldi	r25, 0x00	; 0
    133e:	fc 01       	movw	r30, r24
    1340:	80 81       	ld	r24, Z
    1342:	88 2f       	mov	r24, r24
    1344:	90 e0       	ldi	r25, 0x00	; 0
    1346:	81 70       	andi	r24, 0x01	; 1
    1348:	99 27       	eor	r25, r25
    134a:	89 2b       	or	r24, r25
    134c:	01 f1       	breq	.+64     	; 0x138e <__vector_12+0xbe>
    134e:	80 91 40 01 	lds	r24, 0x0140	; 0x800140 <overflows>
    1352:	90 91 41 01 	lds	r25, 0x0141	; 0x800141 <overflows+0x1>
    1356:	01 96       	adiw	r24, 0x01	; 1
    1358:	09 2e       	mov	r0, r25
    135a:	00 0c       	add	r0, r0
    135c:	aa 0b       	sbc	r26, r26
    135e:	bb 0b       	sbc	r27, r27
    1360:	ac 01       	movw	r20, r24
    1362:	33 27       	eor	r19, r19
    1364:	22 27       	eor	r18, r18
    1366:	84 e8       	ldi	r24, 0x84	; 132
    1368:	90 e0       	ldi	r25, 0x00	; 0
    136a:	fc 01       	movw	r30, r24
    136c:	80 81       	ld	r24, Z
    136e:	91 81       	ldd	r25, Z+1	; 0x01
    1370:	cc 01       	movw	r24, r24
    1372:	a0 e0       	ldi	r26, 0x00	; 0
    1374:	b0 e0       	ldi	r27, 0x00	; 0
    1376:	82 2b       	or	r24, r18
    1378:	93 2b       	or	r25, r19
    137a:	a4 2b       	or	r26, r20
    137c:	b5 2b       	or	r27, r21
    137e:	80 93 3c 01 	sts	0x013C, r24	; 0x80013c <timestamp>
    1382:	90 93 3d 01 	sts	0x013D, r25	; 0x80013d <timestamp+0x1>
    1386:	a0 93 3e 01 	sts	0x013E, r26	; 0x80013e <timestamp+0x2>
    138a:	b0 93 3f 01 	sts	0x013F, r27	; 0x80013f <timestamp+0x3>
    138e:	80 91 e8 01 	lds	r24, 0x01E8	; 0x8001e8 <mtable+0xe>
    1392:	90 91 e9 01 	lds	r25, 0x01E9	; 0x8001e9 <mtable+0xf>
    1396:	89 2b       	or	r24, r25
    1398:	61 f0       	breq	.+24     	; 0x13b2 <__vector_12+0xe2>
    139a:	20 91 e8 01 	lds	r18, 0x01E8	; 0x8001e8 <mtable+0xe>
    139e:	30 91 e9 01 	lds	r19, 0x01E9	; 0x8001e9 <mtable+0xf>
    13a2:	80 91 50 01 	lds	r24, 0x0150	; 0x800150 <otable+0xe>
    13a6:	90 91 51 01 	lds	r25, 0x0151	; 0x800151 <otable+0xf>
    13aa:	67 e0       	ldi	r22, 0x07	; 7
    13ac:	70 e0       	ldi	r23, 0x00	; 0
    13ae:	f9 01       	movw	r30, r18
    13b0:	09 95       	icall
    13b2:	0e 94 fc 12 	call	0x25f8	; 0x25f8 <schedule>
    13b6:	00 00       	nop
    13b8:	df 91       	pop	r29
    13ba:	cf 91       	pop	r28
    13bc:	ff 91       	pop	r31
    13be:	ef 91       	pop	r30
    13c0:	bf 91       	pop	r27
    13c2:	af 91       	pop	r26
    13c4:	9f 91       	pop	r25
    13c6:	8f 91       	pop	r24
    13c8:	7f 91       	pop	r23
    13ca:	6f 91       	pop	r22
    13cc:	5f 91       	pop	r21
    13ce:	4f 91       	pop	r20
    13d0:	3f 91       	pop	r19
    13d2:	2f 91       	pop	r18
    13d4:	0f 90       	pop	r0
    13d6:	00 92 5f 00 	sts	0x005F, r0	; 0x80005f <__TEXT_REGION_LENGTH__+0x7fc05f>
    13da:	0f 90       	pop	r0
    13dc:	1f 90       	pop	r1
    13de:	18 95       	reti

000013e0 <__vector_13>:
    13e0:	1f 92       	push	r1
    13e2:	0f 92       	push	r0
    13e4:	00 90 5f 00 	lds	r0, 0x005F	; 0x80005f <__TEXT_REGION_LENGTH__+0x7fc05f>
    13e8:	0f 92       	push	r0
    13ea:	11 24       	eor	r1, r1
    13ec:	2f 93       	push	r18
    13ee:	3f 93       	push	r19
    13f0:	4f 93       	push	r20
    13f2:	5f 93       	push	r21
    13f4:	6f 93       	push	r22
    13f6:	7f 93       	push	r23
    13f8:	8f 93       	push	r24
    13fa:	9f 93       	push	r25
    13fc:	af 93       	push	r26
    13fe:	bf 93       	push	r27
    1400:	ef 93       	push	r30
    1402:	ff 93       	push	r31
    1404:	cf 93       	push	r28
    1406:	df 93       	push	r29
    1408:	cd b7       	in	r28, 0x3d	; 61
    140a:	de b7       	in	r29, 0x3e	; 62
    140c:	80 91 40 01 	lds	r24, 0x0140	; 0x800140 <overflows>
    1410:	90 91 41 01 	lds	r25, 0x0141	; 0x800141 <overflows+0x1>
    1414:	09 2e       	mov	r0, r25
    1416:	00 0c       	add	r0, r0
    1418:	aa 0b       	sbc	r26, r26
    141a:	bb 0b       	sbc	r27, r27
    141c:	ac 01       	movw	r20, r24
    141e:	33 27       	eor	r19, r19
    1420:	22 27       	eor	r18, r18
    1422:	84 e8       	ldi	r24, 0x84	; 132
    1424:	90 e0       	ldi	r25, 0x00	; 0
    1426:	fc 01       	movw	r30, r24
    1428:	80 81       	ld	r24, Z
    142a:	91 81       	ldd	r25, Z+1	; 0x01
    142c:	cc 01       	movw	r24, r24
    142e:	a0 e0       	ldi	r26, 0x00	; 0
    1430:	b0 e0       	ldi	r27, 0x00	; 0
    1432:	82 2b       	or	r24, r18
    1434:	93 2b       	or	r25, r19
    1436:	a4 2b       	or	r26, r20
    1438:	b5 2b       	or	r27, r21
    143a:	80 93 3c 01 	sts	0x013C, r24	; 0x80013c <timestamp>
    143e:	90 93 3d 01 	sts	0x013D, r25	; 0x80013d <timestamp+0x1>
    1442:	a0 93 3e 01 	sts	0x013E, r26	; 0x80013e <timestamp+0x2>
    1446:	b0 93 3f 01 	sts	0x013F, r27	; 0x80013f <timestamp+0x3>
    144a:	86 e3       	ldi	r24, 0x36	; 54
    144c:	90 e0       	ldi	r25, 0x00	; 0
    144e:	fc 01       	movw	r30, r24
    1450:	80 81       	ld	r24, Z
    1452:	88 2f       	mov	r24, r24
    1454:	90 e0       	ldi	r25, 0x00	; 0
    1456:	81 70       	andi	r24, 0x01	; 1
    1458:	99 27       	eor	r25, r25
    145a:	89 2b       	or	r24, r25
    145c:	01 f1       	breq	.+64     	; 0x149e <__vector_13+0xbe>
    145e:	80 91 40 01 	lds	r24, 0x0140	; 0x800140 <overflows>
    1462:	90 91 41 01 	lds	r25, 0x0141	; 0x800141 <overflows+0x1>
    1466:	01 96       	adiw	r24, 0x01	; 1
    1468:	09 2e       	mov	r0, r25
    146a:	00 0c       	add	r0, r0
    146c:	aa 0b       	sbc	r26, r26
    146e:	bb 0b       	sbc	r27, r27
    1470:	ac 01       	movw	r20, r24
    1472:	33 27       	eor	r19, r19
    1474:	22 27       	eor	r18, r18
    1476:	84 e8       	ldi	r24, 0x84	; 132
    1478:	90 e0       	ldi	r25, 0x00	; 0
    147a:	fc 01       	movw	r30, r24
    147c:	80 81       	ld	r24, Z
    147e:	91 81       	ldd	r25, Z+1	; 0x01
    1480:	cc 01       	movw	r24, r24
    1482:	a0 e0       	ldi	r26, 0x00	; 0
    1484:	b0 e0       	ldi	r27, 0x00	; 0
    1486:	82 2b       	or	r24, r18
    1488:	93 2b       	or	r25, r19
    148a:	a4 2b       	or	r26, r20
    148c:	b5 2b       	or	r27, r21
    148e:	80 93 3c 01 	sts	0x013C, r24	; 0x80013c <timestamp>
    1492:	90 93 3d 01 	sts	0x013D, r25	; 0x80013d <timestamp+0x1>
    1496:	a0 93 3e 01 	sts	0x013E, r26	; 0x80013e <timestamp+0x2>
    149a:	b0 93 3f 01 	sts	0x013F, r27	; 0x80013f <timestamp+0x3>
    149e:	80 91 ea 01 	lds	r24, 0x01EA	; 0x8001ea <mtable+0x10>
    14a2:	90 91 eb 01 	lds	r25, 0x01EB	; 0x8001eb <mtable+0x11>
    14a6:	89 2b       	or	r24, r25
    14a8:	61 f0       	breq	.+24     	; 0x14c2 <__vector_13+0xe2>
    14aa:	20 91 ea 01 	lds	r18, 0x01EA	; 0x8001ea <mtable+0x10>
    14ae:	30 91 eb 01 	lds	r19, 0x01EB	; 0x8001eb <mtable+0x11>
    14b2:	80 91 52 01 	lds	r24, 0x0152	; 0x800152 <otable+0x10>
    14b6:	90 91 53 01 	lds	r25, 0x0153	; 0x800153 <otable+0x11>
    14ba:	68 e0       	ldi	r22, 0x08	; 8
    14bc:	70 e0       	ldi	r23, 0x00	; 0
    14be:	f9 01       	movw	r30, r18
    14c0:	09 95       	icall
    14c2:	0e 94 fc 12 	call	0x25f8	; 0x25f8 <schedule>
    14c6:	00 00       	nop
    14c8:	df 91       	pop	r29
    14ca:	cf 91       	pop	r28
    14cc:	ff 91       	pop	r31
    14ce:	ef 91       	pop	r30
    14d0:	bf 91       	pop	r27
    14d2:	af 91       	pop	r26
    14d4:	9f 91       	pop	r25
    14d6:	8f 91       	pop	r24
    14d8:	7f 91       	pop	r23
    14da:	6f 91       	pop	r22
    14dc:	5f 91       	pop	r21
    14de:	4f 91       	pop	r20
    14e0:	3f 91       	pop	r19
    14e2:	2f 91       	pop	r18
    14e4:	0f 90       	pop	r0
    14e6:	00 92 5f 00 	sts	0x005F, r0	; 0x80005f <__TEXT_REGION_LENGTH__+0x7fc05f>
    14ea:	0f 90       	pop	r0
    14ec:	1f 90       	pop	r1
    14ee:	18 95       	reti

000014f0 <__vector_14>:
    14f0:	1f 92       	push	r1
    14f2:	0f 92       	push	r0
    14f4:	00 90 5f 00 	lds	r0, 0x005F	; 0x80005f <__TEXT_REGION_LENGTH__+0x7fc05f>
    14f8:	0f 92       	push	r0
    14fa:	11 24       	eor	r1, r1
    14fc:	2f 93       	push	r18
    14fe:	3f 93       	push	r19
    1500:	4f 93       	push	r20
    1502:	5f 93       	push	r21
    1504:	6f 93       	push	r22
    1506:	7f 93       	push	r23
    1508:	8f 93       	push	r24
    150a:	9f 93       	push	r25
    150c:	af 93       	push	r26
    150e:	bf 93       	push	r27
    1510:	ef 93       	push	r30
    1512:	ff 93       	push	r31
    1514:	cf 93       	push	r28
    1516:	df 93       	push	r29
    1518:	cd b7       	in	r28, 0x3d	; 61
    151a:	de b7       	in	r29, 0x3e	; 62
    151c:	80 91 40 01 	lds	r24, 0x0140	; 0x800140 <overflows>
    1520:	90 91 41 01 	lds	r25, 0x0141	; 0x800141 <overflows+0x1>
    1524:	09 2e       	mov	r0, r25
    1526:	00 0c       	add	r0, r0
    1528:	aa 0b       	sbc	r26, r26
    152a:	bb 0b       	sbc	r27, r27
    152c:	ac 01       	movw	r20, r24
    152e:	33 27       	eor	r19, r19
    1530:	22 27       	eor	r18, r18
    1532:	84 e8       	ldi	r24, 0x84	; 132
    1534:	90 e0       	ldi	r25, 0x00	; 0
    1536:	fc 01       	movw	r30, r24
    1538:	80 81       	ld	r24, Z
    153a:	91 81       	ldd	r25, Z+1	; 0x01
    153c:	cc 01       	movw	r24, r24
    153e:	a0 e0       	ldi	r26, 0x00	; 0
    1540:	b0 e0       	ldi	r27, 0x00	; 0
    1542:	82 2b       	or	r24, r18
    1544:	93 2b       	or	r25, r19
    1546:	a4 2b       	or	r26, r20
    1548:	b5 2b       	or	r27, r21
    154a:	80 93 3c 01 	sts	0x013C, r24	; 0x80013c <timestamp>
    154e:	90 93 3d 01 	sts	0x013D, r25	; 0x80013d <timestamp+0x1>
    1552:	a0 93 3e 01 	sts	0x013E, r26	; 0x80013e <timestamp+0x2>
    1556:	b0 93 3f 01 	sts	0x013F, r27	; 0x80013f <timestamp+0x3>
    155a:	86 e3       	ldi	r24, 0x36	; 54
    155c:	90 e0       	ldi	r25, 0x00	; 0
    155e:	fc 01       	movw	r30, r24
    1560:	80 81       	ld	r24, Z
    1562:	88 2f       	mov	r24, r24
    1564:	90 e0       	ldi	r25, 0x00	; 0
    1566:	81 70       	andi	r24, 0x01	; 1
    1568:	99 27       	eor	r25, r25
    156a:	89 2b       	or	r24, r25
    156c:	01 f1       	breq	.+64     	; 0x15ae <__vector_14+0xbe>
    156e:	80 91 40 01 	lds	r24, 0x0140	; 0x800140 <overflows>
    1572:	90 91 41 01 	lds	r25, 0x0141	; 0x800141 <overflows+0x1>
    1576:	01 96       	adiw	r24, 0x01	; 1
    1578:	09 2e       	mov	r0, r25
    157a:	00 0c       	add	r0, r0
    157c:	aa 0b       	sbc	r26, r26
    157e:	bb 0b       	sbc	r27, r27
    1580:	ac 01       	movw	r20, r24
    1582:	33 27       	eor	r19, r19
    1584:	22 27       	eor	r18, r18
    1586:	84 e8       	ldi	r24, 0x84	; 132
    1588:	90 e0       	ldi	r25, 0x00	; 0
    158a:	fc 01       	movw	r30, r24
    158c:	80 81       	ld	r24, Z
    158e:	91 81       	ldd	r25, Z+1	; 0x01
    1590:	cc 01       	movw	r24, r24
    1592:	a0 e0       	ldi	r26, 0x00	; 0
    1594:	b0 e0       	ldi	r27, 0x00	; 0
    1596:	82 2b       	or	r24, r18
    1598:	93 2b       	or	r25, r19
    159a:	a4 2b       	or	r26, r20
    159c:	b5 2b       	or	r27, r21
    159e:	80 93 3c 01 	sts	0x013C, r24	; 0x80013c <timestamp>
    15a2:	90 93 3d 01 	sts	0x013D, r25	; 0x80013d <timestamp+0x1>
    15a6:	a0 93 3e 01 	sts	0x013E, r26	; 0x80013e <timestamp+0x2>
    15aa:	b0 93 3f 01 	sts	0x013F, r27	; 0x80013f <timestamp+0x3>
    15ae:	80 91 ec 01 	lds	r24, 0x01EC	; 0x8001ec <mtable+0x12>
    15b2:	90 91 ed 01 	lds	r25, 0x01ED	; 0x8001ed <mtable+0x13>
    15b6:	89 2b       	or	r24, r25
    15b8:	61 f0       	breq	.+24     	; 0x15d2 <__vector_14+0xe2>
    15ba:	20 91 ec 01 	lds	r18, 0x01EC	; 0x8001ec <mtable+0x12>
    15be:	30 91 ed 01 	lds	r19, 0x01ED	; 0x8001ed <mtable+0x13>
    15c2:	80 91 54 01 	lds	r24, 0x0154	; 0x800154 <otable+0x12>
    15c6:	90 91 55 01 	lds	r25, 0x0155	; 0x800155 <otable+0x13>
    15ca:	69 e0       	ldi	r22, 0x09	; 9
    15cc:	70 e0       	ldi	r23, 0x00	; 0
    15ce:	f9 01       	movw	r30, r18
    15d0:	09 95       	icall
    15d2:	0e 94 fc 12 	call	0x25f8	; 0x25f8 <schedule>
    15d6:	00 00       	nop
    15d8:	df 91       	pop	r29
    15da:	cf 91       	pop	r28
    15dc:	ff 91       	pop	r31
    15de:	ef 91       	pop	r30
    15e0:	bf 91       	pop	r27
    15e2:	af 91       	pop	r26
    15e4:	9f 91       	pop	r25
    15e6:	8f 91       	pop	r24
    15e8:	7f 91       	pop	r23
    15ea:	6f 91       	pop	r22
    15ec:	5f 91       	pop	r21
    15ee:	4f 91       	pop	r20
    15f0:	3f 91       	pop	r19
    15f2:	2f 91       	pop	r18
    15f4:	0f 90       	pop	r0
    15f6:	00 92 5f 00 	sts	0x005F, r0	; 0x80005f <__TEXT_REGION_LENGTH__+0x7fc05f>
    15fa:	0f 90       	pop	r0
    15fc:	1f 90       	pop	r1
    15fe:	18 95       	reti

00001600 <__vector_15>:
    1600:	1f 92       	push	r1
    1602:	0f 92       	push	r0
    1604:	00 90 5f 00 	lds	r0, 0x005F	; 0x80005f <__TEXT_REGION_LENGTH__+0x7fc05f>
    1608:	0f 92       	push	r0
    160a:	11 24       	eor	r1, r1
    160c:	2f 93       	push	r18
    160e:	3f 93       	push	r19
    1610:	4f 93       	push	r20
    1612:	5f 93       	push	r21
    1614:	6f 93       	push	r22
    1616:	7f 93       	push	r23
    1618:	8f 93       	push	r24
    161a:	9f 93       	push	r25
    161c:	af 93       	push	r26
    161e:	bf 93       	push	r27
    1620:	ef 93       	push	r30
    1622:	ff 93       	push	r31
    1624:	cf 93       	push	r28
    1626:	df 93       	push	r29
    1628:	cd b7       	in	r28, 0x3d	; 61
    162a:	de b7       	in	r29, 0x3e	; 62
    162c:	80 91 40 01 	lds	r24, 0x0140	; 0x800140 <overflows>
    1630:	90 91 41 01 	lds	r25, 0x0141	; 0x800141 <overflows+0x1>
    1634:	09 2e       	mov	r0, r25
    1636:	00 0c       	add	r0, r0
    1638:	aa 0b       	sbc	r26, r26
    163a:	bb 0b       	sbc	r27, r27
    163c:	ac 01       	movw	r20, r24
    163e:	33 27       	eor	r19, r19
    1640:	22 27       	eor	r18, r18
    1642:	84 e8       	ldi	r24, 0x84	; 132
    1644:	90 e0       	ldi	r25, 0x00	; 0
    1646:	fc 01       	movw	r30, r24
    1648:	80 81       	ld	r24, Z
    164a:	91 81       	ldd	r25, Z+1	; 0x01
    164c:	cc 01       	movw	r24, r24
    164e:	a0 e0       	ldi	r26, 0x00	; 0
    1650:	b0 e0       	ldi	r27, 0x00	; 0
    1652:	82 2b       	or	r24, r18
    1654:	93 2b       	or	r25, r19
    1656:	a4 2b       	or	r26, r20
    1658:	b5 2b       	or	r27, r21
    165a:	80 93 3c 01 	sts	0x013C, r24	; 0x80013c <timestamp>
    165e:	90 93 3d 01 	sts	0x013D, r25	; 0x80013d <timestamp+0x1>
    1662:	a0 93 3e 01 	sts	0x013E, r26	; 0x80013e <timestamp+0x2>
    1666:	b0 93 3f 01 	sts	0x013F, r27	; 0x80013f <timestamp+0x3>
    166a:	86 e3       	ldi	r24, 0x36	; 54
    166c:	90 e0       	ldi	r25, 0x00	; 0
    166e:	fc 01       	movw	r30, r24
    1670:	80 81       	ld	r24, Z
    1672:	88 2f       	mov	r24, r24
    1674:	90 e0       	ldi	r25, 0x00	; 0
    1676:	81 70       	andi	r24, 0x01	; 1
    1678:	99 27       	eor	r25, r25
    167a:	89 2b       	or	r24, r25
    167c:	01 f1       	breq	.+64     	; 0x16be <__vector_15+0xbe>
    167e:	80 91 40 01 	lds	r24, 0x0140	; 0x800140 <overflows>
    1682:	90 91 41 01 	lds	r25, 0x0141	; 0x800141 <overflows+0x1>
    1686:	01 96       	adiw	r24, 0x01	; 1
    1688:	09 2e       	mov	r0, r25
    168a:	00 0c       	add	r0, r0
    168c:	aa 0b       	sbc	r26, r26
    168e:	bb 0b       	sbc	r27, r27
    1690:	ac 01       	movw	r20, r24
    1692:	33 27       	eor	r19, r19
    1694:	22 27       	eor	r18, r18
    1696:	84 e8       	ldi	r24, 0x84	; 132
    1698:	90 e0       	ldi	r25, 0x00	; 0
    169a:	fc 01       	movw	r30, r24
    169c:	80 81       	ld	r24, Z
    169e:	91 81       	ldd	r25, Z+1	; 0x01
    16a0:	cc 01       	movw	r24, r24
    16a2:	a0 e0       	ldi	r26, 0x00	; 0
    16a4:	b0 e0       	ldi	r27, 0x00	; 0
    16a6:	82 2b       	or	r24, r18
    16a8:	93 2b       	or	r25, r19
    16aa:	a4 2b       	or	r26, r20
    16ac:	b5 2b       	or	r27, r21
    16ae:	80 93 3c 01 	sts	0x013C, r24	; 0x80013c <timestamp>
    16b2:	90 93 3d 01 	sts	0x013D, r25	; 0x80013d <timestamp+0x1>
    16b6:	a0 93 3e 01 	sts	0x013E, r26	; 0x80013e <timestamp+0x2>
    16ba:	b0 93 3f 01 	sts	0x013F, r27	; 0x80013f <timestamp+0x3>
    16be:	80 91 ee 01 	lds	r24, 0x01EE	; 0x8001ee <mtable+0x14>
    16c2:	90 91 ef 01 	lds	r25, 0x01EF	; 0x8001ef <mtable+0x15>
    16c6:	89 2b       	or	r24, r25
    16c8:	61 f0       	breq	.+24     	; 0x16e2 <__vector_15+0xe2>
    16ca:	20 91 ee 01 	lds	r18, 0x01EE	; 0x8001ee <mtable+0x14>
    16ce:	30 91 ef 01 	lds	r19, 0x01EF	; 0x8001ef <mtable+0x15>
    16d2:	80 91 56 01 	lds	r24, 0x0156	; 0x800156 <otable+0x14>
    16d6:	90 91 57 01 	lds	r25, 0x0157	; 0x800157 <otable+0x15>
    16da:	6a e0       	ldi	r22, 0x0A	; 10
    16dc:	70 e0       	ldi	r23, 0x00	; 0
    16de:	f9 01       	movw	r30, r18
    16e0:	09 95       	icall
    16e2:	0e 94 fc 12 	call	0x25f8	; 0x25f8 <schedule>
    16e6:	00 00       	nop
    16e8:	df 91       	pop	r29
    16ea:	cf 91       	pop	r28
    16ec:	ff 91       	pop	r31
    16ee:	ef 91       	pop	r30
    16f0:	bf 91       	pop	r27
    16f2:	af 91       	pop	r26
    16f4:	9f 91       	pop	r25
    16f6:	8f 91       	pop	r24
    16f8:	7f 91       	pop	r23
    16fa:	6f 91       	pop	r22
    16fc:	5f 91       	pop	r21
    16fe:	4f 91       	pop	r20
    1700:	3f 91       	pop	r19
    1702:	2f 91       	pop	r18
    1704:	0f 90       	pop	r0
    1706:	00 92 5f 00 	sts	0x005F, r0	; 0x80005f <__TEXT_REGION_LENGTH__+0x7fc05f>
    170a:	0f 90       	pop	r0
    170c:	1f 90       	pop	r1
    170e:	18 95       	reti

00001710 <__vector_16>:
    1710:	1f 92       	push	r1
    1712:	0f 92       	push	r0
    1714:	00 90 5f 00 	lds	r0, 0x005F	; 0x80005f <__TEXT_REGION_LENGTH__+0x7fc05f>
    1718:	0f 92       	push	r0
    171a:	11 24       	eor	r1, r1
    171c:	2f 93       	push	r18
    171e:	3f 93       	push	r19
    1720:	4f 93       	push	r20
    1722:	5f 93       	push	r21
    1724:	6f 93       	push	r22
    1726:	7f 93       	push	r23
    1728:	8f 93       	push	r24
    172a:	9f 93       	push	r25
    172c:	af 93       	push	r26
    172e:	bf 93       	push	r27
    1730:	ef 93       	push	r30
    1732:	ff 93       	push	r31
    1734:	cf 93       	push	r28
    1736:	df 93       	push	r29
    1738:	cd b7       	in	r28, 0x3d	; 61
    173a:	de b7       	in	r29, 0x3e	; 62
    173c:	80 91 40 01 	lds	r24, 0x0140	; 0x800140 <overflows>
    1740:	90 91 41 01 	lds	r25, 0x0141	; 0x800141 <overflows+0x1>
    1744:	09 2e       	mov	r0, r25
    1746:	00 0c       	add	r0, r0
    1748:	aa 0b       	sbc	r26, r26
    174a:	bb 0b       	sbc	r27, r27
    174c:	ac 01       	movw	r20, r24
    174e:	33 27       	eor	r19, r19
    1750:	22 27       	eor	r18, r18
    1752:	84 e8       	ldi	r24, 0x84	; 132
    1754:	90 e0       	ldi	r25, 0x00	; 0
    1756:	fc 01       	movw	r30, r24
    1758:	80 81       	ld	r24, Z
    175a:	91 81       	ldd	r25, Z+1	; 0x01
    175c:	cc 01       	movw	r24, r24
    175e:	a0 e0       	ldi	r26, 0x00	; 0
    1760:	b0 e0       	ldi	r27, 0x00	; 0
    1762:	82 2b       	or	r24, r18
    1764:	93 2b       	or	r25, r19
    1766:	a4 2b       	or	r26, r20
    1768:	b5 2b       	or	r27, r21
    176a:	80 93 3c 01 	sts	0x013C, r24	; 0x80013c <timestamp>
    176e:	90 93 3d 01 	sts	0x013D, r25	; 0x80013d <timestamp+0x1>
    1772:	a0 93 3e 01 	sts	0x013E, r26	; 0x80013e <timestamp+0x2>
    1776:	b0 93 3f 01 	sts	0x013F, r27	; 0x80013f <timestamp+0x3>
    177a:	86 e3       	ldi	r24, 0x36	; 54
    177c:	90 e0       	ldi	r25, 0x00	; 0
    177e:	fc 01       	movw	r30, r24
    1780:	80 81       	ld	r24, Z
    1782:	88 2f       	mov	r24, r24
    1784:	90 e0       	ldi	r25, 0x00	; 0
    1786:	81 70       	andi	r24, 0x01	; 1
    1788:	99 27       	eor	r25, r25
    178a:	89 2b       	or	r24, r25
    178c:	01 f1       	breq	.+64     	; 0x17ce <__vector_16+0xbe>
    178e:	80 91 40 01 	lds	r24, 0x0140	; 0x800140 <overflows>
    1792:	90 91 41 01 	lds	r25, 0x0141	; 0x800141 <overflows+0x1>
    1796:	01 96       	adiw	r24, 0x01	; 1
    1798:	09 2e       	mov	r0, r25
    179a:	00 0c       	add	r0, r0
    179c:	aa 0b       	sbc	r26, r26
    179e:	bb 0b       	sbc	r27, r27
    17a0:	ac 01       	movw	r20, r24
    17a2:	33 27       	eor	r19, r19
    17a4:	22 27       	eor	r18, r18
    17a6:	84 e8       	ldi	r24, 0x84	; 132
    17a8:	90 e0       	ldi	r25, 0x00	; 0
    17aa:	fc 01       	movw	r30, r24
    17ac:	80 81       	ld	r24, Z
    17ae:	91 81       	ldd	r25, Z+1	; 0x01
    17b0:	cc 01       	movw	r24, r24
    17b2:	a0 e0       	ldi	r26, 0x00	; 0
    17b4:	b0 e0       	ldi	r27, 0x00	; 0
    17b6:	82 2b       	or	r24, r18
    17b8:	93 2b       	or	r25, r19
    17ba:	a4 2b       	or	r26, r20
    17bc:	b5 2b       	or	r27, r21
    17be:	80 93 3c 01 	sts	0x013C, r24	; 0x80013c <timestamp>
    17c2:	90 93 3d 01 	sts	0x013D, r25	; 0x80013d <timestamp+0x1>
    17c6:	a0 93 3e 01 	sts	0x013E, r26	; 0x80013e <timestamp+0x2>
    17ca:	b0 93 3f 01 	sts	0x013F, r27	; 0x80013f <timestamp+0x3>
    17ce:	80 91 f0 01 	lds	r24, 0x01F0	; 0x8001f0 <mtable+0x16>
    17d2:	90 91 f1 01 	lds	r25, 0x01F1	; 0x8001f1 <mtable+0x17>
    17d6:	89 2b       	or	r24, r25
    17d8:	61 f0       	breq	.+24     	; 0x17f2 <__vector_16+0xe2>
    17da:	20 91 f0 01 	lds	r18, 0x01F0	; 0x8001f0 <mtable+0x16>
    17de:	30 91 f1 01 	lds	r19, 0x01F1	; 0x8001f1 <mtable+0x17>
    17e2:	80 91 58 01 	lds	r24, 0x0158	; 0x800158 <otable+0x16>
    17e6:	90 91 59 01 	lds	r25, 0x0159	; 0x800159 <otable+0x17>
    17ea:	6b e0       	ldi	r22, 0x0B	; 11
    17ec:	70 e0       	ldi	r23, 0x00	; 0
    17ee:	f9 01       	movw	r30, r18
    17f0:	09 95       	icall
    17f2:	0e 94 fc 12 	call	0x25f8	; 0x25f8 <schedule>
    17f6:	00 00       	nop
    17f8:	df 91       	pop	r29
    17fa:	cf 91       	pop	r28
    17fc:	ff 91       	pop	r31
    17fe:	ef 91       	pop	r30
    1800:	bf 91       	pop	r27
    1802:	af 91       	pop	r26
    1804:	9f 91       	pop	r25
    1806:	8f 91       	pop	r24
    1808:	7f 91       	pop	r23
    180a:	6f 91       	pop	r22
    180c:	5f 91       	pop	r21
    180e:	4f 91       	pop	r20
    1810:	3f 91       	pop	r19
    1812:	2f 91       	pop	r18
    1814:	0f 90       	pop	r0
    1816:	00 92 5f 00 	sts	0x005F, r0	; 0x80005f <__TEXT_REGION_LENGTH__+0x7fc05f>
    181a:	0f 90       	pop	r0
    181c:	1f 90       	pop	r1
    181e:	18 95       	reti

00001820 <__vector_17>:
    1820:	1f 92       	push	r1
    1822:	0f 92       	push	r0
    1824:	00 90 5f 00 	lds	r0, 0x005F	; 0x80005f <__TEXT_REGION_LENGTH__+0x7fc05f>
    1828:	0f 92       	push	r0
    182a:	11 24       	eor	r1, r1
    182c:	2f 93       	push	r18
    182e:	3f 93       	push	r19
    1830:	4f 93       	push	r20
    1832:	5f 93       	push	r21
    1834:	6f 93       	push	r22
    1836:	7f 93       	push	r23
    1838:	8f 93       	push	r24
    183a:	9f 93       	push	r25
    183c:	af 93       	push	r26
    183e:	bf 93       	push	r27
    1840:	ef 93       	push	r30
    1842:	ff 93       	push	r31
    1844:	cf 93       	push	r28
    1846:	df 93       	push	r29
    1848:	cd b7       	in	r28, 0x3d	; 61
    184a:	de b7       	in	r29, 0x3e	; 62
    184c:	80 91 40 01 	lds	r24, 0x0140	; 0x800140 <overflows>
    1850:	90 91 41 01 	lds	r25, 0x0141	; 0x800141 <overflows+0x1>
    1854:	09 2e       	mov	r0, r25
    1856:	00 0c       	add	r0, r0
    1858:	aa 0b       	sbc	r26, r26
    185a:	bb 0b       	sbc	r27, r27
    185c:	ac 01       	movw	r20, r24
    185e:	33 27       	eor	r19, r19
    1860:	22 27       	eor	r18, r18
    1862:	84 e8       	ldi	r24, 0x84	; 132
    1864:	90 e0       	ldi	r25, 0x00	; 0
    1866:	fc 01       	movw	r30, r24
    1868:	80 81       	ld	r24, Z
    186a:	91 81       	ldd	r25, Z+1	; 0x01
    186c:	cc 01       	movw	r24, r24
    186e:	a0 e0       	ldi	r26, 0x00	; 0
    1870:	b0 e0       	ldi	r27, 0x00	; 0
    1872:	82 2b       	or	r24, r18
    1874:	93 2b       	or	r25, r19
    1876:	a4 2b       	or	r26, r20
    1878:	b5 2b       	or	r27, r21
    187a:	80 93 3c 01 	sts	0x013C, r24	; 0x80013c <timestamp>
    187e:	90 93 3d 01 	sts	0x013D, r25	; 0x80013d <timestamp+0x1>
    1882:	a0 93 3e 01 	sts	0x013E, r26	; 0x80013e <timestamp+0x2>
    1886:	b0 93 3f 01 	sts	0x013F, r27	; 0x80013f <timestamp+0x3>
    188a:	86 e3       	ldi	r24, 0x36	; 54
    188c:	90 e0       	ldi	r25, 0x00	; 0
    188e:	fc 01       	movw	r30, r24
    1890:	80 81       	ld	r24, Z
    1892:	88 2f       	mov	r24, r24
    1894:	90 e0       	ldi	r25, 0x00	; 0
    1896:	81 70       	andi	r24, 0x01	; 1
    1898:	99 27       	eor	r25, r25
    189a:	89 2b       	or	r24, r25
    189c:	01 f1       	breq	.+64     	; 0x18de <__vector_17+0xbe>
    189e:	80 91 40 01 	lds	r24, 0x0140	; 0x800140 <overflows>
    18a2:	90 91 41 01 	lds	r25, 0x0141	; 0x800141 <overflows+0x1>
    18a6:	01 96       	adiw	r24, 0x01	; 1
    18a8:	09 2e       	mov	r0, r25
    18aa:	00 0c       	add	r0, r0
    18ac:	aa 0b       	sbc	r26, r26
    18ae:	bb 0b       	sbc	r27, r27
    18b0:	ac 01       	movw	r20, r24
    18b2:	33 27       	eor	r19, r19
    18b4:	22 27       	eor	r18, r18
    18b6:	84 e8       	ldi	r24, 0x84	; 132
    18b8:	90 e0       	ldi	r25, 0x00	; 0
    18ba:	fc 01       	movw	r30, r24
    18bc:	80 81       	ld	r24, Z
    18be:	91 81       	ldd	r25, Z+1	; 0x01
    18c0:	cc 01       	movw	r24, r24
    18c2:	a0 e0       	ldi	r26, 0x00	; 0
    18c4:	b0 e0       	ldi	r27, 0x00	; 0
    18c6:	82 2b       	or	r24, r18
    18c8:	93 2b       	or	r25, r19
    18ca:	a4 2b       	or	r26, r20
    18cc:	b5 2b       	or	r27, r21
    18ce:	80 93 3c 01 	sts	0x013C, r24	; 0x80013c <timestamp>
    18d2:	90 93 3d 01 	sts	0x013D, r25	; 0x80013d <timestamp+0x1>
    18d6:	a0 93 3e 01 	sts	0x013E, r26	; 0x80013e <timestamp+0x2>
    18da:	b0 93 3f 01 	sts	0x013F, r27	; 0x80013f <timestamp+0x3>
    18de:	80 91 f2 01 	lds	r24, 0x01F2	; 0x8001f2 <mtable+0x18>
    18e2:	90 91 f3 01 	lds	r25, 0x01F3	; 0x8001f3 <mtable+0x19>
    18e6:	89 2b       	or	r24, r25
    18e8:	61 f0       	breq	.+24     	; 0x1902 <__vector_17+0xe2>
    18ea:	20 91 f2 01 	lds	r18, 0x01F2	; 0x8001f2 <mtable+0x18>
    18ee:	30 91 f3 01 	lds	r19, 0x01F3	; 0x8001f3 <mtable+0x19>
    18f2:	80 91 5a 01 	lds	r24, 0x015A	; 0x80015a <otable+0x18>
    18f6:	90 91 5b 01 	lds	r25, 0x015B	; 0x80015b <otable+0x19>
    18fa:	6c e0       	ldi	r22, 0x0C	; 12
    18fc:	70 e0       	ldi	r23, 0x00	; 0
    18fe:	f9 01       	movw	r30, r18
    1900:	09 95       	icall
    1902:	0e 94 fc 12 	call	0x25f8	; 0x25f8 <schedule>
    1906:	00 00       	nop
    1908:	df 91       	pop	r29
    190a:	cf 91       	pop	r28
    190c:	ff 91       	pop	r31
    190e:	ef 91       	pop	r30
    1910:	bf 91       	pop	r27
    1912:	af 91       	pop	r26
    1914:	9f 91       	pop	r25
    1916:	8f 91       	pop	r24
    1918:	7f 91       	pop	r23
    191a:	6f 91       	pop	r22
    191c:	5f 91       	pop	r21
    191e:	4f 91       	pop	r20
    1920:	3f 91       	pop	r19
    1922:	2f 91       	pop	r18
    1924:	0f 90       	pop	r0
    1926:	00 92 5f 00 	sts	0x005F, r0	; 0x80005f <__TEXT_REGION_LENGTH__+0x7fc05f>
    192a:	0f 90       	pop	r0
    192c:	1f 90       	pop	r1
    192e:	18 95       	reti

00001930 <__vector_18>:
    1930:	1f 92       	push	r1
    1932:	0f 92       	push	r0
    1934:	00 90 5f 00 	lds	r0, 0x005F	; 0x80005f <__TEXT_REGION_LENGTH__+0x7fc05f>
    1938:	0f 92       	push	r0
    193a:	11 24       	eor	r1, r1
    193c:	2f 93       	push	r18
    193e:	3f 93       	push	r19
    1940:	4f 93       	push	r20
    1942:	5f 93       	push	r21
    1944:	6f 93       	push	r22
    1946:	7f 93       	push	r23
    1948:	8f 93       	push	r24
    194a:	9f 93       	push	r25
    194c:	af 93       	push	r26
    194e:	bf 93       	push	r27
    1950:	ef 93       	push	r30
    1952:	ff 93       	push	r31
    1954:	cf 93       	push	r28
    1956:	df 93       	push	r29
    1958:	cd b7       	in	r28, 0x3d	; 61
    195a:	de b7       	in	r29, 0x3e	; 62
    195c:	80 91 40 01 	lds	r24, 0x0140	; 0x800140 <overflows>
    1960:	90 91 41 01 	lds	r25, 0x0141	; 0x800141 <overflows+0x1>
    1964:	09 2e       	mov	r0, r25
    1966:	00 0c       	add	r0, r0
    1968:	aa 0b       	sbc	r26, r26
    196a:	bb 0b       	sbc	r27, r27
    196c:	ac 01       	movw	r20, r24
    196e:	33 27       	eor	r19, r19
    1970:	22 27       	eor	r18, r18
    1972:	84 e8       	ldi	r24, 0x84	; 132
    1974:	90 e0       	ldi	r25, 0x00	; 0
    1976:	fc 01       	movw	r30, r24
    1978:	80 81       	ld	r24, Z
    197a:	91 81       	ldd	r25, Z+1	; 0x01
    197c:	cc 01       	movw	r24, r24
    197e:	a0 e0       	ldi	r26, 0x00	; 0
    1980:	b0 e0       	ldi	r27, 0x00	; 0
    1982:	82 2b       	or	r24, r18
    1984:	93 2b       	or	r25, r19
    1986:	a4 2b       	or	r26, r20
    1988:	b5 2b       	or	r27, r21
    198a:	80 93 3c 01 	sts	0x013C, r24	; 0x80013c <timestamp>
    198e:	90 93 3d 01 	sts	0x013D, r25	; 0x80013d <timestamp+0x1>
    1992:	a0 93 3e 01 	sts	0x013E, r26	; 0x80013e <timestamp+0x2>
    1996:	b0 93 3f 01 	sts	0x013F, r27	; 0x80013f <timestamp+0x3>
    199a:	86 e3       	ldi	r24, 0x36	; 54
    199c:	90 e0       	ldi	r25, 0x00	; 0
    199e:	fc 01       	movw	r30, r24
    19a0:	80 81       	ld	r24, Z
    19a2:	88 2f       	mov	r24, r24
    19a4:	90 e0       	ldi	r25, 0x00	; 0
    19a6:	81 70       	andi	r24, 0x01	; 1
    19a8:	99 27       	eor	r25, r25
    19aa:	89 2b       	or	r24, r25
    19ac:	01 f1       	breq	.+64     	; 0x19ee <__vector_18+0xbe>
    19ae:	80 91 40 01 	lds	r24, 0x0140	; 0x800140 <overflows>
    19b2:	90 91 41 01 	lds	r25, 0x0141	; 0x800141 <overflows+0x1>
    19b6:	01 96       	adiw	r24, 0x01	; 1
    19b8:	09 2e       	mov	r0, r25
    19ba:	00 0c       	add	r0, r0
    19bc:	aa 0b       	sbc	r26, r26
    19be:	bb 0b       	sbc	r27, r27
    19c0:	ac 01       	movw	r20, r24
    19c2:	33 27       	eor	r19, r19
    19c4:	22 27       	eor	r18, r18
    19c6:	84 e8       	ldi	r24, 0x84	; 132
    19c8:	90 e0       	ldi	r25, 0x00	; 0
    19ca:	fc 01       	movw	r30, r24
    19cc:	80 81       	ld	r24, Z
    19ce:	91 81       	ldd	r25, Z+1	; 0x01
    19d0:	cc 01       	movw	r24, r24
    19d2:	a0 e0       	ldi	r26, 0x00	; 0
    19d4:	b0 e0       	ldi	r27, 0x00	; 0
    19d6:	82 2b       	or	r24, r18
    19d8:	93 2b       	or	r25, r19
    19da:	a4 2b       	or	r26, r20
    19dc:	b5 2b       	or	r27, r21
    19de:	80 93 3c 01 	sts	0x013C, r24	; 0x80013c <timestamp>
    19e2:	90 93 3d 01 	sts	0x013D, r25	; 0x80013d <timestamp+0x1>
    19e6:	a0 93 3e 01 	sts	0x013E, r26	; 0x80013e <timestamp+0x2>
    19ea:	b0 93 3f 01 	sts	0x013F, r27	; 0x80013f <timestamp+0x3>
    19ee:	80 91 f4 01 	lds	r24, 0x01F4	; 0x8001f4 <mtable+0x1a>
    19f2:	90 91 f5 01 	lds	r25, 0x01F5	; 0x8001f5 <mtable+0x1b>
    19f6:	89 2b       	or	r24, r25
    19f8:	61 f0       	breq	.+24     	; 0x1a12 <__vector_18+0xe2>
    19fa:	20 91 f4 01 	lds	r18, 0x01F4	; 0x8001f4 <mtable+0x1a>
    19fe:	30 91 f5 01 	lds	r19, 0x01F5	; 0x8001f5 <mtable+0x1b>
    1a02:	80 91 5c 01 	lds	r24, 0x015C	; 0x80015c <otable+0x1a>
    1a06:	90 91 5d 01 	lds	r25, 0x015D	; 0x80015d <otable+0x1b>
    1a0a:	6d e0       	ldi	r22, 0x0D	; 13
    1a0c:	70 e0       	ldi	r23, 0x00	; 0
    1a0e:	f9 01       	movw	r30, r18
    1a10:	09 95       	icall
    1a12:	0e 94 fc 12 	call	0x25f8	; 0x25f8 <schedule>
    1a16:	00 00       	nop
    1a18:	df 91       	pop	r29
    1a1a:	cf 91       	pop	r28
    1a1c:	ff 91       	pop	r31
    1a1e:	ef 91       	pop	r30
    1a20:	bf 91       	pop	r27
    1a22:	af 91       	pop	r26
    1a24:	9f 91       	pop	r25
    1a26:	8f 91       	pop	r24
    1a28:	7f 91       	pop	r23
    1a2a:	6f 91       	pop	r22
    1a2c:	5f 91       	pop	r21
    1a2e:	4f 91       	pop	r20
    1a30:	3f 91       	pop	r19
    1a32:	2f 91       	pop	r18
    1a34:	0f 90       	pop	r0
    1a36:	00 92 5f 00 	sts	0x005F, r0	; 0x80005f <__TEXT_REGION_LENGTH__+0x7fc05f>
    1a3a:	0f 90       	pop	r0
    1a3c:	1f 90       	pop	r1
    1a3e:	18 95       	reti

00001a40 <__vector_19>:
    1a40:	1f 92       	push	r1
    1a42:	0f 92       	push	r0
    1a44:	00 90 5f 00 	lds	r0, 0x005F	; 0x80005f <__TEXT_REGION_LENGTH__+0x7fc05f>
    1a48:	0f 92       	push	r0
    1a4a:	11 24       	eor	r1, r1
    1a4c:	2f 93       	push	r18
    1a4e:	3f 93       	push	r19
    1a50:	4f 93       	push	r20
    1a52:	5f 93       	push	r21
    1a54:	6f 93       	push	r22
    1a56:	7f 93       	push	r23
    1a58:	8f 93       	push	r24
    1a5a:	9f 93       	push	r25
    1a5c:	af 93       	push	r26
    1a5e:	bf 93       	push	r27
    1a60:	ef 93       	push	r30
    1a62:	ff 93       	push	r31
    1a64:	cf 93       	push	r28
    1a66:	df 93       	push	r29
    1a68:	cd b7       	in	r28, 0x3d	; 61
    1a6a:	de b7       	in	r29, 0x3e	; 62
    1a6c:	80 91 40 01 	lds	r24, 0x0140	; 0x800140 <overflows>
    1a70:	90 91 41 01 	lds	r25, 0x0141	; 0x800141 <overflows+0x1>
    1a74:	09 2e       	mov	r0, r25
    1a76:	00 0c       	add	r0, r0
    1a78:	aa 0b       	sbc	r26, r26
    1a7a:	bb 0b       	sbc	r27, r27
    1a7c:	ac 01       	movw	r20, r24
    1a7e:	33 27       	eor	r19, r19
    1a80:	22 27       	eor	r18, r18
    1a82:	84 e8       	ldi	r24, 0x84	; 132
    1a84:	90 e0       	ldi	r25, 0x00	; 0
    1a86:	fc 01       	movw	r30, r24
    1a88:	80 81       	ld	r24, Z
    1a8a:	91 81       	ldd	r25, Z+1	; 0x01
    1a8c:	cc 01       	movw	r24, r24
    1a8e:	a0 e0       	ldi	r26, 0x00	; 0
    1a90:	b0 e0       	ldi	r27, 0x00	; 0
    1a92:	82 2b       	or	r24, r18
    1a94:	93 2b       	or	r25, r19
    1a96:	a4 2b       	or	r26, r20
    1a98:	b5 2b       	or	r27, r21
    1a9a:	80 93 3c 01 	sts	0x013C, r24	; 0x80013c <timestamp>
    1a9e:	90 93 3d 01 	sts	0x013D, r25	; 0x80013d <timestamp+0x1>
    1aa2:	a0 93 3e 01 	sts	0x013E, r26	; 0x80013e <timestamp+0x2>
    1aa6:	b0 93 3f 01 	sts	0x013F, r27	; 0x80013f <timestamp+0x3>
    1aaa:	86 e3       	ldi	r24, 0x36	; 54
    1aac:	90 e0       	ldi	r25, 0x00	; 0
    1aae:	fc 01       	movw	r30, r24
    1ab0:	80 81       	ld	r24, Z
    1ab2:	88 2f       	mov	r24, r24
    1ab4:	90 e0       	ldi	r25, 0x00	; 0
    1ab6:	81 70       	andi	r24, 0x01	; 1
    1ab8:	99 27       	eor	r25, r25
    1aba:	89 2b       	or	r24, r25
    1abc:	01 f1       	breq	.+64     	; 0x1afe <__vector_19+0xbe>
    1abe:	80 91 40 01 	lds	r24, 0x0140	; 0x800140 <overflows>
    1ac2:	90 91 41 01 	lds	r25, 0x0141	; 0x800141 <overflows+0x1>
    1ac6:	01 96       	adiw	r24, 0x01	; 1
    1ac8:	09 2e       	mov	r0, r25
    1aca:	00 0c       	add	r0, r0
    1acc:	aa 0b       	sbc	r26, r26
    1ace:	bb 0b       	sbc	r27, r27
    1ad0:	ac 01       	movw	r20, r24
    1ad2:	33 27       	eor	r19, r19
    1ad4:	22 27       	eor	r18, r18
    1ad6:	84 e8       	ldi	r24, 0x84	; 132
    1ad8:	90 e0       	ldi	r25, 0x00	; 0
    1ada:	fc 01       	movw	r30, r24
    1adc:	80 81       	ld	r24, Z
    1ade:	91 81       	ldd	r25, Z+1	; 0x01
    1ae0:	cc 01       	movw	r24, r24
    1ae2:	a0 e0       	ldi	r26, 0x00	; 0
    1ae4:	b0 e0       	ldi	r27, 0x00	; 0
    1ae6:	82 2b       	or	r24, r18
    1ae8:	93 2b       	or	r25, r19
    1aea:	a4 2b       	or	r26, r20
    1aec:	b5 2b       	or	r27, r21
    1aee:	80 93 3c 01 	sts	0x013C, r24	; 0x80013c <timestamp>
    1af2:	90 93 3d 01 	sts	0x013D, r25	; 0x80013d <timestamp+0x1>
    1af6:	a0 93 3e 01 	sts	0x013E, r26	; 0x80013e <timestamp+0x2>
    1afa:	b0 93 3f 01 	sts	0x013F, r27	; 0x80013f <timestamp+0x3>
    1afe:	80 91 f6 01 	lds	r24, 0x01F6	; 0x8001f6 <mtable+0x1c>
    1b02:	90 91 f7 01 	lds	r25, 0x01F7	; 0x8001f7 <mtable+0x1d>
    1b06:	89 2b       	or	r24, r25
    1b08:	61 f0       	breq	.+24     	; 0x1b22 <__vector_19+0xe2>
    1b0a:	20 91 f6 01 	lds	r18, 0x01F6	; 0x8001f6 <mtable+0x1c>
    1b0e:	30 91 f7 01 	lds	r19, 0x01F7	; 0x8001f7 <mtable+0x1d>
    1b12:	80 91 5e 01 	lds	r24, 0x015E	; 0x80015e <otable+0x1c>
    1b16:	90 91 5f 01 	lds	r25, 0x015F	; 0x80015f <otable+0x1d>
    1b1a:	6e e0       	ldi	r22, 0x0E	; 14
    1b1c:	70 e0       	ldi	r23, 0x00	; 0
    1b1e:	f9 01       	movw	r30, r18
    1b20:	09 95       	icall
    1b22:	0e 94 fc 12 	call	0x25f8	; 0x25f8 <schedule>
    1b26:	00 00       	nop
    1b28:	df 91       	pop	r29
    1b2a:	cf 91       	pop	r28
    1b2c:	ff 91       	pop	r31
    1b2e:	ef 91       	pop	r30
    1b30:	bf 91       	pop	r27
    1b32:	af 91       	pop	r26
    1b34:	9f 91       	pop	r25
    1b36:	8f 91       	pop	r24
    1b38:	7f 91       	pop	r23
    1b3a:	6f 91       	pop	r22
    1b3c:	5f 91       	pop	r21
    1b3e:	4f 91       	pop	r20
    1b40:	3f 91       	pop	r19
    1b42:	2f 91       	pop	r18
    1b44:	0f 90       	pop	r0
    1b46:	00 92 5f 00 	sts	0x005F, r0	; 0x80005f <__TEXT_REGION_LENGTH__+0x7fc05f>
    1b4a:	0f 90       	pop	r0
    1b4c:	1f 90       	pop	r1
    1b4e:	18 95       	reti

00001b50 <__vector_20>:
    1b50:	1f 92       	push	r1
    1b52:	0f 92       	push	r0
    1b54:	00 90 5f 00 	lds	r0, 0x005F	; 0x80005f <__TEXT_REGION_LENGTH__+0x7fc05f>
    1b58:	0f 92       	push	r0
    1b5a:	11 24       	eor	r1, r1
    1b5c:	2f 93       	push	r18
    1b5e:	3f 93       	push	r19
    1b60:	4f 93       	push	r20
    1b62:	5f 93       	push	r21
    1b64:	6f 93       	push	r22
    1b66:	7f 93       	push	r23
    1b68:	8f 93       	push	r24
    1b6a:	9f 93       	push	r25
    1b6c:	af 93       	push	r26
    1b6e:	bf 93       	push	r27
    1b70:	ef 93       	push	r30
    1b72:	ff 93       	push	r31
    1b74:	cf 93       	push	r28
    1b76:	df 93       	push	r29
    1b78:	cd b7       	in	r28, 0x3d	; 61
    1b7a:	de b7       	in	r29, 0x3e	; 62
    1b7c:	80 91 40 01 	lds	r24, 0x0140	; 0x800140 <overflows>
    1b80:	90 91 41 01 	lds	r25, 0x0141	; 0x800141 <overflows+0x1>
    1b84:	09 2e       	mov	r0, r25
    1b86:	00 0c       	add	r0, r0
    1b88:	aa 0b       	sbc	r26, r26
    1b8a:	bb 0b       	sbc	r27, r27
    1b8c:	ac 01       	movw	r20, r24
    1b8e:	33 27       	eor	r19, r19
    1b90:	22 27       	eor	r18, r18
    1b92:	84 e8       	ldi	r24, 0x84	; 132
    1b94:	90 e0       	ldi	r25, 0x00	; 0
    1b96:	fc 01       	movw	r30, r24
    1b98:	80 81       	ld	r24, Z
    1b9a:	91 81       	ldd	r25, Z+1	; 0x01
    1b9c:	cc 01       	movw	r24, r24
    1b9e:	a0 e0       	ldi	r26, 0x00	; 0
    1ba0:	b0 e0       	ldi	r27, 0x00	; 0
    1ba2:	82 2b       	or	r24, r18
    1ba4:	93 2b       	or	r25, r19
    1ba6:	a4 2b       	or	r26, r20
    1ba8:	b5 2b       	or	r27, r21
    1baa:	80 93 3c 01 	sts	0x013C, r24	; 0x80013c <timestamp>
    1bae:	90 93 3d 01 	sts	0x013D, r25	; 0x80013d <timestamp+0x1>
    1bb2:	a0 93 3e 01 	sts	0x013E, r26	; 0x80013e <timestamp+0x2>
    1bb6:	b0 93 3f 01 	sts	0x013F, r27	; 0x80013f <timestamp+0x3>
    1bba:	86 e3       	ldi	r24, 0x36	; 54
    1bbc:	90 e0       	ldi	r25, 0x00	; 0
    1bbe:	fc 01       	movw	r30, r24
    1bc0:	80 81       	ld	r24, Z
    1bc2:	88 2f       	mov	r24, r24
    1bc4:	90 e0       	ldi	r25, 0x00	; 0
    1bc6:	81 70       	andi	r24, 0x01	; 1
    1bc8:	99 27       	eor	r25, r25
    1bca:	89 2b       	or	r24, r25
    1bcc:	01 f1       	breq	.+64     	; 0x1c0e <__vector_20+0xbe>
    1bce:	80 91 40 01 	lds	r24, 0x0140	; 0x800140 <overflows>
    1bd2:	90 91 41 01 	lds	r25, 0x0141	; 0x800141 <overflows+0x1>
    1bd6:	01 96       	adiw	r24, 0x01	; 1
    1bd8:	09 2e       	mov	r0, r25
    1bda:	00 0c       	add	r0, r0
    1bdc:	aa 0b       	sbc	r26, r26
    1bde:	bb 0b       	sbc	r27, r27
    1be0:	ac 01       	movw	r20, r24
    1be2:	33 27       	eor	r19, r19
    1be4:	22 27       	eor	r18, r18
    1be6:	84 e8       	ldi	r24, 0x84	; 132
    1be8:	90 e0       	ldi	r25, 0x00	; 0
    1bea:	fc 01       	movw	r30, r24
    1bec:	80 81       	ld	r24, Z
    1bee:	91 81       	ldd	r25, Z+1	; 0x01
    1bf0:	cc 01       	movw	r24, r24
    1bf2:	a0 e0       	ldi	r26, 0x00	; 0
    1bf4:	b0 e0       	ldi	r27, 0x00	; 0
    1bf6:	82 2b       	or	r24, r18
    1bf8:	93 2b       	or	r25, r19
    1bfa:	a4 2b       	or	r26, r20
    1bfc:	b5 2b       	or	r27, r21
    1bfe:	80 93 3c 01 	sts	0x013C, r24	; 0x80013c <timestamp>
    1c02:	90 93 3d 01 	sts	0x013D, r25	; 0x80013d <timestamp+0x1>
    1c06:	a0 93 3e 01 	sts	0x013E, r26	; 0x80013e <timestamp+0x2>
    1c0a:	b0 93 3f 01 	sts	0x013F, r27	; 0x80013f <timestamp+0x3>
    1c0e:	80 91 f8 01 	lds	r24, 0x01F8	; 0x8001f8 <mtable+0x1e>
    1c12:	90 91 f9 01 	lds	r25, 0x01F9	; 0x8001f9 <mtable+0x1f>
    1c16:	89 2b       	or	r24, r25
    1c18:	61 f0       	breq	.+24     	; 0x1c32 <__vector_20+0xe2>
    1c1a:	20 91 f8 01 	lds	r18, 0x01F8	; 0x8001f8 <mtable+0x1e>
    1c1e:	30 91 f9 01 	lds	r19, 0x01F9	; 0x8001f9 <mtable+0x1f>
    1c22:	80 91 60 01 	lds	r24, 0x0160	; 0x800160 <otable+0x1e>
    1c26:	90 91 61 01 	lds	r25, 0x0161	; 0x800161 <otable+0x1f>
    1c2a:	6f e0       	ldi	r22, 0x0F	; 15
    1c2c:	70 e0       	ldi	r23, 0x00	; 0
    1c2e:	f9 01       	movw	r30, r18
    1c30:	09 95       	icall
    1c32:	0e 94 fc 12 	call	0x25f8	; 0x25f8 <schedule>
    1c36:	00 00       	nop
    1c38:	df 91       	pop	r29
    1c3a:	cf 91       	pop	r28
    1c3c:	ff 91       	pop	r31
    1c3e:	ef 91       	pop	r30
    1c40:	bf 91       	pop	r27
    1c42:	af 91       	pop	r26
    1c44:	9f 91       	pop	r25
    1c46:	8f 91       	pop	r24
    1c48:	7f 91       	pop	r23
    1c4a:	6f 91       	pop	r22
    1c4c:	5f 91       	pop	r21
    1c4e:	4f 91       	pop	r20
    1c50:	3f 91       	pop	r19
    1c52:	2f 91       	pop	r18
    1c54:	0f 90       	pop	r0
    1c56:	00 92 5f 00 	sts	0x005F, r0	; 0x80005f <__TEXT_REGION_LENGTH__+0x7fc05f>
    1c5a:	0f 90       	pop	r0
    1c5c:	1f 90       	pop	r1
    1c5e:	18 95       	reti

00001c60 <__vector_21>:
    1c60:	1f 92       	push	r1
    1c62:	0f 92       	push	r0
    1c64:	00 90 5f 00 	lds	r0, 0x005F	; 0x80005f <__TEXT_REGION_LENGTH__+0x7fc05f>
    1c68:	0f 92       	push	r0
    1c6a:	11 24       	eor	r1, r1
    1c6c:	2f 93       	push	r18
    1c6e:	3f 93       	push	r19
    1c70:	4f 93       	push	r20
    1c72:	5f 93       	push	r21
    1c74:	6f 93       	push	r22
    1c76:	7f 93       	push	r23
    1c78:	8f 93       	push	r24
    1c7a:	9f 93       	push	r25
    1c7c:	af 93       	push	r26
    1c7e:	bf 93       	push	r27
    1c80:	ef 93       	push	r30
    1c82:	ff 93       	push	r31
    1c84:	cf 93       	push	r28
    1c86:	df 93       	push	r29
    1c88:	cd b7       	in	r28, 0x3d	; 61
    1c8a:	de b7       	in	r29, 0x3e	; 62
    1c8c:	80 91 40 01 	lds	r24, 0x0140	; 0x800140 <overflows>
    1c90:	90 91 41 01 	lds	r25, 0x0141	; 0x800141 <overflows+0x1>
    1c94:	09 2e       	mov	r0, r25
    1c96:	00 0c       	add	r0, r0
    1c98:	aa 0b       	sbc	r26, r26
    1c9a:	bb 0b       	sbc	r27, r27
    1c9c:	ac 01       	movw	r20, r24
    1c9e:	33 27       	eor	r19, r19
    1ca0:	22 27       	eor	r18, r18
    1ca2:	84 e8       	ldi	r24, 0x84	; 132
    1ca4:	90 e0       	ldi	r25, 0x00	; 0
    1ca6:	fc 01       	movw	r30, r24
    1ca8:	80 81       	ld	r24, Z
    1caa:	91 81       	ldd	r25, Z+1	; 0x01
    1cac:	cc 01       	movw	r24, r24
    1cae:	a0 e0       	ldi	r26, 0x00	; 0
    1cb0:	b0 e0       	ldi	r27, 0x00	; 0
    1cb2:	82 2b       	or	r24, r18
    1cb4:	93 2b       	or	r25, r19
    1cb6:	a4 2b       	or	r26, r20
    1cb8:	b5 2b       	or	r27, r21
    1cba:	80 93 3c 01 	sts	0x013C, r24	; 0x80013c <timestamp>
    1cbe:	90 93 3d 01 	sts	0x013D, r25	; 0x80013d <timestamp+0x1>
    1cc2:	a0 93 3e 01 	sts	0x013E, r26	; 0x80013e <timestamp+0x2>
    1cc6:	b0 93 3f 01 	sts	0x013F, r27	; 0x80013f <timestamp+0x3>
    1cca:	86 e3       	ldi	r24, 0x36	; 54
    1ccc:	90 e0       	ldi	r25, 0x00	; 0
    1cce:	fc 01       	movw	r30, r24
    1cd0:	80 81       	ld	r24, Z
    1cd2:	88 2f       	mov	r24, r24
    1cd4:	90 e0       	ldi	r25, 0x00	; 0
    1cd6:	81 70       	andi	r24, 0x01	; 1
    1cd8:	99 27       	eor	r25, r25
    1cda:	89 2b       	or	r24, r25
    1cdc:	01 f1       	breq	.+64     	; 0x1d1e <__vector_21+0xbe>
    1cde:	80 91 40 01 	lds	r24, 0x0140	; 0x800140 <overflows>
    1ce2:	90 91 41 01 	lds	r25, 0x0141	; 0x800141 <overflows+0x1>
    1ce6:	01 96       	adiw	r24, 0x01	; 1
    1ce8:	09 2e       	mov	r0, r25
    1cea:	00 0c       	add	r0, r0
    1cec:	aa 0b       	sbc	r26, r26
    1cee:	bb 0b       	sbc	r27, r27
    1cf0:	ac 01       	movw	r20, r24
    1cf2:	33 27       	eor	r19, r19
    1cf4:	22 27       	eor	r18, r18
    1cf6:	84 e8       	ldi	r24, 0x84	; 132
    1cf8:	90 e0       	ldi	r25, 0x00	; 0
    1cfa:	fc 01       	movw	r30, r24
    1cfc:	80 81       	ld	r24, Z
    1cfe:	91 81       	ldd	r25, Z+1	; 0x01
    1d00:	cc 01       	movw	r24, r24
    1d02:	a0 e0       	ldi	r26, 0x00	; 0
    1d04:	b0 e0       	ldi	r27, 0x00	; 0
    1d06:	82 2b       	or	r24, r18
    1d08:	93 2b       	or	r25, r19
    1d0a:	a4 2b       	or	r26, r20
    1d0c:	b5 2b       	or	r27, r21
    1d0e:	80 93 3c 01 	sts	0x013C, r24	; 0x80013c <timestamp>
    1d12:	90 93 3d 01 	sts	0x013D, r25	; 0x80013d <timestamp+0x1>
    1d16:	a0 93 3e 01 	sts	0x013E, r26	; 0x80013e <timestamp+0x2>
    1d1a:	b0 93 3f 01 	sts	0x013F, r27	; 0x80013f <timestamp+0x3>
    1d1e:	80 91 fa 01 	lds	r24, 0x01FA	; 0x8001fa <mtable+0x20>
    1d22:	90 91 fb 01 	lds	r25, 0x01FB	; 0x8001fb <mtable+0x21>
    1d26:	89 2b       	or	r24, r25
    1d28:	61 f0       	breq	.+24     	; 0x1d42 <__vector_21+0xe2>
    1d2a:	20 91 fa 01 	lds	r18, 0x01FA	; 0x8001fa <mtable+0x20>
    1d2e:	30 91 fb 01 	lds	r19, 0x01FB	; 0x8001fb <mtable+0x21>
    1d32:	80 91 62 01 	lds	r24, 0x0162	; 0x800162 <otable+0x20>
    1d36:	90 91 63 01 	lds	r25, 0x0163	; 0x800163 <otable+0x21>
    1d3a:	60 e1       	ldi	r22, 0x10	; 16
    1d3c:	70 e0       	ldi	r23, 0x00	; 0
    1d3e:	f9 01       	movw	r30, r18
    1d40:	09 95       	icall
    1d42:	0e 94 fc 12 	call	0x25f8	; 0x25f8 <schedule>
    1d46:	00 00       	nop
    1d48:	df 91       	pop	r29
    1d4a:	cf 91       	pop	r28
    1d4c:	ff 91       	pop	r31
    1d4e:	ef 91       	pop	r30
    1d50:	bf 91       	pop	r27
    1d52:	af 91       	pop	r26
    1d54:	9f 91       	pop	r25
    1d56:	8f 91       	pop	r24
    1d58:	7f 91       	pop	r23
    1d5a:	6f 91       	pop	r22
    1d5c:	5f 91       	pop	r21
    1d5e:	4f 91       	pop	r20
    1d60:	3f 91       	pop	r19
    1d62:	2f 91       	pop	r18
    1d64:	0f 90       	pop	r0
    1d66:	00 92 5f 00 	sts	0x005F, r0	; 0x80005f <__TEXT_REGION_LENGTH__+0x7fc05f>
    1d6a:	0f 90       	pop	r0
    1d6c:	1f 90       	pop	r1
    1d6e:	18 95       	reti

00001d70 <__vector_22>:
    1d70:	1f 92       	push	r1
    1d72:	0f 92       	push	r0
    1d74:	00 90 5f 00 	lds	r0, 0x005F	; 0x80005f <__TEXT_REGION_LENGTH__+0x7fc05f>
    1d78:	0f 92       	push	r0
    1d7a:	11 24       	eor	r1, r1
    1d7c:	2f 93       	push	r18
    1d7e:	3f 93       	push	r19
    1d80:	4f 93       	push	r20
    1d82:	5f 93       	push	r21
    1d84:	6f 93       	push	r22
    1d86:	7f 93       	push	r23
    1d88:	8f 93       	push	r24
    1d8a:	9f 93       	push	r25
    1d8c:	af 93       	push	r26
    1d8e:	bf 93       	push	r27
    1d90:	ef 93       	push	r30
    1d92:	ff 93       	push	r31
    1d94:	cf 93       	push	r28
    1d96:	df 93       	push	r29
    1d98:	cd b7       	in	r28, 0x3d	; 61
    1d9a:	de b7       	in	r29, 0x3e	; 62
    1d9c:	80 91 40 01 	lds	r24, 0x0140	; 0x800140 <overflows>
    1da0:	90 91 41 01 	lds	r25, 0x0141	; 0x800141 <overflows+0x1>
    1da4:	09 2e       	mov	r0, r25
    1da6:	00 0c       	add	r0, r0
    1da8:	aa 0b       	sbc	r26, r26
    1daa:	bb 0b       	sbc	r27, r27
    1dac:	ac 01       	movw	r20, r24
    1dae:	33 27       	eor	r19, r19
    1db0:	22 27       	eor	r18, r18
    1db2:	84 e8       	ldi	r24, 0x84	; 132
    1db4:	90 e0       	ldi	r25, 0x00	; 0
    1db6:	fc 01       	movw	r30, r24
    1db8:	80 81       	ld	r24, Z
    1dba:	91 81       	ldd	r25, Z+1	; 0x01
    1dbc:	cc 01       	movw	r24, r24
    1dbe:	a0 e0       	ldi	r26, 0x00	; 0
    1dc0:	b0 e0       	ldi	r27, 0x00	; 0
    1dc2:	82 2b       	or	r24, r18
    1dc4:	93 2b       	or	r25, r19
    1dc6:	a4 2b       	or	r26, r20
    1dc8:	b5 2b       	or	r27, r21
    1dca:	80 93 3c 01 	sts	0x013C, r24	; 0x80013c <timestamp>
    1dce:	90 93 3d 01 	sts	0x013D, r25	; 0x80013d <timestamp+0x1>
    1dd2:	a0 93 3e 01 	sts	0x013E, r26	; 0x80013e <timestamp+0x2>
    1dd6:	b0 93 3f 01 	sts	0x013F, r27	; 0x80013f <timestamp+0x3>
    1dda:	86 e3       	ldi	r24, 0x36	; 54
    1ddc:	90 e0       	ldi	r25, 0x00	; 0
    1dde:	fc 01       	movw	r30, r24
    1de0:	80 81       	ld	r24, Z
    1de2:	88 2f       	mov	r24, r24
    1de4:	90 e0       	ldi	r25, 0x00	; 0
    1de6:	81 70       	andi	r24, 0x01	; 1
    1de8:	99 27       	eor	r25, r25
    1dea:	89 2b       	or	r24, r25
    1dec:	01 f1       	breq	.+64     	; 0x1e2e <__vector_22+0xbe>
    1dee:	80 91 40 01 	lds	r24, 0x0140	; 0x800140 <overflows>
    1df2:	90 91 41 01 	lds	r25, 0x0141	; 0x800141 <overflows+0x1>
    1df6:	01 96       	adiw	r24, 0x01	; 1
    1df8:	09 2e       	mov	r0, r25
    1dfa:	00 0c       	add	r0, r0
    1dfc:	aa 0b       	sbc	r26, r26
    1dfe:	bb 0b       	sbc	r27, r27
    1e00:	ac 01       	movw	r20, r24
    1e02:	33 27       	eor	r19, r19
    1e04:	22 27       	eor	r18, r18
    1e06:	84 e8       	ldi	r24, 0x84	; 132
    1e08:	90 e0       	ldi	r25, 0x00	; 0
    1e0a:	fc 01       	movw	r30, r24
    1e0c:	80 81       	ld	r24, Z
    1e0e:	91 81       	ldd	r25, Z+1	; 0x01
    1e10:	cc 01       	movw	r24, r24
    1e12:	a0 e0       	ldi	r26, 0x00	; 0
    1e14:	b0 e0       	ldi	r27, 0x00	; 0
    1e16:	82 2b       	or	r24, r18
    1e18:	93 2b       	or	r25, r19
    1e1a:	a4 2b       	or	r26, r20
    1e1c:	b5 2b       	or	r27, r21
    1e1e:	80 93 3c 01 	sts	0x013C, r24	; 0x80013c <timestamp>
    1e22:	90 93 3d 01 	sts	0x013D, r25	; 0x80013d <timestamp+0x1>
    1e26:	a0 93 3e 01 	sts	0x013E, r26	; 0x80013e <timestamp+0x2>
    1e2a:	b0 93 3f 01 	sts	0x013F, r27	; 0x80013f <timestamp+0x3>
    1e2e:	80 91 fc 01 	lds	r24, 0x01FC	; 0x8001fc <mtable+0x22>
    1e32:	90 91 fd 01 	lds	r25, 0x01FD	; 0x8001fd <mtable+0x23>
    1e36:	89 2b       	or	r24, r25
    1e38:	61 f0       	breq	.+24     	; 0x1e52 <__vector_22+0xe2>
    1e3a:	20 91 fc 01 	lds	r18, 0x01FC	; 0x8001fc <mtable+0x22>
    1e3e:	30 91 fd 01 	lds	r19, 0x01FD	; 0x8001fd <mtable+0x23>
    1e42:	80 91 64 01 	lds	r24, 0x0164	; 0x800164 <otable+0x22>
    1e46:	90 91 65 01 	lds	r25, 0x0165	; 0x800165 <otable+0x23>
    1e4a:	61 e1       	ldi	r22, 0x11	; 17
    1e4c:	70 e0       	ldi	r23, 0x00	; 0
    1e4e:	f9 01       	movw	r30, r18
    1e50:	09 95       	icall
    1e52:	0e 94 fc 12 	call	0x25f8	; 0x25f8 <schedule>
    1e56:	00 00       	nop
    1e58:	df 91       	pop	r29
    1e5a:	cf 91       	pop	r28
    1e5c:	ff 91       	pop	r31
    1e5e:	ef 91       	pop	r30
    1e60:	bf 91       	pop	r27
    1e62:	af 91       	pop	r26
    1e64:	9f 91       	pop	r25
    1e66:	8f 91       	pop	r24
    1e68:	7f 91       	pop	r23
    1e6a:	6f 91       	pop	r22
    1e6c:	5f 91       	pop	r21
    1e6e:	4f 91       	pop	r20
    1e70:	3f 91       	pop	r19
    1e72:	2f 91       	pop	r18
    1e74:	0f 90       	pop	r0
    1e76:	00 92 5f 00 	sts	0x005F, r0	; 0x80005f <__TEXT_REGION_LENGTH__+0x7fc05f>
    1e7a:	0f 90       	pop	r0
    1e7c:	1f 90       	pop	r1
    1e7e:	18 95       	reti

00001e80 <enqueueByDeadline>:
    1e80:	cf 93       	push	r28
    1e82:	df 93       	push	r29
    1e84:	cd b7       	in	r28, 0x3d	; 61
    1e86:	de b7       	in	r29, 0x3e	; 62
    1e88:	28 97       	sbiw	r28, 0x08	; 8
    1e8a:	0f b6       	in	r0, 0x3f	; 63
    1e8c:	f8 94       	cli
    1e8e:	de bf       	out	0x3e, r29	; 62
    1e90:	0f be       	out	0x3f, r0	; 63
    1e92:	cd bf       	out	0x3d, r28	; 61
    1e94:	9e 83       	std	Y+6, r25	; 0x06
    1e96:	8d 83       	std	Y+5, r24	; 0x05
    1e98:	78 87       	std	Y+8, r23	; 0x08
    1e9a:	6f 83       	std	Y+7, r22	; 0x07
    1e9c:	1a 82       	std	Y+2, r1	; 0x02
    1e9e:	19 82       	std	Y+1, r1	; 0x01
    1ea0:	8f 81       	ldd	r24, Y+7	; 0x07
    1ea2:	98 85       	ldd	r25, Y+8	; 0x08
    1ea4:	fc 01       	movw	r30, r24
    1ea6:	80 81       	ld	r24, Z
    1ea8:	91 81       	ldd	r25, Z+1	; 0x01
    1eaa:	9c 83       	std	Y+4, r25	; 0x04
    1eac:	8b 83       	std	Y+3, r24	; 0x03
    1eae:	0b c0       	rjmp	.+22     	; 0x1ec6 <enqueueByDeadline+0x46>
    1eb0:	8b 81       	ldd	r24, Y+3	; 0x03
    1eb2:	9c 81       	ldd	r25, Y+4	; 0x04
    1eb4:	9a 83       	std	Y+2, r25	; 0x02
    1eb6:	89 83       	std	Y+1, r24	; 0x01
    1eb8:	8b 81       	ldd	r24, Y+3	; 0x03
    1eba:	9c 81       	ldd	r25, Y+4	; 0x04
    1ebc:	fc 01       	movw	r30, r24
    1ebe:	80 81       	ld	r24, Z
    1ec0:	91 81       	ldd	r25, Z+1	; 0x01
    1ec2:	9c 83       	std	Y+4, r25	; 0x04
    1ec4:	8b 83       	std	Y+3, r24	; 0x03
    1ec6:	8b 81       	ldd	r24, Y+3	; 0x03
    1ec8:	9c 81       	ldd	r25, Y+4	; 0x04
    1eca:	89 2b       	or	r24, r25
    1ecc:	99 f0       	breq	.+38     	; 0x1ef4 <enqueueByDeadline+0x74>
    1ece:	8b 81       	ldd	r24, Y+3	; 0x03
    1ed0:	9c 81       	ldd	r25, Y+4	; 0x04
    1ed2:	fc 01       	movw	r30, r24
    1ed4:	26 81       	ldd	r18, Z+6	; 0x06
    1ed6:	37 81       	ldd	r19, Z+7	; 0x07
    1ed8:	40 85       	ldd	r20, Z+8	; 0x08
    1eda:	51 85       	ldd	r21, Z+9	; 0x09
    1edc:	8d 81       	ldd	r24, Y+5	; 0x05
    1ede:	9e 81       	ldd	r25, Y+6	; 0x06
    1ee0:	fc 01       	movw	r30, r24
    1ee2:	86 81       	ldd	r24, Z+6	; 0x06
    1ee4:	97 81       	ldd	r25, Z+7	; 0x07
    1ee6:	a0 85       	ldd	r26, Z+8	; 0x08
    1ee8:	b1 85       	ldd	r27, Z+9	; 0x09
    1eea:	82 17       	cp	r24, r18
    1eec:	93 07       	cpc	r25, r19
    1eee:	a4 07       	cpc	r26, r20
    1ef0:	b5 07       	cpc	r27, r21
    1ef2:	f4 f6       	brge	.-68     	; 0x1eb0 <enqueueByDeadline+0x30>
    1ef4:	8d 81       	ldd	r24, Y+5	; 0x05
    1ef6:	9e 81       	ldd	r25, Y+6	; 0x06
    1ef8:	2b 81       	ldd	r18, Y+3	; 0x03
    1efa:	3c 81       	ldd	r19, Y+4	; 0x04
    1efc:	fc 01       	movw	r30, r24
    1efe:	31 83       	std	Z+1, r19	; 0x01
    1f00:	20 83       	st	Z, r18
    1f02:	89 81       	ldd	r24, Y+1	; 0x01
    1f04:	9a 81       	ldd	r25, Y+2	; 0x02
    1f06:	89 2b       	or	r24, r25
    1f08:	41 f4       	brne	.+16     	; 0x1f1a <enqueueByDeadline+0x9a>
    1f0a:	8f 81       	ldd	r24, Y+7	; 0x07
    1f0c:	98 85       	ldd	r25, Y+8	; 0x08
    1f0e:	2d 81       	ldd	r18, Y+5	; 0x05
    1f10:	3e 81       	ldd	r19, Y+6	; 0x06
    1f12:	fc 01       	movw	r30, r24
    1f14:	31 83       	std	Z+1, r19	; 0x01
    1f16:	20 83       	st	Z, r18
    1f18:	07 c0       	rjmp	.+14     	; 0x1f28 <enqueueByDeadline+0xa8>
    1f1a:	89 81       	ldd	r24, Y+1	; 0x01
    1f1c:	9a 81       	ldd	r25, Y+2	; 0x02
    1f1e:	2d 81       	ldd	r18, Y+5	; 0x05
    1f20:	3e 81       	ldd	r19, Y+6	; 0x06
    1f22:	fc 01       	movw	r30, r24
    1f24:	31 83       	std	Z+1, r19	; 0x01
    1f26:	20 83       	st	Z, r18
    1f28:	00 00       	nop
    1f2a:	28 96       	adiw	r28, 0x08	; 8
    1f2c:	0f b6       	in	r0, 0x3f	; 63
    1f2e:	f8 94       	cli
    1f30:	de bf       	out	0x3e, r29	; 62
    1f32:	0f be       	out	0x3f, r0	; 63
    1f34:	cd bf       	out	0x3d, r28	; 61
    1f36:	df 91       	pop	r29
    1f38:	cf 91       	pop	r28
    1f3a:	08 95       	ret

00001f3c <enqueueByBaseline>:
    1f3c:	cf 93       	push	r28
    1f3e:	df 93       	push	r29
    1f40:	cd b7       	in	r28, 0x3d	; 61
    1f42:	de b7       	in	r29, 0x3e	; 62
    1f44:	28 97       	sbiw	r28, 0x08	; 8
    1f46:	0f b6       	in	r0, 0x3f	; 63
    1f48:	f8 94       	cli
    1f4a:	de bf       	out	0x3e, r29	; 62
    1f4c:	0f be       	out	0x3f, r0	; 63
    1f4e:	cd bf       	out	0x3d, r28	; 61
    1f50:	9e 83       	std	Y+6, r25	; 0x06
    1f52:	8d 83       	std	Y+5, r24	; 0x05
    1f54:	78 87       	std	Y+8, r23	; 0x08
    1f56:	6f 83       	std	Y+7, r22	; 0x07
    1f58:	1a 82       	std	Y+2, r1	; 0x02
    1f5a:	19 82       	std	Y+1, r1	; 0x01
    1f5c:	8f 81       	ldd	r24, Y+7	; 0x07
    1f5e:	98 85       	ldd	r25, Y+8	; 0x08
    1f60:	fc 01       	movw	r30, r24
    1f62:	80 81       	ld	r24, Z
    1f64:	91 81       	ldd	r25, Z+1	; 0x01
    1f66:	9c 83       	std	Y+4, r25	; 0x04
    1f68:	8b 83       	std	Y+3, r24	; 0x03
    1f6a:	0b c0       	rjmp	.+22     	; 0x1f82 <enqueueByBaseline+0x46>
    1f6c:	8b 81       	ldd	r24, Y+3	; 0x03
    1f6e:	9c 81       	ldd	r25, Y+4	; 0x04
    1f70:	9a 83       	std	Y+2, r25	; 0x02
    1f72:	89 83       	std	Y+1, r24	; 0x01
    1f74:	8b 81       	ldd	r24, Y+3	; 0x03
    1f76:	9c 81       	ldd	r25, Y+4	; 0x04
    1f78:	fc 01       	movw	r30, r24
    1f7a:	80 81       	ld	r24, Z
    1f7c:	91 81       	ldd	r25, Z+1	; 0x01
    1f7e:	9c 83       	std	Y+4, r25	; 0x04
    1f80:	8b 83       	std	Y+3, r24	; 0x03
    1f82:	8b 81       	ldd	r24, Y+3	; 0x03
    1f84:	9c 81       	ldd	r25, Y+4	; 0x04
    1f86:	89 2b       	or	r24, r25
    1f88:	99 f0       	breq	.+38     	; 0x1fb0 <enqueueByBaseline+0x74>
    1f8a:	8b 81       	ldd	r24, Y+3	; 0x03
    1f8c:	9c 81       	ldd	r25, Y+4	; 0x04
    1f8e:	fc 01       	movw	r30, r24
    1f90:	22 81       	ldd	r18, Z+2	; 0x02
    1f92:	33 81       	ldd	r19, Z+3	; 0x03
    1f94:	44 81       	ldd	r20, Z+4	; 0x04
    1f96:	55 81       	ldd	r21, Z+5	; 0x05
    1f98:	8d 81       	ldd	r24, Y+5	; 0x05
    1f9a:	9e 81       	ldd	r25, Y+6	; 0x06
    1f9c:	fc 01       	movw	r30, r24
    1f9e:	82 81       	ldd	r24, Z+2	; 0x02
    1fa0:	93 81       	ldd	r25, Z+3	; 0x03
    1fa2:	a4 81       	ldd	r26, Z+4	; 0x04
    1fa4:	b5 81       	ldd	r27, Z+5	; 0x05
    1fa6:	82 17       	cp	r24, r18
    1fa8:	93 07       	cpc	r25, r19
    1faa:	a4 07       	cpc	r26, r20
    1fac:	b5 07       	cpc	r27, r21
    1fae:	f4 f6       	brge	.-68     	; 0x1f6c <enqueueByBaseline+0x30>
    1fb0:	8d 81       	ldd	r24, Y+5	; 0x05
    1fb2:	9e 81       	ldd	r25, Y+6	; 0x06
    1fb4:	2b 81       	ldd	r18, Y+3	; 0x03
    1fb6:	3c 81       	ldd	r19, Y+4	; 0x04
    1fb8:	fc 01       	movw	r30, r24
    1fba:	31 83       	std	Z+1, r19	; 0x01
    1fbc:	20 83       	st	Z, r18
    1fbe:	89 81       	ldd	r24, Y+1	; 0x01
    1fc0:	9a 81       	ldd	r25, Y+2	; 0x02
    1fc2:	89 2b       	or	r24, r25
    1fc4:	41 f4       	brne	.+16     	; 0x1fd6 <enqueueByBaseline+0x9a>
    1fc6:	8f 81       	ldd	r24, Y+7	; 0x07
    1fc8:	98 85       	ldd	r25, Y+8	; 0x08
    1fca:	2d 81       	ldd	r18, Y+5	; 0x05
    1fcc:	3e 81       	ldd	r19, Y+6	; 0x06
    1fce:	fc 01       	movw	r30, r24
    1fd0:	31 83       	std	Z+1, r19	; 0x01
    1fd2:	20 83       	st	Z, r18
    1fd4:	07 c0       	rjmp	.+14     	; 0x1fe4 <enqueueByBaseline+0xa8>
    1fd6:	89 81       	ldd	r24, Y+1	; 0x01
    1fd8:	9a 81       	ldd	r25, Y+2	; 0x02
    1fda:	2d 81       	ldd	r18, Y+5	; 0x05
    1fdc:	3e 81       	ldd	r19, Y+6	; 0x06
    1fde:	fc 01       	movw	r30, r24
    1fe0:	31 83       	std	Z+1, r19	; 0x01
    1fe2:	20 83       	st	Z, r18
    1fe4:	00 00       	nop
    1fe6:	28 96       	adiw	r28, 0x08	; 8
    1fe8:	0f b6       	in	r0, 0x3f	; 63
    1fea:	f8 94       	cli
    1fec:	de bf       	out	0x3e, r29	; 62
    1fee:	0f be       	out	0x3f, r0	; 63
    1ff0:	cd bf       	out	0x3d, r28	; 61
    1ff2:	df 91       	pop	r29
    1ff4:	cf 91       	pop	r28
    1ff6:	08 95       	ret

00001ff8 <dequeue>:
    1ff8:	cf 93       	push	r28
    1ffa:	df 93       	push	r29
    1ffc:	00 d0       	rcall	.+0      	; 0x1ffe <dequeue+0x6>
    1ffe:	00 d0       	rcall	.+0      	; 0x2000 <dequeue+0x8>
    2000:	cd b7       	in	r28, 0x3d	; 61
    2002:	de b7       	in	r29, 0x3e	; 62
    2004:	9c 83       	std	Y+4, r25	; 0x04
    2006:	8b 83       	std	Y+3, r24	; 0x03
    2008:	8b 81       	ldd	r24, Y+3	; 0x03
    200a:	9c 81       	ldd	r25, Y+4	; 0x04
    200c:	fc 01       	movw	r30, r24
    200e:	80 81       	ld	r24, Z
    2010:	91 81       	ldd	r25, Z+1	; 0x01
    2012:	9a 83       	std	Y+2, r25	; 0x02
    2014:	89 83       	std	Y+1, r24	; 0x01
    2016:	89 81       	ldd	r24, Y+1	; 0x01
    2018:	9a 81       	ldd	r25, Y+2	; 0x02
    201a:	89 2b       	or	r24, r25
    201c:	59 f0       	breq	.+22     	; 0x2034 <dequeue+0x3c>
    201e:	89 81       	ldd	r24, Y+1	; 0x01
    2020:	9a 81       	ldd	r25, Y+2	; 0x02
    2022:	fc 01       	movw	r30, r24
    2024:	20 81       	ld	r18, Z
    2026:	31 81       	ldd	r19, Z+1	; 0x01
    2028:	8b 81       	ldd	r24, Y+3	; 0x03
    202a:	9c 81       	ldd	r25, Y+4	; 0x04
    202c:	fc 01       	movw	r30, r24
    202e:	31 83       	std	Z+1, r19	; 0x01
    2030:	20 83       	st	Z, r18
    2032:	16 c0       	rjmp	.+44     	; 0x2060 <dequeue+0x68>
    2034:	8c ee       	ldi	r24, 0xEC	; 236
    2036:	90 e0       	ldi	r25, 0x00	; 0
    2038:	2f ef       	ldi	r18, 0xFF	; 255
    203a:	fc 01       	movw	r30, r24
    203c:	20 83       	st	Z, r18
    203e:	8d ee       	ldi	r24, 0xED	; 237
    2040:	90 e0       	ldi	r25, 0x00	; 0
    2042:	2f ef       	ldi	r18, 0xFF	; 255
    2044:	fc 01       	movw	r30, r24
    2046:	20 83       	st	Z, r18
    2048:	8e ee       	ldi	r24, 0xEE	; 238
    204a:	90 e0       	ldi	r25, 0x00	; 0
    204c:	2f ef       	ldi	r18, 0xFF	; 255
    204e:	fc 01       	movw	r30, r24
    2050:	20 83       	st	Z, r18
    2052:	83 e5       	ldi	r24, 0x53	; 83
    2054:	90 e0       	ldi	r25, 0x00	; 0
    2056:	21 e0       	ldi	r18, 0x01	; 1
    2058:	fc 01       	movw	r30, r24
    205a:	20 83       	st	Z, r18
    205c:	88 95       	sleep
    205e:	f9 cf       	rjmp	.-14     	; 0x2052 <dequeue+0x5a>
    2060:	89 81       	ldd	r24, Y+1	; 0x01
    2062:	9a 81       	ldd	r25, Y+2	; 0x02
    2064:	0f 90       	pop	r0
    2066:	0f 90       	pop	r0
    2068:	0f 90       	pop	r0
    206a:	0f 90       	pop	r0
    206c:	df 91       	pop	r29
    206e:	cf 91       	pop	r28
    2070:	08 95       	ret

00002072 <insert>:
    2072:	cf 93       	push	r28
    2074:	df 93       	push	r29
    2076:	00 d0       	rcall	.+0      	; 0x2078 <insert+0x6>
    2078:	00 d0       	rcall	.+0      	; 0x207a <insert+0x8>
    207a:	cd b7       	in	r28, 0x3d	; 61
    207c:	de b7       	in	r29, 0x3e	; 62
    207e:	9a 83       	std	Y+2, r25	; 0x02
    2080:	89 83       	std	Y+1, r24	; 0x01
    2082:	7c 83       	std	Y+4, r23	; 0x04
    2084:	6b 83       	std	Y+3, r22	; 0x03
    2086:	8b 81       	ldd	r24, Y+3	; 0x03
    2088:	9c 81       	ldd	r25, Y+4	; 0x04
    208a:	fc 01       	movw	r30, r24
    208c:	20 81       	ld	r18, Z
    208e:	31 81       	ldd	r19, Z+1	; 0x01
    2090:	89 81       	ldd	r24, Y+1	; 0x01
    2092:	9a 81       	ldd	r25, Y+2	; 0x02
    2094:	fc 01       	movw	r30, r24
    2096:	31 83       	std	Z+1, r19	; 0x01
    2098:	20 83       	st	Z, r18
    209a:	8b 81       	ldd	r24, Y+3	; 0x03
    209c:	9c 81       	ldd	r25, Y+4	; 0x04
    209e:	29 81       	ldd	r18, Y+1	; 0x01
    20a0:	3a 81       	ldd	r19, Y+2	; 0x02
    20a2:	fc 01       	movw	r30, r24
    20a4:	31 83       	std	Z+1, r19	; 0x01
    20a6:	20 83       	st	Z, r18
    20a8:	00 00       	nop
    20aa:	0f 90       	pop	r0
    20ac:	0f 90       	pop	r0
    20ae:	0f 90       	pop	r0
    20b0:	0f 90       	pop	r0
    20b2:	df 91       	pop	r29
    20b4:	cf 91       	pop	r28
    20b6:	08 95       	ret

000020b8 <push>:
    20b8:	cf 93       	push	r28
    20ba:	df 93       	push	r29
    20bc:	00 d0       	rcall	.+0      	; 0x20be <push+0x6>
    20be:	00 d0       	rcall	.+0      	; 0x20c0 <push+0x8>
    20c0:	cd b7       	in	r28, 0x3d	; 61
    20c2:	de b7       	in	r29, 0x3e	; 62
    20c4:	9a 83       	std	Y+2, r25	; 0x02
    20c6:	89 83       	std	Y+1, r24	; 0x01
    20c8:	7c 83       	std	Y+4, r23	; 0x04
    20ca:	6b 83       	std	Y+3, r22	; 0x03
    20cc:	8b 81       	ldd	r24, Y+3	; 0x03
    20ce:	9c 81       	ldd	r25, Y+4	; 0x04
    20d0:	fc 01       	movw	r30, r24
    20d2:	20 81       	ld	r18, Z
    20d4:	31 81       	ldd	r19, Z+1	; 0x01
    20d6:	89 81       	ldd	r24, Y+1	; 0x01
    20d8:	9a 81       	ldd	r25, Y+2	; 0x02
    20da:	fc 01       	movw	r30, r24
    20dc:	31 83       	std	Z+1, r19	; 0x01
    20de:	20 83       	st	Z, r18
    20e0:	8b 81       	ldd	r24, Y+3	; 0x03
    20e2:	9c 81       	ldd	r25, Y+4	; 0x04
    20e4:	29 81       	ldd	r18, Y+1	; 0x01
    20e6:	3a 81       	ldd	r19, Y+2	; 0x02
    20e8:	fc 01       	movw	r30, r24
    20ea:	31 83       	std	Z+1, r19	; 0x01
    20ec:	20 83       	st	Z, r18
    20ee:	00 00       	nop
    20f0:	0f 90       	pop	r0
    20f2:	0f 90       	pop	r0
    20f4:	0f 90       	pop	r0
    20f6:	0f 90       	pop	r0
    20f8:	df 91       	pop	r29
    20fa:	cf 91       	pop	r28
    20fc:	08 95       	ret

000020fe <pop>:
    20fe:	cf 93       	push	r28
    2100:	df 93       	push	r29
    2102:	00 d0       	rcall	.+0      	; 0x2104 <pop+0x6>
    2104:	00 d0       	rcall	.+0      	; 0x2106 <pop+0x8>
    2106:	cd b7       	in	r28, 0x3d	; 61
    2108:	de b7       	in	r29, 0x3e	; 62
    210a:	9c 83       	std	Y+4, r25	; 0x04
    210c:	8b 83       	std	Y+3, r24	; 0x03
    210e:	8b 81       	ldd	r24, Y+3	; 0x03
    2110:	9c 81       	ldd	r25, Y+4	; 0x04
    2112:	fc 01       	movw	r30, r24
    2114:	80 81       	ld	r24, Z
    2116:	91 81       	ldd	r25, Z+1	; 0x01
    2118:	9a 83       	std	Y+2, r25	; 0x02
    211a:	89 83       	std	Y+1, r24	; 0x01
    211c:	89 81       	ldd	r24, Y+1	; 0x01
    211e:	9a 81       	ldd	r25, Y+2	; 0x02
    2120:	fc 01       	movw	r30, r24
    2122:	20 81       	ld	r18, Z
    2124:	31 81       	ldd	r19, Z+1	; 0x01
    2126:	8b 81       	ldd	r24, Y+3	; 0x03
    2128:	9c 81       	ldd	r25, Y+4	; 0x04
    212a:	fc 01       	movw	r30, r24
    212c:	31 83       	std	Z+1, r19	; 0x01
    212e:	20 83       	st	Z, r18
    2130:	89 81       	ldd	r24, Y+1	; 0x01
    2132:	9a 81       	ldd	r25, Y+2	; 0x02
    2134:	0f 90       	pop	r0
    2136:	0f 90       	pop	r0
    2138:	0f 90       	pop	r0
    213a:	0f 90       	pop	r0
    213c:	df 91       	pop	r29
    213e:	cf 91       	pop	r28
    2140:	08 95       	ret

00002142 <__vector_9>:
    2142:	1f 92       	push	r1
    2144:	0f 92       	push	r0
    2146:	00 90 5f 00 	lds	r0, 0x005F	; 0x80005f <__TEXT_REGION_LENGTH__+0x7fc05f>
    214a:	0f 92       	push	r0
    214c:	11 24       	eor	r1, r1
    214e:	2f 93       	push	r18
    2150:	3f 93       	push	r19
    2152:	4f 93       	push	r20
    2154:	5f 93       	push	r21
    2156:	6f 93       	push	r22
    2158:	7f 93       	push	r23
    215a:	8f 93       	push	r24
    215c:	9f 93       	push	r25
    215e:	af 93       	push	r26
    2160:	bf 93       	push	r27
    2162:	ef 93       	push	r30
    2164:	ff 93       	push	r31
    2166:	cf 93       	push	r28
    2168:	df 93       	push	r29
    216a:	cd b7       	in	r28, 0x3d	; 61
    216c:	de b7       	in	r29, 0x3e	; 62
    216e:	80 91 40 01 	lds	r24, 0x0140	; 0x800140 <overflows>
    2172:	90 91 41 01 	lds	r25, 0x0141	; 0x800141 <overflows+0x1>
    2176:	01 96       	adiw	r24, 0x01	; 1
    2178:	90 93 41 01 	sts	0x0141, r25	; 0x800141 <overflows+0x1>
    217c:	80 93 40 01 	sts	0x0140, r24	; 0x800140 <overflows>
    2180:	80 91 3a 01 	lds	r24, 0x013A	; 0x80013a <timerQ>
    2184:	90 91 3b 01 	lds	r25, 0x013B	; 0x80013b <timerQ+0x1>
    2188:	89 2b       	or	r24, r25
    218a:	09 f4       	brne	.+2      	; 0x218e <__vector_9+0x4c>
    218c:	4a c0       	rjmp	.+148    	; 0x2222 <__vector_9+0xe0>
    218e:	80 91 3a 01 	lds	r24, 0x013A	; 0x80013a <timerQ>
    2192:	90 91 3b 01 	lds	r25, 0x013B	; 0x80013b <timerQ+0x1>
    2196:	fc 01       	movw	r30, r24
    2198:	82 81       	ldd	r24, Z+2	; 0x02
    219a:	93 81       	ldd	r25, Z+3	; 0x03
    219c:	a4 81       	ldd	r26, Z+4	; 0x04
    219e:	b5 81       	ldd	r27, Z+5	; 0x05
    21a0:	cd 01       	movw	r24, r26
    21a2:	bb 27       	eor	r27, r27
    21a4:	97 fd       	sbrc	r25, 7
    21a6:	b0 95       	com	r27
    21a8:	ab 2f       	mov	r26, r27
    21aa:	9c 01       	movw	r18, r24
    21ac:	80 91 40 01 	lds	r24, 0x0140	; 0x800140 <overflows>
    21b0:	90 91 41 01 	lds	r25, 0x0141	; 0x800141 <overflows+0x1>
    21b4:	28 17       	cp	r18, r24
    21b6:	39 07       	cpc	r19, r25
    21b8:	a1 f5       	brne	.+104    	; 0x2222 <__vector_9+0xe0>
    21ba:	28 e8       	ldi	r18, 0x88	; 136
    21bc:	30 e0       	ldi	r19, 0x00	; 0
    21be:	80 91 3a 01 	lds	r24, 0x013A	; 0x80013a <timerQ>
    21c2:	90 91 3b 01 	lds	r25, 0x013B	; 0x80013b <timerQ+0x1>
    21c6:	fc 01       	movw	r30, r24
    21c8:	82 81       	ldd	r24, Z+2	; 0x02
    21ca:	93 81       	ldd	r25, Z+3	; 0x03
    21cc:	a4 81       	ldd	r26, Z+4	; 0x04
    21ce:	b5 81       	ldd	r27, Z+5	; 0x05
    21d0:	ac 01       	movw	r20, r24
    21d2:	84 e8       	ldi	r24, 0x84	; 132
    21d4:	90 e0       	ldi	r25, 0x00	; 0
    21d6:	fc 01       	movw	r30, r24
    21d8:	80 81       	ld	r24, Z
    21da:	91 81       	ldd	r25, Z+1	; 0x01
    21dc:	ba 01       	movw	r22, r20
    21de:	68 1b       	sub	r22, r24
    21e0:	79 0b       	sbc	r23, r25
    21e2:	cb 01       	movw	r24, r22
    21e4:	01 97       	sbiw	r24, 0x01	; 1
    21e6:	39 f4       	brne	.+14     	; 0x21f6 <__vector_9+0xb4>
    21e8:	84 e8       	ldi	r24, 0x84	; 132
    21ea:	90 e0       	ldi	r25, 0x00	; 0
    21ec:	fc 01       	movw	r30, r24
    21ee:	80 81       	ld	r24, Z
    21f0:	91 81       	ldd	r25, Z+1	; 0x01
    21f2:	01 96       	adiw	r24, 0x01	; 1
    21f4:	09 c0       	rjmp	.+18     	; 0x2208 <__vector_9+0xc6>
    21f6:	80 91 3a 01 	lds	r24, 0x013A	; 0x80013a <timerQ>
    21fa:	90 91 3b 01 	lds	r25, 0x013B	; 0x80013b <timerQ+0x1>
    21fe:	fc 01       	movw	r30, r24
    2200:	82 81       	ldd	r24, Z+2	; 0x02
    2202:	93 81       	ldd	r25, Z+3	; 0x03
    2204:	a4 81       	ldd	r26, Z+4	; 0x04
    2206:	b5 81       	ldd	r27, Z+5	; 0x05
    2208:	f9 01       	movw	r30, r18
    220a:	91 83       	std	Z+1, r25	; 0x01
    220c:	80 83       	st	Z, r24
    220e:	8f e6       	ldi	r24, 0x6F	; 111
    2210:	90 e0       	ldi	r25, 0x00	; 0
    2212:	2f e6       	ldi	r18, 0x6F	; 111
    2214:	30 e0       	ldi	r19, 0x00	; 0
    2216:	f9 01       	movw	r30, r18
    2218:	20 81       	ld	r18, Z
    221a:	22 60       	ori	r18, 0x02	; 2
    221c:	fc 01       	movw	r30, r24
    221e:	20 83       	st	Z, r18
    2220:	09 c0       	rjmp	.+18     	; 0x2234 <__vector_9+0xf2>
    2222:	8f e6       	ldi	r24, 0x6F	; 111
    2224:	90 e0       	ldi	r25, 0x00	; 0
    2226:	2f e6       	ldi	r18, 0x6F	; 111
    2228:	30 e0       	ldi	r19, 0x00	; 0
    222a:	f9 01       	movw	r30, r18
    222c:	20 81       	ld	r18, Z
    222e:	2d 7f       	andi	r18, 0xFD	; 253
    2230:	fc 01       	movw	r30, r24
    2232:	20 83       	st	Z, r18
    2234:	00 00       	nop
    2236:	df 91       	pop	r29
    2238:	cf 91       	pop	r28
    223a:	ff 91       	pop	r31
    223c:	ef 91       	pop	r30
    223e:	bf 91       	pop	r27
    2240:	af 91       	pop	r26
    2242:	9f 91       	pop	r25
    2244:	8f 91       	pop	r24
    2246:	7f 91       	pop	r23
    2248:	6f 91       	pop	r22
    224a:	5f 91       	pop	r21
    224c:	4f 91       	pop	r20
    224e:	3f 91       	pop	r19
    2250:	2f 91       	pop	r18
    2252:	0f 90       	pop	r0
    2254:	00 92 5f 00 	sts	0x005F, r0	; 0x80005f <__TEXT_REGION_LENGTH__+0x7fc05f>
    2258:	0f 90       	pop	r0
    225a:	1f 90       	pop	r1
    225c:	18 95       	reti

0000225e <__vector_7>:
    225e:	1f 92       	push	r1
    2260:	0f 92       	push	r0
    2262:	00 90 5f 00 	lds	r0, 0x005F	; 0x80005f <__TEXT_REGION_LENGTH__+0x7fc05f>
    2266:	0f 92       	push	r0
    2268:	11 24       	eor	r1, r1
    226a:	ef 92       	push	r14
    226c:	ff 92       	push	r15
    226e:	0f 93       	push	r16
    2270:	1f 93       	push	r17
    2272:	2f 93       	push	r18
    2274:	3f 93       	push	r19
    2276:	4f 93       	push	r20
    2278:	5f 93       	push	r21
    227a:	6f 93       	push	r22
    227c:	7f 93       	push	r23
    227e:	8f 93       	push	r24
    2280:	9f 93       	push	r25
    2282:	af 93       	push	r26
    2284:	bf 93       	push	r27
    2286:	ef 93       	push	r30
    2288:	ff 93       	push	r31
    228a:	cf 93       	push	r28
    228c:	df 93       	push	r29
    228e:	00 d0       	rcall	.+0      	; 0x2290 <__vector_7+0x32>
    2290:	00 d0       	rcall	.+0      	; 0x2292 <__vector_7+0x34>
    2292:	cd b7       	in	r28, 0x3d	; 61
    2294:	de b7       	in	r29, 0x3e	; 62
    2296:	80 91 40 01 	lds	r24, 0x0140	; 0x800140 <overflows>
    229a:	90 91 41 01 	lds	r25, 0x0141	; 0x800141 <overflows+0x1>
    229e:	09 2e       	mov	r0, r25
    22a0:	00 0c       	add	r0, r0
    22a2:	aa 0b       	sbc	r26, r26
    22a4:	bb 0b       	sbc	r27, r27
    22a6:	ac 01       	movw	r20, r24
    22a8:	33 27       	eor	r19, r19
    22aa:	22 27       	eor	r18, r18
    22ac:	84 e8       	ldi	r24, 0x84	; 132
    22ae:	90 e0       	ldi	r25, 0x00	; 0
    22b0:	fc 01       	movw	r30, r24
    22b2:	80 81       	ld	r24, Z
    22b4:	91 81       	ldd	r25, Z+1	; 0x01
    22b6:	cc 01       	movw	r24, r24
    22b8:	a0 e0       	ldi	r26, 0x00	; 0
    22ba:	b0 e0       	ldi	r27, 0x00	; 0
    22bc:	82 2b       	or	r24, r18
    22be:	93 2b       	or	r25, r19
    22c0:	a4 2b       	or	r26, r20
    22c2:	b5 2b       	or	r27, r21
    22c4:	89 83       	std	Y+1, r24	; 0x01
    22c6:	9a 83       	std	Y+2, r25	; 0x02
    22c8:	ab 83       	std	Y+3, r26	; 0x03
    22ca:	bc 83       	std	Y+4, r27	; 0x04
    22cc:	86 e3       	ldi	r24, 0x36	; 54
    22ce:	90 e0       	ldi	r25, 0x00	; 0
    22d0:	fc 01       	movw	r30, r24
    22d2:	80 81       	ld	r24, Z
    22d4:	88 2f       	mov	r24, r24
    22d6:	90 e0       	ldi	r25, 0x00	; 0
    22d8:	81 70       	andi	r24, 0x01	; 1
    22da:	99 27       	eor	r25, r25
    22dc:	89 2b       	or	r24, r25
    22de:	29 f1       	breq	.+74     	; 0x232a <__vector_7+0xcc>
    22e0:	80 91 40 01 	lds	r24, 0x0140	; 0x800140 <overflows>
    22e4:	90 91 41 01 	lds	r25, 0x0141	; 0x800141 <overflows+0x1>
    22e8:	01 96       	adiw	r24, 0x01	; 1
    22ea:	09 2e       	mov	r0, r25
    22ec:	00 0c       	add	r0, r0
    22ee:	aa 0b       	sbc	r26, r26
    22f0:	bb 0b       	sbc	r27, r27
    22f2:	ac 01       	movw	r20, r24
    22f4:	33 27       	eor	r19, r19
    22f6:	22 27       	eor	r18, r18
    22f8:	84 e8       	ldi	r24, 0x84	; 132
    22fa:	90 e0       	ldi	r25, 0x00	; 0
    22fc:	fc 01       	movw	r30, r24
    22fe:	80 81       	ld	r24, Z
    2300:	91 81       	ldd	r25, Z+1	; 0x01
    2302:	cc 01       	movw	r24, r24
    2304:	a0 e0       	ldi	r26, 0x00	; 0
    2306:	b0 e0       	ldi	r27, 0x00	; 0
    2308:	82 2b       	or	r24, r18
    230a:	93 2b       	or	r25, r19
    230c:	a4 2b       	or	r26, r20
    230e:	b5 2b       	or	r27, r21
    2310:	89 83       	std	Y+1, r24	; 0x01
    2312:	9a 83       	std	Y+2, r25	; 0x02
    2314:	ab 83       	std	Y+3, r26	; 0x03
    2316:	bc 83       	std	Y+4, r27	; 0x04
    2318:	08 c0       	rjmp	.+16     	; 0x232a <__vector_7+0xcc>
    231a:	8a e3       	ldi	r24, 0x3A	; 58
    231c:	91 e0       	ldi	r25, 0x01	; 1
    231e:	0e 94 fc 0f 	call	0x1ff8	; 0x1ff8 <dequeue>
    2322:	68 e3       	ldi	r22, 0x38	; 56
    2324:	71 e0       	ldi	r23, 0x01	; 1
    2326:	0e 94 40 0f 	call	0x1e80	; 0x1e80 <enqueueByDeadline>
    232a:	80 91 3a 01 	lds	r24, 0x013A	; 0x80013a <timerQ>
    232e:	90 91 3b 01 	lds	r25, 0x013B	; 0x80013b <timerQ+0x1>
    2332:	89 2b       	or	r24, r25
    2334:	d1 f0       	breq	.+52     	; 0x236a <__vector_7+0x10c>
    2336:	80 91 3a 01 	lds	r24, 0x013A	; 0x80013a <timerQ>
    233a:	90 91 3b 01 	lds	r25, 0x013B	; 0x80013b <timerQ+0x1>
    233e:	fc 01       	movw	r30, r24
    2340:	22 81       	ldd	r18, Z+2	; 0x02
    2342:	33 81       	ldd	r19, Z+3	; 0x03
    2344:	44 81       	ldd	r20, Z+4	; 0x04
    2346:	55 81       	ldd	r21, Z+5	; 0x05
    2348:	89 81       	ldd	r24, Y+1	; 0x01
    234a:	9a 81       	ldd	r25, Y+2	; 0x02
    234c:	ab 81       	ldd	r26, Y+3	; 0x03
    234e:	bc 81       	ldd	r27, Y+4	; 0x04
    2350:	79 01       	movw	r14, r18
    2352:	8a 01       	movw	r16, r20
    2354:	e8 1a       	sub	r14, r24
    2356:	f9 0a       	sbc	r15, r25
    2358:	0a 0b       	sbc	r16, r26
    235a:	1b 0b       	sbc	r17, r27
    235c:	d8 01       	movw	r26, r16
    235e:	c7 01       	movw	r24, r14
    2360:	18 16       	cp	r1, r24
    2362:	19 06       	cpc	r1, r25
    2364:	1a 06       	cpc	r1, r26
    2366:	1b 06       	cpc	r1, r27
    2368:	c4 f6       	brge	.-80     	; 0x231a <__vector_7+0xbc>
    236a:	80 91 3a 01 	lds	r24, 0x013A	; 0x80013a <timerQ>
    236e:	90 91 3b 01 	lds	r25, 0x013B	; 0x80013b <timerQ+0x1>
    2372:	89 2b       	or	r24, r25
    2374:	09 f4       	brne	.+2      	; 0x2378 <__vector_7+0x11a>
    2376:	4a c0       	rjmp	.+148    	; 0x240c <__vector_7+0x1ae>
    2378:	80 91 3a 01 	lds	r24, 0x013A	; 0x80013a <timerQ>
    237c:	90 91 3b 01 	lds	r25, 0x013B	; 0x80013b <timerQ+0x1>
    2380:	fc 01       	movw	r30, r24
    2382:	82 81       	ldd	r24, Z+2	; 0x02
    2384:	93 81       	ldd	r25, Z+3	; 0x03
    2386:	a4 81       	ldd	r26, Z+4	; 0x04
    2388:	b5 81       	ldd	r27, Z+5	; 0x05
    238a:	cd 01       	movw	r24, r26
    238c:	bb 27       	eor	r27, r27
    238e:	97 fd       	sbrc	r25, 7
    2390:	b0 95       	com	r27
    2392:	ab 2f       	mov	r26, r27
    2394:	9c 01       	movw	r18, r24
    2396:	80 91 40 01 	lds	r24, 0x0140	; 0x800140 <overflows>
    239a:	90 91 41 01 	lds	r25, 0x0141	; 0x800141 <overflows+0x1>
    239e:	28 17       	cp	r18, r24
    23a0:	39 07       	cpc	r19, r25
    23a2:	a1 f5       	brne	.+104    	; 0x240c <__vector_7+0x1ae>
    23a4:	28 e8       	ldi	r18, 0x88	; 136
    23a6:	30 e0       	ldi	r19, 0x00	; 0
    23a8:	80 91 3a 01 	lds	r24, 0x013A	; 0x80013a <timerQ>
    23ac:	90 91 3b 01 	lds	r25, 0x013B	; 0x80013b <timerQ+0x1>
    23b0:	fc 01       	movw	r30, r24
    23b2:	82 81       	ldd	r24, Z+2	; 0x02
    23b4:	93 81       	ldd	r25, Z+3	; 0x03
    23b6:	a4 81       	ldd	r26, Z+4	; 0x04
    23b8:	b5 81       	ldd	r27, Z+5	; 0x05
    23ba:	ac 01       	movw	r20, r24
    23bc:	84 e8       	ldi	r24, 0x84	; 132
    23be:	90 e0       	ldi	r25, 0x00	; 0
    23c0:	fc 01       	movw	r30, r24
    23c2:	80 81       	ld	r24, Z
    23c4:	91 81       	ldd	r25, Z+1	; 0x01
    23c6:	7a 01       	movw	r14, r20
    23c8:	e8 1a       	sub	r14, r24
    23ca:	f9 0a       	sbc	r15, r25
    23cc:	c7 01       	movw	r24, r14
    23ce:	01 97       	sbiw	r24, 0x01	; 1
    23d0:	39 f4       	brne	.+14     	; 0x23e0 <__vector_7+0x182>
    23d2:	84 e8       	ldi	r24, 0x84	; 132
    23d4:	90 e0       	ldi	r25, 0x00	; 0
    23d6:	fc 01       	movw	r30, r24
    23d8:	80 81       	ld	r24, Z
    23da:	91 81       	ldd	r25, Z+1	; 0x01
    23dc:	01 96       	adiw	r24, 0x01	; 1
    23de:	09 c0       	rjmp	.+18     	; 0x23f2 <__vector_7+0x194>
    23e0:	80 91 3a 01 	lds	r24, 0x013A	; 0x80013a <timerQ>
    23e4:	90 91 3b 01 	lds	r25, 0x013B	; 0x80013b <timerQ+0x1>
    23e8:	fc 01       	movw	r30, r24
    23ea:	82 81       	ldd	r24, Z+2	; 0x02
    23ec:	93 81       	ldd	r25, Z+3	; 0x03
    23ee:	a4 81       	ldd	r26, Z+4	; 0x04
    23f0:	b5 81       	ldd	r27, Z+5	; 0x05
    23f2:	f9 01       	movw	r30, r18
    23f4:	91 83       	std	Z+1, r25	; 0x01
    23f6:	80 83       	st	Z, r24
    23f8:	8f e6       	ldi	r24, 0x6F	; 111
    23fa:	90 e0       	ldi	r25, 0x00	; 0
    23fc:	2f e6       	ldi	r18, 0x6F	; 111
    23fe:	30 e0       	ldi	r19, 0x00	; 0
    2400:	f9 01       	movw	r30, r18
    2402:	20 81       	ld	r18, Z
    2404:	22 60       	ori	r18, 0x02	; 2
    2406:	fc 01       	movw	r30, r24
    2408:	20 83       	st	Z, r18
    240a:	09 c0       	rjmp	.+18     	; 0x241e <__vector_7+0x1c0>
    240c:	8f e6       	ldi	r24, 0x6F	; 111
    240e:	90 e0       	ldi	r25, 0x00	; 0
    2410:	2f e6       	ldi	r18, 0x6F	; 111
    2412:	30 e0       	ldi	r19, 0x00	; 0
    2414:	f9 01       	movw	r30, r18
    2416:	20 81       	ld	r18, Z
    2418:	2d 7f       	andi	r18, 0xFD	; 253
    241a:	fc 01       	movw	r30, r24
    241c:	20 83       	st	Z, r18
    241e:	0e 94 fc 12 	call	0x25f8	; 0x25f8 <schedule>
    2422:	00 00       	nop
    2424:	0f 90       	pop	r0
    2426:	0f 90       	pop	r0
    2428:	0f 90       	pop	r0
    242a:	0f 90       	pop	r0
    242c:	df 91       	pop	r29
    242e:	cf 91       	pop	r28
    2430:	ff 91       	pop	r31
    2432:	ef 91       	pop	r30
    2434:	bf 91       	pop	r27
    2436:	af 91       	pop	r26
    2438:	9f 91       	pop	r25
    243a:	8f 91       	pop	r24
    243c:	7f 91       	pop	r23
    243e:	6f 91       	pop	r22
    2440:	5f 91       	pop	r21
    2442:	4f 91       	pop	r20
    2444:	3f 91       	pop	r19
    2446:	2f 91       	pop	r18
    2448:	1f 91       	pop	r17
    244a:	0f 91       	pop	r16
    244c:	ff 90       	pop	r15
    244e:	ef 90       	pop	r14
    2450:	0f 90       	pop	r0
    2452:	00 92 5f 00 	sts	0x005F, r0	; 0x80005f <__TEXT_REGION_LENGTH__+0x7fc05f>
    2456:	0f 90       	pop	r0
    2458:	1f 90       	pop	r1
    245a:	18 95       	reti

0000245c <dispatch>:
    245c:	cf 93       	push	r28
    245e:	df 93       	push	r29
    2460:	00 d0       	rcall	.+0      	; 0x2462 <dispatch+0x6>
    2462:	cd b7       	in	r28, 0x3d	; 61
    2464:	de b7       	in	r29, 0x3e	; 62
    2466:	9a 83       	std	Y+2, r25	; 0x02
    2468:	89 83       	std	Y+1, r24	; 0x01
    246a:	80 91 36 01 	lds	r24, 0x0136	; 0x800136 <current>
    246e:	90 91 37 01 	lds	r25, 0x0137	; 0x800137 <current+0x1>
    2472:	06 96       	adiw	r24, 0x06	; 6
    2474:	0e 94 7c 17 	call	0x2ef8	; 0x2ef8 <setjmp>
    2478:	89 2b       	or	r24, r25
    247a:	69 f4       	brne	.+26     	; 0x2496 <dispatch+0x3a>
    247c:	89 81       	ldd	r24, Y+1	; 0x01
    247e:	9a 81       	ldd	r25, Y+2	; 0x02
    2480:	90 93 37 01 	sts	0x0137, r25	; 0x800137 <current+0x1>
    2484:	80 93 36 01 	sts	0x0136, r24	; 0x800136 <current>
    2488:	89 81       	ldd	r24, Y+1	; 0x01
    248a:	9a 81       	ldd	r25, Y+2	; 0x02
    248c:	06 96       	adiw	r24, 0x06	; 6
    248e:	61 e0       	ldi	r22, 0x01	; 1
    2490:	70 e0       	ldi	r23, 0x00	; 0
    2492:	0e 94 9c 17 	call	0x2f38	; 0x2f38 <longjmp>
    2496:	00 00       	nop
    2498:	0f 90       	pop	r0
    249a:	0f 90       	pop	r0
    249c:	df 91       	pop	r29
    249e:	cf 91       	pop	r28
    24a0:	08 95       	ret

000024a2 <run>:
    24a2:	ef 92       	push	r14
    24a4:	ff 92       	push	r15
    24a6:	0f 93       	push	r16
    24a8:	1f 93       	push	r17
    24aa:	cf 93       	push	r28
    24ac:	df 93       	push	r29
    24ae:	cd b7       	in	r28, 0x3d	; 61
    24b0:	de b7       	in	r29, 0x3e	; 62
    24b2:	27 97       	sbiw	r28, 0x07	; 7
    24b4:	0f b6       	in	r0, 0x3f	; 63
    24b6:	f8 94       	cli
    24b8:	de bf       	out	0x3e, r29	; 62
    24ba:	0f be       	out	0x3f, r0	; 63
    24bc:	cd bf       	out	0x3d, r28	; 61
    24be:	00 91 36 01 	lds	r16, 0x0136	; 0x800136 <current>
    24c2:	10 91 37 01 	lds	r17, 0x0137	; 0x800137 <current+0x1>
    24c6:	88 e3       	ldi	r24, 0x38	; 56
    24c8:	91 e0       	ldi	r25, 0x01	; 1
    24ca:	0e 94 fc 0f 	call	0x1ff8	; 0x1ff8 <dequeue>
    24ce:	f8 01       	movw	r30, r16
    24d0:	93 83       	std	Z+3, r25	; 0x03
    24d2:	82 83       	std	Z+2, r24	; 0x02
    24d4:	f8 01       	movw	r30, r16
    24d6:	82 81       	ldd	r24, Z+2	; 0x02
    24d8:	93 81       	ldd	r25, Z+3	; 0x03
    24da:	9c 83       	std	Y+4, r25	; 0x04
    24dc:	8b 83       	std	Y+3, r24	; 0x03
    24de:	81 e0       	ldi	r24, 0x01	; 1
    24e0:	8d 83       	std	Y+5, r24	; 0x05
    24e2:	8d 81       	ldd	r24, Y+5	; 0x05
    24e4:	88 23       	and	r24, r24
    24e6:	09 f0       	breq	.+2      	; 0x24ea <run+0x48>
    24e8:	78 94       	sei
    24ea:	8b 81       	ldd	r24, Y+3	; 0x03
    24ec:	9c 81       	ldd	r25, Y+4	; 0x04
    24ee:	fc 01       	movw	r30, r24
    24f0:	46 85       	ldd	r20, Z+14	; 0x0e
    24f2:	57 85       	ldd	r21, Z+15	; 0x0f
    24f4:	8b 81       	ldd	r24, Y+3	; 0x03
    24f6:	9c 81       	ldd	r25, Y+4	; 0x04
    24f8:	fc 01       	movw	r30, r24
    24fa:	24 85       	ldd	r18, Z+12	; 0x0c
    24fc:	35 85       	ldd	r19, Z+13	; 0x0d
    24fe:	8b 81       	ldd	r24, Y+3	; 0x03
    2500:	9c 81       	ldd	r25, Y+4	; 0x04
    2502:	fc 01       	movw	r30, r24
    2504:	82 85       	ldd	r24, Z+10	; 0x0a
    2506:	93 85       	ldd	r25, Z+11	; 0x0b
    2508:	b9 01       	movw	r22, r18
    250a:	0e 94 e7 14 	call	0x29ce	; 0x29ce <sync>
    250e:	8f e5       	ldi	r24, 0x5F	; 95
    2510:	90 e0       	ldi	r25, 0x00	; 0
    2512:	fc 01       	movw	r30, r24
    2514:	80 81       	ld	r24, Z
    2516:	80 78       	andi	r24, 0x80	; 128
    2518:	8d 83       	std	Y+5, r24	; 0x05
    251a:	f8 94       	cli
    251c:	8b 81       	ldd	r24, Y+3	; 0x03
    251e:	9c 81       	ldd	r25, Y+4	; 0x04
    2520:	60 e3       	ldi	r22, 0x30	; 48
    2522:	71 e0       	ldi	r23, 0x01	; 1
    2524:	0e 94 39 10 	call	0x2072	; 0x2072 <insert>
    2528:	80 91 34 01 	lds	r24, 0x0134	; 0x800134 <activeStack>
    252c:	90 91 35 01 	lds	r25, 0x0135	; 0x800135 <activeStack+0x1>
    2530:	fc 01       	movw	r30, r24
    2532:	80 81       	ld	r24, Z
    2534:	91 81       	ldd	r25, Z+1	; 0x01
    2536:	fc 01       	movw	r30, r24
    2538:	82 81       	ldd	r24, Z+2	; 0x02
    253a:	93 81       	ldd	r25, Z+3	; 0x03
    253c:	9f 83       	std	Y+7, r25	; 0x07
    253e:	8e 83       	std	Y+6, r24	; 0x06
    2540:	80 91 38 01 	lds	r24, 0x0138	; 0x800138 <__data_end>
    2544:	90 91 39 01 	lds	r25, 0x0139	; 0x800139 <__data_end+0x1>
    2548:	89 2b       	or	r24, r25
    254a:	19 f1       	breq	.+70     	; 0x2592 <run+0xf0>
    254c:	8e 81       	ldd	r24, Y+6	; 0x06
    254e:	9f 81       	ldd	r25, Y+7	; 0x07
    2550:	89 2b       	or	r24, r25
    2552:	09 f4       	brne	.+2      	; 0x2556 <run+0xb4>
    2554:	b4 cf       	rjmp	.-152    	; 0x24be <run+0x1c>
    2556:	80 91 38 01 	lds	r24, 0x0138	; 0x800138 <__data_end>
    255a:	90 91 39 01 	lds	r25, 0x0139	; 0x800139 <__data_end+0x1>
    255e:	fc 01       	movw	r30, r24
    2560:	26 81       	ldd	r18, Z+6	; 0x06
    2562:	37 81       	ldd	r19, Z+7	; 0x07
    2564:	40 85       	ldd	r20, Z+8	; 0x08
    2566:	51 85       	ldd	r21, Z+9	; 0x09
    2568:	8e 81       	ldd	r24, Y+6	; 0x06
    256a:	9f 81       	ldd	r25, Y+7	; 0x07
    256c:	fc 01       	movw	r30, r24
    256e:	86 81       	ldd	r24, Z+6	; 0x06
    2570:	97 81       	ldd	r25, Z+7	; 0x07
    2572:	a0 85       	ldd	r26, Z+8	; 0x08
    2574:	b1 85       	ldd	r27, Z+9	; 0x09
    2576:	79 01       	movw	r14, r18
    2578:	8a 01       	movw	r16, r20
    257a:	e8 1a       	sub	r14, r24
    257c:	f9 0a       	sbc	r15, r25
    257e:	0a 0b       	sbc	r16, r26
    2580:	1b 0b       	sbc	r17, r27
    2582:	d8 01       	movw	r26, r16
    2584:	c7 01       	movw	r24, r14
    2586:	18 16       	cp	r1, r24
    2588:	19 06       	cpc	r1, r25
    258a:	1a 06       	cpc	r1, r26
    258c:	1b 06       	cpc	r1, r27
    258e:	0c f0       	brlt	.+2      	; 0x2592 <run+0xf0>
    2590:	96 cf       	rjmp	.-212    	; 0x24be <run+0x1c>
    2592:	84 e3       	ldi	r24, 0x34	; 52
    2594:	91 e0       	ldi	r25, 0x01	; 1
    2596:	0e 94 7f 10 	call	0x20fe	; 0x20fe <pop>
    259a:	62 e3       	ldi	r22, 0x32	; 50
    259c:	71 e0       	ldi	r23, 0x01	; 1
    259e:	0e 94 5c 10 	call	0x20b8	; 0x20b8 <push>
    25a2:	80 91 34 01 	lds	r24, 0x0134	; 0x800134 <activeStack>
    25a6:	90 91 35 01 	lds	r25, 0x0135	; 0x800135 <activeStack+0x1>
    25aa:	9a 83       	std	Y+2, r25	; 0x02
    25ac:	89 83       	std	Y+1, r24	; 0x01
    25ae:	0a c0       	rjmp	.+20     	; 0x25c4 <run+0x122>
    25b0:	89 81       	ldd	r24, Y+1	; 0x01
    25b2:	9a 81       	ldd	r25, Y+2	; 0x02
    25b4:	fc 01       	movw	r30, r24
    25b6:	84 81       	ldd	r24, Z+4	; 0x04
    25b8:	95 81       	ldd	r25, Z+5	; 0x05
    25ba:	fc 01       	movw	r30, r24
    25bc:	80 81       	ld	r24, Z
    25be:	91 81       	ldd	r25, Z+1	; 0x01
    25c0:	9a 83       	std	Y+2, r25	; 0x02
    25c2:	89 83       	std	Y+1, r24	; 0x01
    25c4:	89 81       	ldd	r24, Y+1	; 0x01
    25c6:	9a 81       	ldd	r25, Y+2	; 0x02
    25c8:	fc 01       	movw	r30, r24
    25ca:	84 81       	ldd	r24, Z+4	; 0x04
    25cc:	95 81       	ldd	r25, Z+5	; 0x05
    25ce:	89 2b       	or	r24, r25
    25d0:	79 f7       	brne	.-34     	; 0x25b0 <run+0x10e>
    25d2:	89 81       	ldd	r24, Y+1	; 0x01
    25d4:	9a 81       	ldd	r25, Y+2	; 0x02
    25d6:	0e 94 2e 12 	call	0x245c	; 0x245c <dispatch>
    25da:	71 cf       	rjmp	.-286    	; 0x24be <run+0x1c>

000025dc <idle>:
    25dc:	cf 93       	push	r28
    25de:	df 93       	push	r29
    25e0:	cd b7       	in	r28, 0x3d	; 61
    25e2:	de b7       	in	r29, 0x3e	; 62
    25e4:	0e 94 fc 12 	call	0x25f8	; 0x25f8 <schedule>
    25e8:	78 94       	sei
    25ea:	83 e5       	ldi	r24, 0x53	; 83
    25ec:	90 e0       	ldi	r25, 0x00	; 0
    25ee:	21 e0       	ldi	r18, 0x01	; 1
    25f0:	fc 01       	movw	r30, r24
    25f2:	20 83       	st	Z, r18
    25f4:	88 95       	sleep
    25f6:	f9 cf       	rjmp	.-14     	; 0x25ea <idle+0xe>

000025f8 <schedule>:
    25f8:	ef 92       	push	r14
    25fa:	ff 92       	push	r15
    25fc:	0f 93       	push	r16
    25fe:	1f 93       	push	r17
    2600:	cf 93       	push	r28
    2602:	df 93       	push	r29
    2604:	00 d0       	rcall	.+0      	; 0x2606 <schedule+0xe>
    2606:	cd b7       	in	r28, 0x3d	; 61
    2608:	de b7       	in	r29, 0x3e	; 62
    260a:	80 91 34 01 	lds	r24, 0x0134	; 0x800134 <activeStack>
    260e:	90 91 35 01 	lds	r25, 0x0135	; 0x800135 <activeStack+0x1>
    2612:	fc 01       	movw	r30, r24
    2614:	82 81       	ldd	r24, Z+2	; 0x02
    2616:	93 81       	ldd	r25, Z+3	; 0x03
    2618:	9a 83       	std	Y+2, r25	; 0x02
    261a:	89 83       	std	Y+1, r24	; 0x01
    261c:	80 91 38 01 	lds	r24, 0x0138	; 0x800138 <__data_end>
    2620:	90 91 39 01 	lds	r25, 0x0139	; 0x800139 <__data_end+0x1>
    2624:	89 2b       	or	r24, r25
    2626:	91 f1       	breq	.+100    	; 0x268c <schedule+0x94>
    2628:	80 91 32 01 	lds	r24, 0x0132	; 0x800132 <threadPool>
    262c:	90 91 33 01 	lds	r25, 0x0133	; 0x800133 <threadPool+0x1>
    2630:	89 2b       	or	r24, r25
    2632:	61 f1       	breq	.+88     	; 0x268c <schedule+0x94>
    2634:	89 81       	ldd	r24, Y+1	; 0x01
    2636:	9a 81       	ldd	r25, Y+2	; 0x02
    2638:	89 2b       	or	r24, r25
    263a:	d1 f0       	breq	.+52     	; 0x2670 <schedule+0x78>
    263c:	80 91 38 01 	lds	r24, 0x0138	; 0x800138 <__data_end>
    2640:	90 91 39 01 	lds	r25, 0x0139	; 0x800139 <__data_end+0x1>
    2644:	fc 01       	movw	r30, r24
    2646:	26 81       	ldd	r18, Z+6	; 0x06
    2648:	37 81       	ldd	r19, Z+7	; 0x07
    264a:	40 85       	ldd	r20, Z+8	; 0x08
    264c:	51 85       	ldd	r21, Z+9	; 0x09
    264e:	89 81       	ldd	r24, Y+1	; 0x01
    2650:	9a 81       	ldd	r25, Y+2	; 0x02
    2652:	fc 01       	movw	r30, r24
    2654:	86 81       	ldd	r24, Z+6	; 0x06
    2656:	97 81       	ldd	r25, Z+7	; 0x07
    2658:	a0 85       	ldd	r26, Z+8	; 0x08
    265a:	b1 85       	ldd	r27, Z+9	; 0x09
    265c:	79 01       	movw	r14, r18
    265e:	8a 01       	movw	r16, r20
    2660:	e8 1a       	sub	r14, r24
    2662:	f9 0a       	sbc	r15, r25
    2664:	0a 0b       	sbc	r16, r26
    2666:	1b 0b       	sbc	r17, r27
    2668:	d8 01       	movw	r26, r16
    266a:	c7 01       	movw	r24, r14
    266c:	bb 23       	and	r27, r27
    266e:	74 f4       	brge	.+28     	; 0x268c <schedule+0x94>
    2670:	82 e3       	ldi	r24, 0x32	; 50
    2672:	91 e0       	ldi	r25, 0x01	; 1
    2674:	0e 94 7f 10 	call	0x20fe	; 0x20fe <pop>
    2678:	64 e3       	ldi	r22, 0x34	; 52
    267a:	71 e0       	ldi	r23, 0x01	; 1
    267c:	0e 94 5c 10 	call	0x20b8	; 0x20b8 <push>
    2680:	80 91 34 01 	lds	r24, 0x0134	; 0x800134 <activeStack>
    2684:	90 91 35 01 	lds	r25, 0x0135	; 0x800135 <activeStack+0x1>
    2688:	0e 94 2e 12 	call	0x245c	; 0x245c <dispatch>
    268c:	00 00       	nop
    268e:	0f 90       	pop	r0
    2690:	0f 90       	pop	r0
    2692:	df 91       	pop	r29
    2694:	cf 91       	pop	r28
    2696:	1f 91       	pop	r17
    2698:	0f 91       	pop	r16
    269a:	ff 90       	pop	r15
    269c:	ef 90       	pop	r14
    269e:	08 95       	ret

000026a0 <async>:
    26a0:	cf 92       	push	r12
    26a2:	df 92       	push	r13
    26a4:	ef 92       	push	r14
    26a6:	ff 92       	push	r15
    26a8:	0f 93       	push	r16
    26aa:	1f 93       	push	r17
    26ac:	cf 93       	push	r28
    26ae:	df 93       	push	r29
    26b0:	cd b7       	in	r28, 0x3d	; 61
    26b2:	de b7       	in	r29, 0x3e	; 62
    26b4:	65 97       	sbiw	r28, 0x15	; 21
    26b6:	0f b6       	in	r0, 0x3f	; 63
    26b8:	f8 94       	cli
    26ba:	de bf       	out	0x3e, r29	; 62
    26bc:	0f be       	out	0x3f, r0	; 63
    26be:	cd bf       	out	0x3d, r28	; 61
    26c0:	68 87       	std	Y+8, r22	; 0x08
    26c2:	79 87       	std	Y+9, r23	; 0x09
    26c4:	8a 87       	std	Y+10, r24	; 0x0a
    26c6:	9b 87       	std	Y+11, r25	; 0x0b
    26c8:	2c 87       	std	Y+12, r18	; 0x0c
    26ca:	3d 87       	std	Y+13, r19	; 0x0d
    26cc:	4e 87       	std	Y+14, r20	; 0x0e
    26ce:	5f 87       	std	Y+15, r21	; 0x0f
    26d0:	19 8b       	std	Y+17, r17	; 0x11
    26d2:	08 8b       	std	Y+16, r16	; 0x10
    26d4:	fb 8a       	std	Y+19, r15	; 0x13
    26d6:	ea 8a       	std	Y+18, r14	; 0x12
    26d8:	dd 8a       	std	Y+21, r13	; 0x15
    26da:	cc 8a       	std	Y+20, r12	; 0x14
    26dc:	8f e5       	ldi	r24, 0x5F	; 95
    26de:	90 e0       	ldi	r25, 0x00	; 0
    26e0:	fc 01       	movw	r30, r24
    26e2:	80 81       	ld	r24, Z
    26e4:	80 78       	andi	r24, 0x80	; 128
    26e6:	8d 83       	std	Y+5, r24	; 0x05
    26e8:	f8 94       	cli
    26ea:	80 e3       	ldi	r24, 0x30	; 48
    26ec:	91 e0       	ldi	r25, 0x01	; 1
    26ee:	0e 94 fc 0f 	call	0x1ff8	; 0x1ff8 <dequeue>
    26f2:	9f 83       	std	Y+7, r25	; 0x07
    26f4:	8e 83       	std	Y+6, r24	; 0x06
    26f6:	8e 81       	ldd	r24, Y+6	; 0x06
    26f8:	9f 81       	ldd	r25, Y+7	; 0x07
    26fa:	28 89       	ldd	r18, Y+16	; 0x10
    26fc:	39 89       	ldd	r19, Y+17	; 0x11
    26fe:	fc 01       	movw	r30, r24
    2700:	33 87       	std	Z+11, r19	; 0x0b
    2702:	22 87       	std	Z+10, r18	; 0x0a
    2704:	8e 81       	ldd	r24, Y+6	; 0x06
    2706:	9f 81       	ldd	r25, Y+7	; 0x07
    2708:	2a 89       	ldd	r18, Y+18	; 0x12
    270a:	3b 89       	ldd	r19, Y+19	; 0x13
    270c:	fc 01       	movw	r30, r24
    270e:	35 87       	std	Z+13, r19	; 0x0d
    2710:	24 87       	std	Z+12, r18	; 0x0c
    2712:	8e 81       	ldd	r24, Y+6	; 0x06
    2714:	9f 81       	ldd	r25, Y+7	; 0x07
    2716:	2c 89       	ldd	r18, Y+20	; 0x14
    2718:	3d 89       	ldd	r19, Y+21	; 0x15
    271a:	fc 01       	movw	r30, r24
    271c:	37 87       	std	Z+15, r19	; 0x0f
    271e:	26 87       	std	Z+14, r18	; 0x0e
    2720:	8d 81       	ldd	r24, Y+5	; 0x05
    2722:	88 23       	and	r24, r24
    2724:	69 f0       	breq	.+26     	; 0x2740 <async+0xa0>
    2726:	80 91 36 01 	lds	r24, 0x0136	; 0x800136 <current>
    272a:	90 91 37 01 	lds	r25, 0x0137	; 0x800137 <current+0x1>
    272e:	fc 01       	movw	r30, r24
    2730:	82 81       	ldd	r24, Z+2	; 0x02
    2732:	93 81       	ldd	r25, Z+3	; 0x03
    2734:	fc 01       	movw	r30, r24
    2736:	82 81       	ldd	r24, Z+2	; 0x02
    2738:	93 81       	ldd	r25, Z+3	; 0x03
    273a:	a4 81       	ldd	r26, Z+4	; 0x04
    273c:	b5 81       	ldd	r27, Z+5	; 0x05
    273e:	08 c0       	rjmp	.+16     	; 0x2750 <async+0xb0>
    2740:	80 91 3c 01 	lds	r24, 0x013C	; 0x80013c <timestamp>
    2744:	90 91 3d 01 	lds	r25, 0x013D	; 0x80013d <timestamp+0x1>
    2748:	a0 91 3e 01 	lds	r26, 0x013E	; 0x80013e <timestamp+0x2>
    274c:	b0 91 3f 01 	lds	r27, 0x013F	; 0x80013f <timestamp+0x3>
    2750:	28 85       	ldd	r18, Y+8	; 0x08
    2752:	39 85       	ldd	r19, Y+9	; 0x09
    2754:	4a 85       	ldd	r20, Y+10	; 0x0a
    2756:	5b 85       	ldd	r21, Y+11	; 0x0b
    2758:	82 0f       	add	r24, r18
    275a:	93 1f       	adc	r25, r19
    275c:	a4 1f       	adc	r26, r20
    275e:	b5 1f       	adc	r27, r21
    2760:	2e 81       	ldd	r18, Y+6	; 0x06
    2762:	3f 81       	ldd	r19, Y+7	; 0x07
    2764:	f9 01       	movw	r30, r18
    2766:	82 83       	std	Z+2, r24	; 0x02
    2768:	93 83       	std	Z+3, r25	; 0x03
    276a:	a4 83       	std	Z+4, r26	; 0x04
    276c:	b5 83       	std	Z+5, r27	; 0x05
    276e:	8e 81       	ldd	r24, Y+6	; 0x06
    2770:	9f 81       	ldd	r25, Y+7	; 0x07
    2772:	fc 01       	movw	r30, r24
    2774:	22 81       	ldd	r18, Z+2	; 0x02
    2776:	33 81       	ldd	r19, Z+3	; 0x03
    2778:	44 81       	ldd	r20, Z+4	; 0x04
    277a:	55 81       	ldd	r21, Z+5	; 0x05
    277c:	8c 85       	ldd	r24, Y+12	; 0x0c
    277e:	9d 85       	ldd	r25, Y+13	; 0x0d
    2780:	ae 85       	ldd	r26, Y+14	; 0x0e
    2782:	bf 85       	ldd	r27, Y+15	; 0x0f
    2784:	18 16       	cp	r1, r24
    2786:	19 06       	cpc	r1, r25
    2788:	1a 06       	cpc	r1, r26
    278a:	1b 06       	cpc	r1, r27
    278c:	2c f4       	brge	.+10     	; 0x2798 <async+0xf8>
    278e:	8c 85       	ldd	r24, Y+12	; 0x0c
    2790:	9d 85       	ldd	r25, Y+13	; 0x0d
    2792:	ae 85       	ldd	r26, Y+14	; 0x0e
    2794:	bf 85       	ldd	r27, Y+15	; 0x0f
    2796:	04 c0       	rjmp	.+8      	; 0x27a0 <async+0x100>
    2798:	8f ef       	ldi	r24, 0xFF	; 255
    279a:	9f ef       	ldi	r25, 0xFF	; 255
    279c:	af ef       	ldi	r26, 0xFF	; 255
    279e:	bf e7       	ldi	r27, 0x7F	; 127
    27a0:	82 0f       	add	r24, r18
    27a2:	93 1f       	adc	r25, r19
    27a4:	a4 1f       	adc	r26, r20
    27a6:	b5 1f       	adc	r27, r21
    27a8:	2e 81       	ldd	r18, Y+6	; 0x06
    27aa:	3f 81       	ldd	r19, Y+7	; 0x07
    27ac:	f9 01       	movw	r30, r18
    27ae:	86 83       	std	Z+6, r24	; 0x06
    27b0:	97 83       	std	Z+7, r25	; 0x07
    27b2:	a0 87       	std	Z+8, r26	; 0x08
    27b4:	b1 87       	std	Z+9, r27	; 0x09
    27b6:	80 91 40 01 	lds	r24, 0x0140	; 0x800140 <overflows>
    27ba:	90 91 41 01 	lds	r25, 0x0141	; 0x800141 <overflows+0x1>
    27be:	09 2e       	mov	r0, r25
    27c0:	00 0c       	add	r0, r0
    27c2:	aa 0b       	sbc	r26, r26
    27c4:	bb 0b       	sbc	r27, r27
    27c6:	ac 01       	movw	r20, r24
    27c8:	33 27       	eor	r19, r19
    27ca:	22 27       	eor	r18, r18
    27cc:	84 e8       	ldi	r24, 0x84	; 132
    27ce:	90 e0       	ldi	r25, 0x00	; 0
    27d0:	fc 01       	movw	r30, r24
    27d2:	80 81       	ld	r24, Z
    27d4:	91 81       	ldd	r25, Z+1	; 0x01
    27d6:	cc 01       	movw	r24, r24
    27d8:	a0 e0       	ldi	r26, 0x00	; 0
    27da:	b0 e0       	ldi	r27, 0x00	; 0
    27dc:	82 2b       	or	r24, r18
    27de:	93 2b       	or	r25, r19
    27e0:	a4 2b       	or	r26, r20
    27e2:	b5 2b       	or	r27, r21
    27e4:	89 83       	std	Y+1, r24	; 0x01
    27e6:	9a 83       	std	Y+2, r25	; 0x02
    27e8:	ab 83       	std	Y+3, r26	; 0x03
    27ea:	bc 83       	std	Y+4, r27	; 0x04
    27ec:	86 e3       	ldi	r24, 0x36	; 54
    27ee:	90 e0       	ldi	r25, 0x00	; 0
    27f0:	fc 01       	movw	r30, r24
    27f2:	80 81       	ld	r24, Z
    27f4:	88 2f       	mov	r24, r24
    27f6:	90 e0       	ldi	r25, 0x00	; 0
    27f8:	81 70       	andi	r24, 0x01	; 1
    27fa:	99 27       	eor	r25, r25
    27fc:	89 2b       	or	r24, r25
    27fe:	e1 f0       	breq	.+56     	; 0x2838 <async+0x198>
    2800:	80 91 40 01 	lds	r24, 0x0140	; 0x800140 <overflows>
    2804:	90 91 41 01 	lds	r25, 0x0141	; 0x800141 <overflows+0x1>
    2808:	01 96       	adiw	r24, 0x01	; 1
    280a:	09 2e       	mov	r0, r25
    280c:	00 0c       	add	r0, r0
    280e:	aa 0b       	sbc	r26, r26
    2810:	bb 0b       	sbc	r27, r27
    2812:	ac 01       	movw	r20, r24
    2814:	33 27       	eor	r19, r19
    2816:	22 27       	eor	r18, r18
    2818:	84 e8       	ldi	r24, 0x84	; 132
    281a:	90 e0       	ldi	r25, 0x00	; 0
    281c:	fc 01       	movw	r30, r24
    281e:	80 81       	ld	r24, Z
    2820:	91 81       	ldd	r25, Z+1	; 0x01
    2822:	cc 01       	movw	r24, r24
    2824:	a0 e0       	ldi	r26, 0x00	; 0
    2826:	b0 e0       	ldi	r27, 0x00	; 0
    2828:	82 2b       	or	r24, r18
    282a:	93 2b       	or	r25, r19
    282c:	a4 2b       	or	r26, r20
    282e:	b5 2b       	or	r27, r21
    2830:	89 83       	std	Y+1, r24	; 0x01
    2832:	9a 83       	std	Y+2, r25	; 0x02
    2834:	ab 83       	std	Y+3, r26	; 0x03
    2836:	bc 83       	std	Y+4, r27	; 0x04
    2838:	8e 81       	ldd	r24, Y+6	; 0x06
    283a:	9f 81       	ldd	r25, Y+7	; 0x07
    283c:	fc 01       	movw	r30, r24
    283e:	22 81       	ldd	r18, Z+2	; 0x02
    2840:	33 81       	ldd	r19, Z+3	; 0x03
    2842:	44 81       	ldd	r20, Z+4	; 0x04
    2844:	55 81       	ldd	r21, Z+5	; 0x05
    2846:	89 81       	ldd	r24, Y+1	; 0x01
    2848:	9a 81       	ldd	r25, Y+2	; 0x02
    284a:	ab 81       	ldd	r26, Y+3	; 0x03
    284c:	bc 81       	ldd	r27, Y+4	; 0x04
    284e:	79 01       	movw	r14, r18
    2850:	8a 01       	movw	r16, r20
    2852:	e8 1a       	sub	r14, r24
    2854:	f9 0a       	sbc	r15, r25
    2856:	0a 0b       	sbc	r16, r26
    2858:	1b 0b       	sbc	r17, r27
    285a:	d8 01       	movw	r26, r16
    285c:	c7 01       	movw	r24, r14
    285e:	18 16       	cp	r1, r24
    2860:	19 06       	cpc	r1, r25
    2862:	1a 06       	cpc	r1, r26
    2864:	1b 06       	cpc	r1, r27
    2866:	0c f0       	brlt	.+2      	; 0x286a <async+0x1ca>
    2868:	61 c0       	rjmp	.+194    	; 0x292c <async+0x28c>
    286a:	8e 81       	ldd	r24, Y+6	; 0x06
    286c:	9f 81       	ldd	r25, Y+7	; 0x07
    286e:	6a e3       	ldi	r22, 0x3A	; 58
    2870:	71 e0       	ldi	r23, 0x01	; 1
    2872:	0e 94 9e 0f 	call	0x1f3c	; 0x1f3c <enqueueByBaseline>
    2876:	80 91 3a 01 	lds	r24, 0x013A	; 0x80013a <timerQ>
    287a:	90 91 3b 01 	lds	r25, 0x013B	; 0x80013b <timerQ+0x1>
    287e:	89 2b       	or	r24, r25
    2880:	09 f4       	brne	.+2      	; 0x2884 <async+0x1e4>
    2882:	4a c0       	rjmp	.+148    	; 0x2918 <async+0x278>
    2884:	80 91 3a 01 	lds	r24, 0x013A	; 0x80013a <timerQ>
    2888:	90 91 3b 01 	lds	r25, 0x013B	; 0x80013b <timerQ+0x1>
    288c:	fc 01       	movw	r30, r24
    288e:	82 81       	ldd	r24, Z+2	; 0x02
    2890:	93 81       	ldd	r25, Z+3	; 0x03
    2892:	a4 81       	ldd	r26, Z+4	; 0x04
    2894:	b5 81       	ldd	r27, Z+5	; 0x05
    2896:	cd 01       	movw	r24, r26
    2898:	bb 27       	eor	r27, r27
    289a:	97 fd       	sbrc	r25, 7
    289c:	b0 95       	com	r27
    289e:	ab 2f       	mov	r26, r27
    28a0:	9c 01       	movw	r18, r24
    28a2:	80 91 40 01 	lds	r24, 0x0140	; 0x800140 <overflows>
    28a6:	90 91 41 01 	lds	r25, 0x0141	; 0x800141 <overflows+0x1>
    28aa:	28 17       	cp	r18, r24
    28ac:	39 07       	cpc	r19, r25
    28ae:	a1 f5       	brne	.+104    	; 0x2918 <async+0x278>
    28b0:	28 e8       	ldi	r18, 0x88	; 136
    28b2:	30 e0       	ldi	r19, 0x00	; 0
    28b4:	80 91 3a 01 	lds	r24, 0x013A	; 0x80013a <timerQ>
    28b8:	90 91 3b 01 	lds	r25, 0x013B	; 0x80013b <timerQ+0x1>
    28bc:	fc 01       	movw	r30, r24
    28be:	82 81       	ldd	r24, Z+2	; 0x02
    28c0:	93 81       	ldd	r25, Z+3	; 0x03
    28c2:	a4 81       	ldd	r26, Z+4	; 0x04
    28c4:	b5 81       	ldd	r27, Z+5	; 0x05
    28c6:	ac 01       	movw	r20, r24
    28c8:	84 e8       	ldi	r24, 0x84	; 132
    28ca:	90 e0       	ldi	r25, 0x00	; 0
    28cc:	fc 01       	movw	r30, r24
    28ce:	80 81       	ld	r24, Z
    28d0:	91 81       	ldd	r25, Z+1	; 0x01
    28d2:	7a 01       	movw	r14, r20
    28d4:	e8 1a       	sub	r14, r24
    28d6:	f9 0a       	sbc	r15, r25
    28d8:	c7 01       	movw	r24, r14
    28da:	01 97       	sbiw	r24, 0x01	; 1
    28dc:	39 f4       	brne	.+14     	; 0x28ec <async+0x24c>
    28de:	84 e8       	ldi	r24, 0x84	; 132
    28e0:	90 e0       	ldi	r25, 0x00	; 0
    28e2:	fc 01       	movw	r30, r24
    28e4:	80 81       	ld	r24, Z
    28e6:	91 81       	ldd	r25, Z+1	; 0x01
    28e8:	01 96       	adiw	r24, 0x01	; 1
    28ea:	09 c0       	rjmp	.+18     	; 0x28fe <async+0x25e>
    28ec:	80 91 3a 01 	lds	r24, 0x013A	; 0x80013a <timerQ>
    28f0:	90 91 3b 01 	lds	r25, 0x013B	; 0x80013b <timerQ+0x1>
    28f4:	fc 01       	movw	r30, r24
    28f6:	82 81       	ldd	r24, Z+2	; 0x02
    28f8:	93 81       	ldd	r25, Z+3	; 0x03
    28fa:	a4 81       	ldd	r26, Z+4	; 0x04
    28fc:	b5 81       	ldd	r27, Z+5	; 0x05
    28fe:	f9 01       	movw	r30, r18
    2900:	91 83       	std	Z+1, r25	; 0x01
    2902:	80 83       	st	Z, r24
    2904:	8f e6       	ldi	r24, 0x6F	; 111
    2906:	90 e0       	ldi	r25, 0x00	; 0
    2908:	2f e6       	ldi	r18, 0x6F	; 111
    290a:	30 e0       	ldi	r19, 0x00	; 0
    290c:	f9 01       	movw	r30, r18
    290e:	20 81       	ld	r18, Z
    2910:	22 60       	ori	r18, 0x02	; 2
    2912:	fc 01       	movw	r30, r24
    2914:	20 83       	st	Z, r18
    2916:	46 c0       	rjmp	.+140    	; 0x29a4 <async+0x304>
    2918:	8f e6       	ldi	r24, 0x6F	; 111
    291a:	90 e0       	ldi	r25, 0x00	; 0
    291c:	2f e6       	ldi	r18, 0x6F	; 111
    291e:	30 e0       	ldi	r19, 0x00	; 0
    2920:	f9 01       	movw	r30, r18
    2922:	20 81       	ld	r18, Z
    2924:	2d 7f       	andi	r18, 0xFD	; 253
    2926:	fc 01       	movw	r30, r24
    2928:	20 83       	st	Z, r18
    292a:	3c c0       	rjmp	.+120    	; 0x29a4 <async+0x304>
    292c:	8e 81       	ldd	r24, Y+6	; 0x06
    292e:	9f 81       	ldd	r25, Y+7	; 0x07
    2930:	68 e3       	ldi	r22, 0x38	; 56
    2932:	71 e0       	ldi	r23, 0x01	; 1
    2934:	0e 94 40 0f 	call	0x1e80	; 0x1e80 <enqueueByDeadline>
    2938:	8d 81       	ldd	r24, Y+5	; 0x05
    293a:	88 23       	and	r24, r24
    293c:	99 f1       	breq	.+102    	; 0x29a4 <async+0x304>
    293e:	80 91 32 01 	lds	r24, 0x0132	; 0x800132 <threadPool>
    2942:	90 91 33 01 	lds	r25, 0x0133	; 0x800133 <threadPool+0x1>
    2946:	89 2b       	or	r24, r25
    2948:	69 f1       	breq	.+90     	; 0x29a4 <async+0x304>
    294a:	80 91 38 01 	lds	r24, 0x0138	; 0x800138 <__data_end>
    294e:	90 91 39 01 	lds	r25, 0x0139	; 0x800139 <__data_end+0x1>
    2952:	fc 01       	movw	r30, r24
    2954:	26 81       	ldd	r18, Z+6	; 0x06
    2956:	37 81       	ldd	r19, Z+7	; 0x07
    2958:	40 85       	ldd	r20, Z+8	; 0x08
    295a:	51 85       	ldd	r21, Z+9	; 0x09
    295c:	80 91 34 01 	lds	r24, 0x0134	; 0x800134 <activeStack>
    2960:	90 91 35 01 	lds	r25, 0x0135	; 0x800135 <activeStack+0x1>
    2964:	fc 01       	movw	r30, r24
    2966:	82 81       	ldd	r24, Z+2	; 0x02
    2968:	93 81       	ldd	r25, Z+3	; 0x03
    296a:	fc 01       	movw	r30, r24
    296c:	86 81       	ldd	r24, Z+6	; 0x06
    296e:	97 81       	ldd	r25, Z+7	; 0x07
    2970:	a0 85       	ldd	r26, Z+8	; 0x08
    2972:	b1 85       	ldd	r27, Z+9	; 0x09
    2974:	79 01       	movw	r14, r18
    2976:	8a 01       	movw	r16, r20
    2978:	e8 1a       	sub	r14, r24
    297a:	f9 0a       	sbc	r15, r25
    297c:	0a 0b       	sbc	r16, r26
    297e:	1b 0b       	sbc	r17, r27
    2980:	d8 01       	movw	r26, r16
    2982:	c7 01       	movw	r24, r14
    2984:	bb 23       	and	r27, r27
    2986:	74 f4       	brge	.+28     	; 0x29a4 <async+0x304>
    2988:	82 e3       	ldi	r24, 0x32	; 50
    298a:	91 e0       	ldi	r25, 0x01	; 1
    298c:	0e 94 7f 10 	call	0x20fe	; 0x20fe <pop>
    2990:	64 e3       	ldi	r22, 0x34	; 52
    2992:	71 e0       	ldi	r23, 0x01	; 1
    2994:	0e 94 5c 10 	call	0x20b8	; 0x20b8 <push>
    2998:	80 91 34 01 	lds	r24, 0x0134	; 0x800134 <activeStack>
    299c:	90 91 35 01 	lds	r25, 0x0135	; 0x800135 <activeStack+0x1>
    29a0:	0e 94 2e 12 	call	0x245c	; 0x245c <dispatch>
    29a4:	8d 81       	ldd	r24, Y+5	; 0x05
    29a6:	88 23       	and	r24, r24
    29a8:	09 f0       	breq	.+2      	; 0x29ac <async+0x30c>
    29aa:	78 94       	sei
    29ac:	8e 81       	ldd	r24, Y+6	; 0x06
    29ae:	9f 81       	ldd	r25, Y+7	; 0x07
    29b0:	65 96       	adiw	r28, 0x15	; 21
    29b2:	0f b6       	in	r0, 0x3f	; 63
    29b4:	f8 94       	cli
    29b6:	de bf       	out	0x3e, r29	; 62
    29b8:	0f be       	out	0x3f, r0	; 63
    29ba:	cd bf       	out	0x3d, r28	; 61
    29bc:	df 91       	pop	r29
    29be:	cf 91       	pop	r28
    29c0:	1f 91       	pop	r17
    29c2:	0f 91       	pop	r16
    29c4:	ff 90       	pop	r15
    29c6:	ef 90       	pop	r14
    29c8:	df 90       	pop	r13
    29ca:	cf 90       	pop	r12
    29cc:	08 95       	ret

000029ce <sync>:
    29ce:	cf 93       	push	r28
    29d0:	df 93       	push	r29
    29d2:	cd b7       	in	r28, 0x3d	; 61
    29d4:	de b7       	in	r29, 0x3e	; 62
    29d6:	2c 97       	sbiw	r28, 0x0c	; 12
    29d8:	0f b6       	in	r0, 0x3f	; 63
    29da:	f8 94       	cli
    29dc:	de bf       	out	0x3e, r29	; 62
    29de:	0f be       	out	0x3f, r0	; 63
    29e0:	cd bf       	out	0x3d, r28	; 61
    29e2:	98 87       	std	Y+8, r25	; 0x08
    29e4:	8f 83       	std	Y+7, r24	; 0x07
    29e6:	7a 87       	std	Y+10, r23	; 0x0a
    29e8:	69 87       	std	Y+9, r22	; 0x09
    29ea:	5c 87       	std	Y+12, r21	; 0x0c
    29ec:	4b 87       	std	Y+11, r20	; 0x0b
    29ee:	8f e5       	ldi	r24, 0x5F	; 95
    29f0:	90 e0       	ldi	r25, 0x00	; 0
    29f2:	fc 01       	movw	r30, r24
    29f4:	80 81       	ld	r24, Z
    29f6:	80 78       	andi	r24, 0x80	; 128
    29f8:	8b 83       	std	Y+3, r24	; 0x03
    29fa:	f8 94       	cli
    29fc:	8f 81       	ldd	r24, Y+7	; 0x07
    29fe:	98 85       	ldd	r25, Y+8	; 0x08
    2a00:	fc 01       	movw	r30, r24
    2a02:	80 81       	ld	r24, Z
    2a04:	91 81       	ldd	r25, Z+1	; 0x01
    2a06:	9a 83       	std	Y+2, r25	; 0x02
    2a08:	89 83       	std	Y+1, r24	; 0x01
    2a0a:	89 81       	ldd	r24, Y+1	; 0x01
    2a0c:	9a 81       	ldd	r25, Y+2	; 0x02
    2a0e:	89 2b       	or	r24, r25
    2a10:	09 f4       	brne	.+2      	; 0x2a14 <sync+0x46>
    2a12:	5a c0       	rjmp	.+180    	; 0x2ac8 <sync+0xfa>
    2a14:	0a c0       	rjmp	.+20     	; 0x2a2a <sync+0x5c>
    2a16:	89 81       	ldd	r24, Y+1	; 0x01
    2a18:	9a 81       	ldd	r25, Y+2	; 0x02
    2a1a:	fc 01       	movw	r30, r24
    2a1c:	84 81       	ldd	r24, Z+4	; 0x04
    2a1e:	95 81       	ldd	r25, Z+5	; 0x05
    2a20:	fc 01       	movw	r30, r24
    2a22:	80 81       	ld	r24, Z
    2a24:	91 81       	ldd	r25, Z+1	; 0x01
    2a26:	9a 83       	std	Y+2, r25	; 0x02
    2a28:	89 83       	std	Y+1, r24	; 0x01
    2a2a:	89 81       	ldd	r24, Y+1	; 0x01
    2a2c:	9a 81       	ldd	r25, Y+2	; 0x02
    2a2e:	fc 01       	movw	r30, r24
    2a30:	84 81       	ldd	r24, Z+4	; 0x04
    2a32:	95 81       	ldd	r25, Z+5	; 0x05
    2a34:	89 2b       	or	r24, r25
    2a36:	79 f7       	brne	.-34     	; 0x2a16 <sync+0x48>
    2a38:	80 91 36 01 	lds	r24, 0x0136	; 0x800136 <current>
    2a3c:	90 91 37 01 	lds	r25, 0x0137	; 0x800137 <current+0x1>
    2a40:	29 81       	ldd	r18, Y+1	; 0x01
    2a42:	3a 81       	ldd	r19, Y+2	; 0x02
    2a44:	28 17       	cp	r18, r24
    2a46:	39 07       	cpc	r19, r25
    2a48:	19 f0       	breq	.+6      	; 0x2a50 <sync+0x82>
    2a4a:	8b 81       	ldd	r24, Y+3	; 0x03
    2a4c:	88 23       	and	r24, r24
    2a4e:	39 f4       	brne	.+14     	; 0x2a5e <sync+0x90>
    2a50:	8b 81       	ldd	r24, Y+3	; 0x03
    2a52:	88 23       	and	r24, r24
    2a54:	09 f0       	breq	.+2      	; 0x2a58 <sync+0x8a>
    2a56:	78 94       	sei
    2a58:	8f ef       	ldi	r24, 0xFF	; 255
    2a5a:	9f ef       	ldi	r25, 0xFF	; 255
    2a5c:	83 c0       	rjmp	.+262    	; 0x2b64 <sync+0x196>
    2a5e:	8f 81       	ldd	r24, Y+7	; 0x07
    2a60:	98 85       	ldd	r25, Y+8	; 0x08
    2a62:	fc 01       	movw	r30, r24
    2a64:	82 81       	ldd	r24, Z+2	; 0x02
    2a66:	93 81       	ldd	r25, Z+3	; 0x03
    2a68:	89 2b       	or	r24, r25
    2a6a:	41 f0       	breq	.+16     	; 0x2a7c <sync+0xae>
    2a6c:	8f 81       	ldd	r24, Y+7	; 0x07
    2a6e:	98 85       	ldd	r25, Y+8	; 0x08
    2a70:	fc 01       	movw	r30, r24
    2a72:	82 81       	ldd	r24, Z+2	; 0x02
    2a74:	93 81       	ldd	r25, Z+3	; 0x03
    2a76:	fc 01       	movw	r30, r24
    2a78:	15 82       	std	Z+5, r1	; 0x05
    2a7a:	14 82       	std	Z+4, r1	; 0x04
    2a7c:	20 91 36 01 	lds	r18, 0x0136	; 0x800136 <current>
    2a80:	30 91 37 01 	lds	r19, 0x0137	; 0x800137 <current+0x1>
    2a84:	8f 81       	ldd	r24, Y+7	; 0x07
    2a86:	98 85       	ldd	r25, Y+8	; 0x08
    2a88:	fc 01       	movw	r30, r24
    2a8a:	33 83       	std	Z+3, r19	; 0x03
    2a8c:	22 83       	std	Z+2, r18	; 0x02
    2a8e:	80 91 36 01 	lds	r24, 0x0136	; 0x800136 <current>
    2a92:	90 91 37 01 	lds	r25, 0x0137	; 0x800137 <current+0x1>
    2a96:	2f 81       	ldd	r18, Y+7	; 0x07
    2a98:	38 85       	ldd	r19, Y+8	; 0x08
    2a9a:	fc 01       	movw	r30, r24
    2a9c:	35 83       	std	Z+5, r19	; 0x05
    2a9e:	24 83       	std	Z+4, r18	; 0x04
    2aa0:	89 81       	ldd	r24, Y+1	; 0x01
    2aa2:	9a 81       	ldd	r25, Y+2	; 0x02
    2aa4:	0e 94 2e 12 	call	0x245c	; 0x245c <dispatch>
    2aa8:	80 91 36 01 	lds	r24, 0x0136	; 0x800136 <current>
    2aac:	90 91 37 01 	lds	r25, 0x0137	; 0x800137 <current+0x1>
    2ab0:	fc 01       	movw	r30, r24
    2ab2:	82 81       	ldd	r24, Z+2	; 0x02
    2ab4:	93 81       	ldd	r25, Z+3	; 0x03
    2ab6:	89 2b       	or	r24, r25
    2ab8:	39 f4       	brne	.+14     	; 0x2ac8 <sync+0xfa>
    2aba:	8b 81       	ldd	r24, Y+3	; 0x03
    2abc:	88 23       	and	r24, r24
    2abe:	09 f0       	breq	.+2      	; 0x2ac2 <sync+0xf4>
    2ac0:	78 94       	sei
    2ac2:	80 e0       	ldi	r24, 0x00	; 0
    2ac4:	90 e0       	ldi	r25, 0x00	; 0
    2ac6:	4e c0       	rjmp	.+156    	; 0x2b64 <sync+0x196>
    2ac8:	20 91 36 01 	lds	r18, 0x0136	; 0x800136 <current>
    2acc:	30 91 37 01 	lds	r19, 0x0137	; 0x800137 <current+0x1>
    2ad0:	8f 81       	ldd	r24, Y+7	; 0x07
    2ad2:	98 85       	ldd	r25, Y+8	; 0x08
    2ad4:	fc 01       	movw	r30, r24
    2ad6:	31 83       	std	Z+1, r19	; 0x01
    2ad8:	20 83       	st	Z, r18
    2ada:	8b 81       	ldd	r24, Y+3	; 0x03
    2adc:	88 23       	and	r24, r24
    2ade:	41 f0       	breq	.+16     	; 0x2af0 <sync+0x122>
    2ae0:	8f 81       	ldd	r24, Y+7	; 0x07
    2ae2:	98 85       	ldd	r25, Y+8	; 0x08
    2ae4:	fc 01       	movw	r30, r24
    2ae6:	82 81       	ldd	r24, Z+2	; 0x02
    2ae8:	93 81       	ldd	r25, Z+3	; 0x03
    2aea:	01 97       	sbiw	r24, 0x01	; 1
    2aec:	09 f0       	breq	.+2      	; 0x2af0 <sync+0x122>
    2aee:	78 94       	sei
    2af0:	4b 85       	ldd	r20, Y+11	; 0x0b
    2af2:	5c 85       	ldd	r21, Y+12	; 0x0c
    2af4:	8f 81       	ldd	r24, Y+7	; 0x07
    2af6:	98 85       	ldd	r25, Y+8	; 0x08
    2af8:	29 85       	ldd	r18, Y+9	; 0x09
    2afa:	3a 85       	ldd	r19, Y+10	; 0x0a
    2afc:	ba 01       	movw	r22, r20
    2afe:	f9 01       	movw	r30, r18
    2b00:	09 95       	icall
    2b02:	9d 83       	std	Y+5, r25	; 0x05
    2b04:	8c 83       	std	Y+4, r24	; 0x04
    2b06:	8f e5       	ldi	r24, 0x5F	; 95
    2b08:	90 e0       	ldi	r25, 0x00	; 0
    2b0a:	fc 01       	movw	r30, r24
    2b0c:	80 81       	ld	r24, Z
    2b0e:	80 78       	andi	r24, 0x80	; 128
    2b10:	8e 83       	std	Y+6, r24	; 0x06
    2b12:	f8 94       	cli
    2b14:	8f 81       	ldd	r24, Y+7	; 0x07
    2b16:	98 85       	ldd	r25, Y+8	; 0x08
    2b18:	fc 01       	movw	r30, r24
    2b1a:	11 82       	std	Z+1, r1	; 0x01
    2b1c:	10 82       	st	Z, r1
    2b1e:	8f 81       	ldd	r24, Y+7	; 0x07
    2b20:	98 85       	ldd	r25, Y+8	; 0x08
    2b22:	fc 01       	movw	r30, r24
    2b24:	82 81       	ldd	r24, Z+2	; 0x02
    2b26:	93 81       	ldd	r25, Z+3	; 0x03
    2b28:	9a 83       	std	Y+2, r25	; 0x02
    2b2a:	89 83       	std	Y+1, r24	; 0x01
    2b2c:	89 81       	ldd	r24, Y+1	; 0x01
    2b2e:	9a 81       	ldd	r25, Y+2	; 0x02
    2b30:	89 2b       	or	r24, r25
    2b32:	91 f0       	breq	.+36     	; 0x2b58 <sync+0x18a>
    2b34:	89 81       	ldd	r24, Y+1	; 0x01
    2b36:	9a 81       	ldd	r25, Y+2	; 0x02
    2b38:	01 97       	sbiw	r24, 0x01	; 1
    2b3a:	71 f0       	breq	.+28     	; 0x2b58 <sync+0x18a>
    2b3c:	8f 81       	ldd	r24, Y+7	; 0x07
    2b3e:	98 85       	ldd	r25, Y+8	; 0x08
    2b40:	fc 01       	movw	r30, r24
    2b42:	13 82       	std	Z+3, r1	; 0x03
    2b44:	12 82       	std	Z+2, r1	; 0x02
    2b46:	89 81       	ldd	r24, Y+1	; 0x01
    2b48:	9a 81       	ldd	r25, Y+2	; 0x02
    2b4a:	fc 01       	movw	r30, r24
    2b4c:	15 82       	std	Z+5, r1	; 0x05
    2b4e:	14 82       	std	Z+4, r1	; 0x04
    2b50:	89 81       	ldd	r24, Y+1	; 0x01
    2b52:	9a 81       	ldd	r25, Y+2	; 0x02
    2b54:	0e 94 2e 12 	call	0x245c	; 0x245c <dispatch>
    2b58:	8b 81       	ldd	r24, Y+3	; 0x03
    2b5a:	88 23       	and	r24, r24
    2b5c:	09 f0       	breq	.+2      	; 0x2b60 <sync+0x192>
    2b5e:	78 94       	sei
    2b60:	8c 81       	ldd	r24, Y+4	; 0x04
    2b62:	9d 81       	ldd	r25, Y+5	; 0x05
    2b64:	2c 96       	adiw	r28, 0x0c	; 12
    2b66:	0f b6       	in	r0, 0x3f	; 63
    2b68:	f8 94       	cli
    2b6a:	de bf       	out	0x3e, r29	; 62
    2b6c:	0f be       	out	0x3f, r0	; 63
    2b6e:	cd bf       	out	0x3d, r28	; 61
    2b70:	df 91       	pop	r29
    2b72:	cf 91       	pop	r28
    2b74:	08 95       	ret

00002b76 <initialize>:
    2b76:	cf 93       	push	r28
    2b78:	df 93       	push	r29
    2b7a:	00 d0       	rcall	.+0      	; 0x2b7c <initialize+0x6>
    2b7c:	cd b7       	in	r28, 0x3d	; 61
    2b7e:	de b7       	in	r29, 0x3e	; 62
    2b80:	1a 82       	std	Y+2, r1	; 0x02
    2b82:	19 82       	std	Y+1, r1	; 0x01
    2b84:	1e c0       	rjmp	.+60     	; 0x2bc2 <initialize+0x4c>
    2b86:	89 81       	ldd	r24, Y+1	; 0x01
    2b88:	9a 81       	ldd	r25, Y+2	; 0x02
    2b8a:	01 96       	adiw	r24, 0x01	; 1
    2b8c:	82 95       	swap	r24
    2b8e:	92 95       	swap	r25
    2b90:	90 7f       	andi	r25, 0xF0	; 240
    2b92:	98 27       	eor	r25, r24
    2b94:	80 7f       	andi	r24, 0xF0	; 240
    2b96:	98 27       	eor	r25, r24
    2b98:	9c 01       	movw	r18, r24
    2b9a:	25 5e       	subi	r18, 0xE5	; 229
    2b9c:	3d 4f       	sbci	r19, 0xFD	; 253
    2b9e:	89 81       	ldd	r24, Y+1	; 0x01
    2ba0:	9a 81       	ldd	r25, Y+2	; 0x02
    2ba2:	82 95       	swap	r24
    2ba4:	92 95       	swap	r25
    2ba6:	90 7f       	andi	r25, 0xF0	; 240
    2ba8:	98 27       	eor	r25, r24
    2baa:	80 7f       	andi	r24, 0xF0	; 240
    2bac:	98 27       	eor	r25, r24
    2bae:	85 5e       	subi	r24, 0xE5	; 229
    2bb0:	9d 4f       	sbci	r25, 0xFD	; 253
    2bb2:	fc 01       	movw	r30, r24
    2bb4:	31 83       	std	Z+1, r19	; 0x01
    2bb6:	20 83       	st	Z, r18
    2bb8:	89 81       	ldd	r24, Y+1	; 0x01
    2bba:	9a 81       	ldd	r25, Y+2	; 0x02
    2bbc:	01 96       	adiw	r24, 0x01	; 1
    2bbe:	9a 83       	std	Y+2, r25	; 0x02
    2bc0:	89 83       	std	Y+1, r24	; 0x01
    2bc2:	89 81       	ldd	r24, Y+1	; 0x01
    2bc4:	9a 81       	ldd	r25, Y+2	; 0x02
    2bc6:	0e 97       	sbiw	r24, 0x0e	; 14
    2bc8:	f4 f2       	brlt	.-68     	; 0x2b86 <initialize+0x10>
    2bca:	10 92 fc 02 	sts	0x02FC, r1	; 0x8002fc <messages+0xe1>
    2bce:	10 92 fb 02 	sts	0x02FB, r1	; 0x8002fb <messages+0xe0>
    2bd2:	1a 82       	std	Y+2, r1	; 0x02
    2bd4:	19 82       	std	Y+1, r1	; 0x01
    2bd6:	20 c0       	rjmp	.+64     	; 0x2c18 <initialize+0xa2>
    2bd8:	89 81       	ldd	r24, Y+1	; 0x01
    2bda:	9a 81       	ldd	r25, Y+2	; 0x02
    2bdc:	9c 01       	movw	r18, r24
    2bde:	2f 5f       	subi	r18, 0xFF	; 255
    2be0:	3f 4f       	sbci	r19, 0xFF	; 255
    2be2:	4d e1       	ldi	r20, 0x1D	; 29
    2be4:	42 9f       	mul	r20, r18
    2be6:	c0 01       	movw	r24, r0
    2be8:	43 9f       	mul	r20, r19
    2bea:	90 0d       	add	r25, r0
    2bec:	11 24       	eor	r1, r1
    2bee:	9c 01       	movw	r18, r24
    2bf0:	2a 59       	subi	r18, 0x9A	; 154
    2bf2:	3e 4f       	sbci	r19, 0xFE	; 254
    2bf4:	49 81       	ldd	r20, Y+1	; 0x01
    2bf6:	5a 81       	ldd	r21, Y+2	; 0x02
    2bf8:	6d e1       	ldi	r22, 0x1D	; 29
    2bfa:	64 9f       	mul	r22, r20
    2bfc:	c0 01       	movw	r24, r0
    2bfe:	65 9f       	mul	r22, r21
    2c00:	90 0d       	add	r25, r0
    2c02:	11 24       	eor	r1, r1
    2c04:	8a 59       	subi	r24, 0x9A	; 154
    2c06:	9e 4f       	sbci	r25, 0xFE	; 254
    2c08:	fc 01       	movw	r30, r24
    2c0a:	31 83       	std	Z+1, r19	; 0x01
    2c0c:	20 83       	st	Z, r18
    2c0e:	89 81       	ldd	r24, Y+1	; 0x01
    2c10:	9a 81       	ldd	r25, Y+2	; 0x02
    2c12:	01 96       	adiw	r24, 0x01	; 1
    2c14:	9a 83       	std	Y+2, r25	; 0x02
    2c16:	89 83       	std	Y+1, r24	; 0x01
    2c18:	89 81       	ldd	r24, Y+1	; 0x01
    2c1a:	9a 81       	ldd	r25, Y+2	; 0x02
    2c1c:	03 97       	sbiw	r24, 0x03	; 3
    2c1e:	e4 f2       	brlt	.-72     	; 0x2bd8 <initialize+0x62>
    2c20:	10 92 be 01 	sts	0x01BE, r1	; 0x8001be <threads+0x58>
    2c24:	10 92 bd 01 	sts	0x01BD, r1	; 0x8001bd <threads+0x57>
    2c28:	1a 82       	std	Y+2, r1	; 0x02
    2c2a:	19 82       	std	Y+1, r1	; 0x01
    2c2c:	66 c0       	rjmp	.+204    	; 0x2cfa <initialize+0x184>
    2c2e:	29 81       	ldd	r18, Y+1	; 0x01
    2c30:	3a 81       	ldd	r19, Y+2	; 0x02
    2c32:	4d e1       	ldi	r20, 0x1D	; 29
    2c34:	42 9f       	mul	r20, r18
    2c36:	c0 01       	movw	r24, r0
    2c38:	43 9f       	mul	r20, r19
    2c3a:	90 0d       	add	r25, r0
    2c3c:	11 24       	eor	r1, r1
    2c3e:	06 96       	adiw	r24, 0x06	; 6
    2c40:	8a 59       	subi	r24, 0x9A	; 154
    2c42:	9e 4f       	sbci	r25, 0xFE	; 254
    2c44:	0e 94 7c 17 	call	0x2ef8	; 0x2ef8 <setjmp>
    2c48:	29 81       	ldd	r18, Y+1	; 0x01
    2c4a:	3a 81       	ldd	r19, Y+2	; 0x02
    2c4c:	4d e1       	ldi	r20, 0x1D	; 29
    2c4e:	42 9f       	mul	r20, r18
    2c50:	c0 01       	movw	r24, r0
    2c52:	43 9f       	mul	r20, r19
    2c54:	90 0d       	add	r25, r0
    2c56:	11 24       	eor	r1, r1
    2c58:	06 96       	adiw	r24, 0x06	; 6
    2c5a:	8a 59       	subi	r24, 0x9A	; 154
    2c5c:	9e 4f       	sbci	r25, 0xFE	; 254
    2c5e:	40 96       	adiw	r24, 0x10	; 16
    2c60:	49 81       	ldd	r20, Y+1	; 0x01
    2c62:	5a 81       	ldd	r21, Y+2	; 0x02
    2c64:	60 e6       	ldi	r22, 0x60	; 96
    2c66:	64 9f       	mul	r22, r20
    2c68:	90 01       	movw	r18, r0
    2c6a:	65 9f       	mul	r22, r21
    2c6c:	30 0d       	add	r19, r0
    2c6e:	11 24       	eor	r1, r1
    2c70:	25 5f       	subi	r18, 0xF5	; 245
    2c72:	3c 4f       	sbci	r19, 0xFC	; 252
    2c74:	24 5a       	subi	r18, 0xA4	; 164
    2c76:	3f 4f       	sbci	r19, 0xFF	; 255
    2c78:	fc 01       	movw	r30, r24
    2c7a:	31 83       	std	Z+1, r19	; 0x01
    2c7c:	20 83       	st	Z, r18
    2c7e:	29 81       	ldd	r18, Y+1	; 0x01
    2c80:	3a 81       	ldd	r19, Y+2	; 0x02
    2c82:	4d e1       	ldi	r20, 0x1D	; 29
    2c84:	42 9f       	mul	r20, r18
    2c86:	c0 01       	movw	r24, r0
    2c88:	43 9f       	mul	r20, r19
    2c8a:	90 0d       	add	r25, r0
    2c8c:	11 24       	eor	r1, r1
    2c8e:	06 96       	adiw	r24, 0x06	; 6
    2c90:	8a 59       	subi	r24, 0x9A	; 154
    2c92:	9e 4f       	sbci	r25, 0xFE	; 254
    2c94:	42 96       	adiw	r24, 0x12	; 18
    2c96:	49 81       	ldd	r20, Y+1	; 0x01
    2c98:	5a 81       	ldd	r21, Y+2	; 0x02
    2c9a:	60 e6       	ldi	r22, 0x60	; 96
    2c9c:	64 9f       	mul	r22, r20
    2c9e:	90 01       	movw	r18, r0
    2ca0:	65 9f       	mul	r22, r21
    2ca2:	30 0d       	add	r19, r0
    2ca4:	11 24       	eor	r1, r1
    2ca6:	25 5f       	subi	r18, 0xF5	; 245
    2ca8:	3c 4f       	sbci	r19, 0xFC	; 252
    2caa:	24 5a       	subi	r18, 0xA4	; 164
    2cac:	3f 4f       	sbci	r19, 0xFF	; 255
    2cae:	fc 01       	movw	r30, r24
    2cb0:	31 83       	std	Z+1, r19	; 0x01
    2cb2:	20 83       	st	Z, r18
    2cb4:	29 81       	ldd	r18, Y+1	; 0x01
    2cb6:	3a 81       	ldd	r19, Y+2	; 0x02
    2cb8:	4d e1       	ldi	r20, 0x1D	; 29
    2cba:	42 9f       	mul	r20, r18
    2cbc:	c0 01       	movw	r24, r0
    2cbe:	43 9f       	mul	r20, r19
    2cc0:	90 0d       	add	r25, r0
    2cc2:	11 24       	eor	r1, r1
    2cc4:	06 96       	adiw	r24, 0x06	; 6
    2cc6:	8a 59       	subi	r24, 0x9A	; 154
    2cc8:	9e 4f       	sbci	r25, 0xFE	; 254
    2cca:	45 96       	adiw	r24, 0x15	; 21
    2ccc:	21 e5       	ldi	r18, 0x51	; 81
    2cce:	32 e1       	ldi	r19, 0x12	; 18
    2cd0:	fc 01       	movw	r30, r24
    2cd2:	31 83       	std	Z+1, r19	; 0x01
    2cd4:	20 83       	st	Z, r18
    2cd6:	29 81       	ldd	r18, Y+1	; 0x01
    2cd8:	3a 81       	ldd	r19, Y+2	; 0x02
    2cda:	4d e1       	ldi	r20, 0x1D	; 29
    2cdc:	42 9f       	mul	r20, r18
    2cde:	c0 01       	movw	r24, r0
    2ce0:	43 9f       	mul	r20, r19
    2ce2:	90 0d       	add	r25, r0
    2ce4:	11 24       	eor	r1, r1
    2ce6:	86 59       	subi	r24, 0x96	; 150
    2ce8:	9e 4f       	sbci	r25, 0xFE	; 254
    2cea:	fc 01       	movw	r30, r24
    2cec:	11 82       	std	Z+1, r1	; 0x01
    2cee:	10 82       	st	Z, r1
    2cf0:	89 81       	ldd	r24, Y+1	; 0x01
    2cf2:	9a 81       	ldd	r25, Y+2	; 0x02
    2cf4:	01 96       	adiw	r24, 0x01	; 1
    2cf6:	9a 83       	std	Y+2, r25	; 0x02
    2cf8:	89 83       	std	Y+1, r24	; 0x01
    2cfa:	89 81       	ldd	r24, Y+1	; 0x01
    2cfc:	9a 81       	ldd	r25, Y+2	; 0x02
    2cfe:	04 97       	sbiw	r24, 0x04	; 4
    2d00:	0c f4       	brge	.+2      	; 0x2d04 <initialize+0x18e>
    2d02:	95 cf       	rjmp	.-214    	; 0x2c2e <initialize+0xb8>
    2d04:	10 92 ff 01 	sts	0x01FF, r1	; 0x8001ff <thread0+0x1>
    2d08:	10 92 fe 01 	sts	0x01FE, r1	; 0x8001fe <thread0>
    2d0c:	10 92 03 02 	sts	0x0203, r1	; 0x800203 <thread0+0x5>
    2d10:	10 92 02 02 	sts	0x0202, r1	; 0x800202 <thread0+0x4>
    2d14:	10 92 01 02 	sts	0x0201, r1	; 0x800201 <thread0+0x3>
    2d18:	10 92 00 02 	sts	0x0200, r1	; 0x800200 <thread0+0x2>
    2d1c:	81 e6       	ldi	r24, 0x61	; 97
    2d1e:	90 e0       	ldi	r25, 0x00	; 0
    2d20:	20 e8       	ldi	r18, 0x80	; 128
    2d22:	fc 01       	movw	r30, r24
    2d24:	20 83       	st	Z, r18
    2d26:	81 e6       	ldi	r24, 0x61	; 97
    2d28:	90 e0       	ldi	r25, 0x00	; 0
    2d2a:	fc 01       	movw	r30, r24
    2d2c:	10 82       	st	Z, r1
    2d2e:	84 e8       	ldi	r24, 0x84	; 132
    2d30:	90 e0       	ldi	r25, 0x00	; 0
    2d32:	fc 01       	movw	r30, r24
    2d34:	11 82       	std	Z+1, r1	; 0x01
    2d36:	10 82       	st	Z, r1
    2d38:	81 e8       	ldi	r24, 0x81	; 129
    2d3a:	90 e0       	ldi	r25, 0x00	; 0
    2d3c:	24 e0       	ldi	r18, 0x04	; 4
    2d3e:	fc 01       	movw	r30, r24
    2d40:	20 83       	st	Z, r18
    2d42:	8f e6       	ldi	r24, 0x6F	; 111
    2d44:	90 e0       	ldi	r25, 0x00	; 0
    2d46:	21 e0       	ldi	r18, 0x01	; 1
    2d48:	fc 01       	movw	r30, r24
    2d4a:	20 83       	st	Z, r18
    2d4c:	00 00       	nop
    2d4e:	0f 90       	pop	r0
    2d50:	0f 90       	pop	r0
    2d52:	df 91       	pop	r29
    2d54:	cf 91       	pop	r28
    2d56:	08 95       	ret

00002d58 <install>:
    2d58:	cf 93       	push	r28
    2d5a:	df 93       	push	r29
    2d5c:	00 d0       	rcall	.+0      	; 0x2d5e <install+0x6>
    2d5e:	00 d0       	rcall	.+0      	; 0x2d60 <install+0x8>
    2d60:	00 d0       	rcall	.+0      	; 0x2d62 <install+0xa>
    2d62:	cd b7       	in	r28, 0x3d	; 61
    2d64:	de b7       	in	r29, 0x3e	; 62
    2d66:	9b 83       	std	Y+3, r25	; 0x03
    2d68:	8a 83       	std	Y+2, r24	; 0x02
    2d6a:	7d 83       	std	Y+5, r23	; 0x05
    2d6c:	6c 83       	std	Y+4, r22	; 0x04
    2d6e:	4e 83       	std	Y+6, r20	; 0x06
    2d70:	8e 81       	ldd	r24, Y+6	; 0x06
    2d72:	82 31       	cpi	r24, 0x12	; 18
    2d74:	50 f5       	brcc	.+84     	; 0x2dca <install+0x72>
    2d76:	8f e5       	ldi	r24, 0x5F	; 95
    2d78:	90 e0       	ldi	r25, 0x00	; 0
    2d7a:	fc 01       	movw	r30, r24
    2d7c:	80 81       	ld	r24, Z
    2d7e:	80 78       	andi	r24, 0x80	; 128
    2d80:	89 83       	std	Y+1, r24	; 0x01
    2d82:	f8 94       	cli
    2d84:	8e 81       	ldd	r24, Y+6	; 0x06
    2d86:	88 2f       	mov	r24, r24
    2d88:	90 e0       	ldi	r25, 0x00	; 0
    2d8a:	88 0f       	add	r24, r24
    2d8c:	99 1f       	adc	r25, r25
    2d8e:	8e 5b       	subi	r24, 0xBE	; 190
    2d90:	9e 4f       	sbci	r25, 0xFE	; 254
    2d92:	2a 81       	ldd	r18, Y+2	; 0x02
    2d94:	3b 81       	ldd	r19, Y+3	; 0x03
    2d96:	fc 01       	movw	r30, r24
    2d98:	31 83       	std	Z+1, r19	; 0x01
    2d9a:	20 83       	st	Z, r18
    2d9c:	8e 81       	ldd	r24, Y+6	; 0x06
    2d9e:	88 2f       	mov	r24, r24
    2da0:	90 e0       	ldi	r25, 0x00	; 0
    2da2:	88 0f       	add	r24, r24
    2da4:	99 1f       	adc	r25, r25
    2da6:	86 52       	subi	r24, 0x26	; 38
    2da8:	9e 4f       	sbci	r25, 0xFE	; 254
    2daa:	2c 81       	ldd	r18, Y+4	; 0x04
    2dac:	3d 81       	ldd	r19, Y+5	; 0x05
    2dae:	fc 01       	movw	r30, r24
    2db0:	31 83       	std	Z+1, r19	; 0x01
    2db2:	20 83       	st	Z, r18
    2db4:	8a 81       	ldd	r24, Y+2	; 0x02
    2db6:	9b 81       	ldd	r25, Y+3	; 0x03
    2db8:	21 e0       	ldi	r18, 0x01	; 1
    2dba:	30 e0       	ldi	r19, 0x00	; 0
    2dbc:	fc 01       	movw	r30, r24
    2dbe:	33 83       	std	Z+3, r19	; 0x03
    2dc0:	22 83       	std	Z+2, r18	; 0x02
    2dc2:	89 81       	ldd	r24, Y+1	; 0x01
    2dc4:	88 23       	and	r24, r24
    2dc6:	09 f0       	breq	.+2      	; 0x2dca <install+0x72>
    2dc8:	78 94       	sei
    2dca:	00 00       	nop
    2dcc:	26 96       	adiw	r28, 0x06	; 6
    2dce:	0f b6       	in	r0, 0x3f	; 63
    2dd0:	f8 94       	cli
    2dd2:	de bf       	out	0x3e, r29	; 62
    2dd4:	0f be       	out	0x3f, r0	; 63
    2dd6:	cd bf       	out	0x3d, r28	; 61
    2dd8:	df 91       	pop	r29
    2dda:	cf 91       	pop	r28
    2ddc:	08 95       	ret

00002dde <tinytimber>:
    2dde:	cf 92       	push	r12
    2de0:	df 92       	push	r13
    2de2:	ef 92       	push	r14
    2de4:	ff 92       	push	r15
    2de6:	0f 93       	push	r16
    2de8:	1f 93       	push	r17
    2dea:	cf 93       	push	r28
    2dec:	df 93       	push	r29
    2dee:	cd b7       	in	r28, 0x3d	; 61
    2df0:	de b7       	in	r29, 0x3e	; 62
    2df2:	27 97       	sbiw	r28, 0x07	; 7
    2df4:	0f b6       	in	r0, 0x3f	; 63
    2df6:	f8 94       	cli
    2df8:	de bf       	out	0x3e, r29	; 62
    2dfa:	0f be       	out	0x3f, r0	; 63
    2dfc:	cd bf       	out	0x3d, r28	; 61
    2dfe:	9b 83       	std	Y+3, r25	; 0x03
    2e00:	8a 83       	std	Y+2, r24	; 0x02
    2e02:	7d 83       	std	Y+5, r23	; 0x05
    2e04:	6c 83       	std	Y+4, r22	; 0x04
    2e06:	5f 83       	std	Y+7, r21	; 0x07
    2e08:	4e 83       	std	Y+6, r20	; 0x06
    2e0a:	8f e5       	ldi	r24, 0x5F	; 95
    2e0c:	90 e0       	ldi	r25, 0x00	; 0
    2e0e:	fc 01       	movw	r30, r24
    2e10:	80 81       	ld	r24, Z
    2e12:	80 78       	andi	r24, 0x80	; 128
    2e14:	89 83       	std	Y+1, r24	; 0x01
    2e16:	f8 94       	cli
    2e18:	0e 94 bb 15 	call	0x2b76	; 0x2b76 <initialize>
    2e1c:	78 94       	sei
    2e1e:	8c 81       	ldd	r24, Y+4	; 0x04
    2e20:	9d 81       	ldd	r25, Y+5	; 0x05
    2e22:	89 2b       	or	r24, r25
    2e24:	89 f0       	breq	.+34     	; 0x2e48 <tinytimber+0x6a>
    2e26:	4e 81       	ldd	r20, Y+6	; 0x06
    2e28:	5f 81       	ldd	r21, Y+7	; 0x07
    2e2a:	2c 81       	ldd	r18, Y+4	; 0x04
    2e2c:	3d 81       	ldd	r19, Y+5	; 0x05
    2e2e:	8a 81       	ldd	r24, Y+2	; 0x02
    2e30:	9b 81       	ldd	r25, Y+3	; 0x03
    2e32:	6a 01       	movw	r12, r20
    2e34:	79 01       	movw	r14, r18
    2e36:	8c 01       	movw	r16, r24
    2e38:	20 e0       	ldi	r18, 0x00	; 0
    2e3a:	30 e0       	ldi	r19, 0x00	; 0
    2e3c:	a9 01       	movw	r20, r18
    2e3e:	60 e0       	ldi	r22, 0x00	; 0
    2e40:	70 e0       	ldi	r23, 0x00	; 0
    2e42:	cb 01       	movw	r24, r22
    2e44:	0e 94 50 13 	call	0x26a0	; 0x26a0 <async>
    2e48:	8f e5       	ldi	r24, 0x5F	; 95
    2e4a:	90 e0       	ldi	r25, 0x00	; 0
    2e4c:	fc 01       	movw	r30, r24
    2e4e:	80 81       	ld	r24, Z
    2e50:	80 78       	andi	r24, 0x80	; 128
    2e52:	89 83       	std	Y+1, r24	; 0x01
    2e54:	f8 94       	cli
    2e56:	0e 94 ee 12 	call	0x25dc	; 0x25dc <idle>
    2e5a:	80 e0       	ldi	r24, 0x00	; 0
    2e5c:	90 e0       	ldi	r25, 0x00	; 0
    2e5e:	27 96       	adiw	r28, 0x07	; 7
    2e60:	0f b6       	in	r0, 0x3f	; 63
    2e62:	f8 94       	cli
    2e64:	de bf       	out	0x3e, r29	; 62
    2e66:	0f be       	out	0x3f, r0	; 63
    2e68:	cd bf       	out	0x3d, r28	; 61
    2e6a:	df 91       	pop	r29
    2e6c:	cf 91       	pop	r28
    2e6e:	1f 91       	pop	r17
    2e70:	0f 91       	pop	r16
    2e72:	ff 90       	pop	r15
    2e74:	ef 90       	pop	r14
    2e76:	df 90       	pop	r13
    2e78:	cf 90       	pop	r12
    2e7a:	08 95       	ret

00002e7c <__divmodhi4>:
    2e7c:	97 fb       	bst	r25, 7
    2e7e:	07 2e       	mov	r0, r23
    2e80:	16 f4       	brtc	.+4      	; 0x2e86 <__divmodhi4+0xa>
    2e82:	00 94       	com	r0
    2e84:	07 d0       	rcall	.+14     	; 0x2e94 <__divmodhi4_neg1>
    2e86:	77 fd       	sbrc	r23, 7
    2e88:	09 d0       	rcall	.+18     	; 0x2e9c <__divmodhi4_neg2>
    2e8a:	0e 94 59 17 	call	0x2eb2	; 0x2eb2 <__udivmodhi4>
    2e8e:	07 fc       	sbrc	r0, 7
    2e90:	05 d0       	rcall	.+10     	; 0x2e9c <__divmodhi4_neg2>
    2e92:	3e f4       	brtc	.+14     	; 0x2ea2 <__divmodhi4_exit>

00002e94 <__divmodhi4_neg1>:
    2e94:	90 95       	com	r25
    2e96:	81 95       	neg	r24
    2e98:	9f 4f       	sbci	r25, 0xFF	; 255
    2e9a:	08 95       	ret

00002e9c <__divmodhi4_neg2>:
    2e9c:	70 95       	com	r23
    2e9e:	61 95       	neg	r22
    2ea0:	7f 4f       	sbci	r23, 0xFF	; 255

00002ea2 <__divmodhi4_exit>:
    2ea2:	08 95       	ret

00002ea4 <__usmulhisi3>:
    2ea4:	0e 94 6d 17 	call	0x2eda	; 0x2eda <__umulhisi3>

00002ea8 <__usmulhisi3_tail>:
    2ea8:	b7 ff       	sbrs	r27, 7
    2eaa:	08 95       	ret
    2eac:	82 1b       	sub	r24, r18
    2eae:	93 0b       	sbc	r25, r19
    2eb0:	08 95       	ret

00002eb2 <__udivmodhi4>:
    2eb2:	aa 1b       	sub	r26, r26
    2eb4:	bb 1b       	sub	r27, r27
    2eb6:	51 e1       	ldi	r21, 0x11	; 17
    2eb8:	07 c0       	rjmp	.+14     	; 0x2ec8 <__udivmodhi4_ep>

00002eba <__udivmodhi4_loop>:
    2eba:	aa 1f       	adc	r26, r26
    2ebc:	bb 1f       	adc	r27, r27
    2ebe:	a6 17       	cp	r26, r22
    2ec0:	b7 07       	cpc	r27, r23
    2ec2:	10 f0       	brcs	.+4      	; 0x2ec8 <__udivmodhi4_ep>
    2ec4:	a6 1b       	sub	r26, r22
    2ec6:	b7 0b       	sbc	r27, r23

00002ec8 <__udivmodhi4_ep>:
    2ec8:	88 1f       	adc	r24, r24
    2eca:	99 1f       	adc	r25, r25
    2ecc:	5a 95       	dec	r21
    2ece:	a9 f7       	brne	.-22     	; 0x2eba <__udivmodhi4_loop>
    2ed0:	80 95       	com	r24
    2ed2:	90 95       	com	r25
    2ed4:	bc 01       	movw	r22, r24
    2ed6:	cd 01       	movw	r24, r26
    2ed8:	08 95       	ret

00002eda <__umulhisi3>:
    2eda:	a2 9f       	mul	r26, r18
    2edc:	b0 01       	movw	r22, r0
    2ede:	b3 9f       	mul	r27, r19
    2ee0:	c0 01       	movw	r24, r0
    2ee2:	a3 9f       	mul	r26, r19
    2ee4:	70 0d       	add	r23, r0
    2ee6:	81 1d       	adc	r24, r1
    2ee8:	11 24       	eor	r1, r1
    2eea:	91 1d       	adc	r25, r1
    2eec:	b2 9f       	mul	r27, r18
    2eee:	70 0d       	add	r23, r0
    2ef0:	81 1d       	adc	r24, r1
    2ef2:	11 24       	eor	r1, r1
    2ef4:	91 1d       	adc	r25, r1
    2ef6:	08 95       	ret

00002ef8 <setjmp>:
    2ef8:	dc 01       	movw	r26, r24
    2efa:	2d 92       	st	X+, r2
    2efc:	3d 92       	st	X+, r3
    2efe:	4d 92       	st	X+, r4
    2f00:	5d 92       	st	X+, r5
    2f02:	6d 92       	st	X+, r6
    2f04:	7d 92       	st	X+, r7
    2f06:	8d 92       	st	X+, r8
    2f08:	9d 92       	st	X+, r9
    2f0a:	ad 92       	st	X+, r10
    2f0c:	bd 92       	st	X+, r11
    2f0e:	cd 92       	st	X+, r12
    2f10:	dd 92       	st	X+, r13
    2f12:	ed 92       	st	X+, r14
    2f14:	fd 92       	st	X+, r15
    2f16:	0d 93       	st	X+, r16
    2f18:	1d 93       	st	X+, r17
    2f1a:	cd 93       	st	X+, r28
    2f1c:	dd 93       	st	X+, r29
    2f1e:	ff 91       	pop	r31
    2f20:	ef 91       	pop	r30
    2f22:	8d b7       	in	r24, 0x3d	; 61
    2f24:	8d 93       	st	X+, r24
    2f26:	8e b7       	in	r24, 0x3e	; 62
    2f28:	8d 93       	st	X+, r24
    2f2a:	8f b7       	in	r24, 0x3f	; 63
    2f2c:	8d 93       	st	X+, r24
    2f2e:	ed 93       	st	X+, r30
    2f30:	fd 93       	st	X+, r31
    2f32:	88 27       	eor	r24, r24
    2f34:	99 27       	eor	r25, r25
    2f36:	09 94       	ijmp

00002f38 <longjmp>:
    2f38:	dc 01       	movw	r26, r24
    2f3a:	cb 01       	movw	r24, r22
    2f3c:	81 30       	cpi	r24, 0x01	; 1
    2f3e:	91 05       	cpc	r25, r1
    2f40:	81 1d       	adc	r24, r1
    2f42:	2d 90       	ld	r2, X+
    2f44:	3d 90       	ld	r3, X+
    2f46:	4d 90       	ld	r4, X+
    2f48:	5d 90       	ld	r5, X+
    2f4a:	6d 90       	ld	r6, X+
    2f4c:	7d 90       	ld	r7, X+
    2f4e:	8d 90       	ld	r8, X+
    2f50:	9d 90       	ld	r9, X+
    2f52:	ad 90       	ld	r10, X+
    2f54:	bd 90       	ld	r11, X+
    2f56:	cd 90       	ld	r12, X+
    2f58:	dd 90       	ld	r13, X+
    2f5a:	ed 90       	ld	r14, X+
    2f5c:	fd 90       	ld	r15, X+
    2f5e:	0d 91       	ld	r16, X+
    2f60:	1d 91       	ld	r17, X+
    2f62:	cd 91       	ld	r28, X+
    2f64:	dd 91       	ld	r29, X+
    2f66:	ed 91       	ld	r30, X+
    2f68:	fd 91       	ld	r31, X+
    2f6a:	0d 90       	ld	r0, X+
    2f6c:	f8 94       	cli
    2f6e:	fe bf       	out	0x3e, r31	; 62
    2f70:	0f be       	out	0x3f, r0	; 63
    2f72:	ed bf       	out	0x3d, r30	; 61
    2f74:	ed 91       	ld	r30, X+
    2f76:	fd 91       	ld	r31, X+
    2f78:	09 94       	ijmp

00002f7a <_exit>:
    2f7a:	f8 94       	cli

00002f7c <__stop_program>:
    2f7c:	ff cf       	rjmp	.-2      	; 0x2f7c <__stop_program>
