
Lab4-Proj.elf:     file format elf32-avr

Sections:
Idx Name          Size      VMA       LMA       File off  Algn
  0 .data         00000038  00800100  000022e4  00002378  2**0
                  CONTENTS, ALLOC, LOAD, DATA
  1 .text         000022e4  00000000  00000000  00000094  2**1
                  CONTENTS, ALLOC, LOAD, READONLY, CODE
  2 .bss          00000353  00800138  00800138  000023b0  2**0
                  ALLOC
  3 .comment      00000030  00000000  00000000  000023b0  2**0
                  CONTENTS, READONLY
  4 .note.gnu.avr.deviceinfo 00000040  00000000  00000000  000023e0  2**2
                  CONTENTS, READONLY
  5 .debug_info   000007b6  00000000  00000000  00002420  2**0
                  CONTENTS, READONLY, DEBUGGING
  6 .debug_abbrev 0000074b  00000000  00000000  00002bd6  2**0
                  CONTENTS, READONLY, DEBUGGING
  7 .debug_line   00000122  00000000  00000000  00003321  2**0
                  CONTENTS, READONLY, DEBUGGING
  8 .debug_str    000002b3  00000000  00000000  00003443  2**0
                  CONTENTS, READONLY, DEBUGGING

Disassembly of section .text:

00000000 <__vectors>:
       0:	0c 94 2e 00 	jmp	0x5c	; 0x5c <__ctors_end>
       4:	0c 94 73 05 	jmp	0xae6	; 0xae6 <__vector_1>
       8:	0c 94 df 05 	jmp	0xbbe	; 0xbbe <__vector_2>
       c:	0c 94 4b 06 	jmp	0xc96	; 0xc96 <__vector_3>
      10:	0c 94 b7 06 	jmp	0xd6e	; 0xd6e <__vector_4>
      14:	0c 94 23 07 	jmp	0xe46	; 0xe46 <__vector_5>
      18:	0c 94 4b 00 	jmp	0x96	; 0x96 <__bad_interrupt>
      1c:	0c 94 5e 0d 	jmp	0x1abc	; 0x1abc <__vector_7>
      20:	0c 94 4b 00 	jmp	0x96	; 0x96 <__bad_interrupt>
      24:	0c 94 0b 0d 	jmp	0x1a16	; 0x1a16 <__vector_9>
      28:	0c 94 8f 07 	jmp	0xf1e	; 0xf1e <__vector_10>
      2c:	0c 94 fb 07 	jmp	0xff6	; 0xff6 <__vector_11>
      30:	0c 94 67 08 	jmp	0x10ce	; 0x10ce <__vector_12>
      34:	0c 94 d3 08 	jmp	0x11a6	; 0x11a6 <__vector_13>
      38:	0c 94 3f 09 	jmp	0x127e	; 0x127e <__vector_14>
      3c:	0c 94 ab 09 	jmp	0x1356	; 0x1356 <__vector_15>
      40:	0c 94 17 0a 	jmp	0x142e	; 0x142e <__vector_16>
      44:	0c 94 83 0a 	jmp	0x1506	; 0x1506 <__vector_17>
      48:	0c 94 ef 0a 	jmp	0x15de	; 0x15de <__vector_18>
      4c:	0c 94 5b 0b 	jmp	0x16b6	; 0x16b6 <__vector_19>
      50:	0c 94 c7 0b 	jmp	0x178e	; 0x178e <__vector_20>
      54:	0c 94 33 0c 	jmp	0x1866	; 0x1866 <__vector_21>
      58:	0c 94 9f 0c 	jmp	0x193e	; 0x193e <__vector_22>

0000005c <__ctors_end>:
      5c:	11 24       	eor	r1, r1
      5e:	1f be       	out	0x3f, r1	; 63
      60:	cf ef       	ldi	r28, 0xFF	; 255
      62:	d4 e0       	ldi	r29, 0x04	; 4
      64:	de bf       	out	0x3e, r29	; 62
      66:	cd bf       	out	0x3d, r28	; 61

00000068 <__do_copy_data>:
      68:	11 e0       	ldi	r17, 0x01	; 1
      6a:	a0 e0       	ldi	r26, 0x00	; 0
      6c:	b1 e0       	ldi	r27, 0x01	; 1
      6e:	e4 ee       	ldi	r30, 0xE4	; 228
      70:	f2 e2       	ldi	r31, 0x22	; 34
      72:	02 c0       	rjmp	.+4      	; 0x78 <__do_copy_data+0x10>
      74:	05 90       	lpm	r0, Z+
      76:	0d 92       	st	X+, r0
      78:	a8 33       	cpi	r26, 0x38	; 56
      7a:	b1 07       	cpc	r27, r17
      7c:	d9 f7       	brne	.-10     	; 0x74 <__do_copy_data+0xc>

0000007e <__do_clear_bss>:
      7e:	24 e0       	ldi	r18, 0x04	; 4
      80:	a8 e3       	ldi	r26, 0x38	; 56
      82:	b1 e0       	ldi	r27, 0x01	; 1
      84:	01 c0       	rjmp	.+2      	; 0x88 <.do_clear_bss_start>

00000086 <.do_clear_bss_loop>:
      86:	1d 92       	st	X+, r1

00000088 <.do_clear_bss_start>:
      88:	ab 38       	cpi	r26, 0x8B	; 139
      8a:	b2 07       	cpc	r27, r18
      8c:	e1 f7       	brne	.-8      	; 0x86 <.do_clear_bss_loop>
      8e:	0e 94 db 02 	call	0x5b6	; 0x5b6 <main>
      92:	0c 94 70 11 	jmp	0x22e0	; 0x22e0 <_exit>

00000096 <__bad_interrupt>:
      96:	0c 94 00 00 	jmp	0	; 0x0 <__vectors>

0000009a <Switch>:
      9a:	cf 92       	push	r12
      9c:	df 92       	push	r13
      9e:	ef 92       	push	r14
      a0:	ff 92       	push	r15
      a2:	0f 93       	push	r16
      a4:	1f 93       	push	r17
      a6:	cf 93       	push	r28
      a8:	df 93       	push	r29
      aa:	eb 01       	movw	r28, r22
      ac:	cc b0       	in	r12, 0x0c	; 12
      ae:	d1 2c       	mov	r13, r1
      b0:	fc 01       	movw	r30, r24
      b2:	04 81       	ldd	r16, Z+4	; 0x04
      b4:	15 81       	ldd	r17, Z+5	; 0x05
      b6:	8e ee       	ldi	r24, 0xEE	; 238
      b8:	e8 2e       	mov	r14, r24
      ba:	80 e0       	ldi	r24, 0x00	; 0
      bc:	f8 2e       	mov	r15, r24
      be:	20 e0       	ldi	r18, 0x00	; 0
      c0:	30 e0       	ldi	r19, 0x00	; 0
      c2:	a9 01       	movw	r20, r18
      c4:	60 e0       	ldi	r22, 0x00	; 0
      c6:	70 e0       	ldi	r23, 0x00	; 0
      c8:	cb 01       	movw	r24, r22
      ca:	0e 94 4e 0e 	call	0x1c9c	; 0x1c9c <async>
      ce:	ce 01       	movw	r24, r28
      d0:	df 91       	pop	r29
      d2:	cf 91       	pop	r28
      d4:	1f 91       	pop	r17
      d6:	0f 91       	pop	r16
      d8:	ff 90       	pop	r15
      da:	ef 90       	pop	r14
      dc:	df 90       	pop	r13
      de:	cf 90       	pop	r12
      e0:	08 95       	ret

000000e2 <Change>:
      e2:	cf 92       	push	r12
      e4:	df 92       	push	r13
      e6:	ef 92       	push	r14
      e8:	ff 92       	push	r15
      ea:	0f 93       	push	r16
      ec:	1f 93       	push	r17
      ee:	cf 93       	push	r28
      f0:	df 93       	push	r29
      f2:	eb 01       	movw	r28, r22
      f4:	fc 01       	movw	r30, r24
      f6:	04 81       	ldd	r16, Z+4	; 0x04
      f8:	15 81       	ldd	r17, Z+5	; 0x05
      fa:	c1 2c       	mov	r12, r1
      fc:	d1 2c       	mov	r13, r1
      fe:	83 e1       	ldi	r24, 0x13	; 19
     100:	e8 2e       	mov	r14, r24
     102:	81 e0       	ldi	r24, 0x01	; 1
     104:	f8 2e       	mov	r15, r24
     106:	20 e0       	ldi	r18, 0x00	; 0
     108:	30 e0       	ldi	r19, 0x00	; 0
     10a:	a9 01       	movw	r20, r18
     10c:	60 e0       	ldi	r22, 0x00	; 0
     10e:	70 e0       	ldi	r23, 0x00	; 0
     110:	cb 01       	movw	r24, r22
     112:	0e 94 4e 0e 	call	0x1c9c	; 0x1c9c <async>
     116:	ce 01       	movw	r24, r28
     118:	df 91       	pop	r29
     11a:	cf 91       	pop	r28
     11c:	1f 91       	pop	r17
     11e:	0f 91       	pop	r16
     120:	ff 90       	pop	r15
     122:	ef 90       	pop	r14
     124:	df 90       	pop	r13
     126:	cf 90       	pop	r12
     128:	08 95       	ret

0000012a <holdJoyStick>:
     12a:	cf 92       	push	r12
     12c:	df 92       	push	r13
     12e:	ef 92       	push	r14
     130:	ff 92       	push	r15
     132:	0f 93       	push	r16
     134:	1f 93       	push	r17
     136:	cf 93       	push	r28
     138:	df 93       	push	r29
     13a:	ec 01       	movw	r28, r24
     13c:	1f 99       	sbic	0x03, 7	; 3
     13e:	20 c0       	rjmp	.+64     	; 0x180 <holdJoyStick+0x56>
     140:	81 e0       	ldi	r24, 0x01	; 1
     142:	8f 83       	std	Y+7, r24	; 0x07
     144:	0c 81       	ldd	r16, Y+4	; 0x04
     146:	1d 81       	ldd	r17, Y+5	; 0x05
     148:	c1 2c       	mov	r12, r1
     14a:	d1 2c       	mov	r13, r1
     14c:	20 e9       	ldi	r18, 0x90	; 144
     14e:	e2 2e       	mov	r14, r18
     150:	21 e0       	ldi	r18, 0x01	; 1
     152:	f2 2e       	mov	r15, r18
     154:	20 e0       	ldi	r18, 0x00	; 0
     156:	30 e0       	ldi	r19, 0x00	; 0
     158:	a9 01       	movw	r20, r18
     15a:	60 e0       	ldi	r22, 0x00	; 0
     15c:	70 e0       	ldi	r23, 0x00	; 0
     15e:	cb 01       	movw	r24, r22
     160:	0e 94 4e 0e 	call	0x1c9c	; 0x1c9c <async>
     164:	35 e9       	ldi	r19, 0x95	; 149
     166:	e3 2e       	mov	r14, r19
     168:	30 e0       	ldi	r19, 0x00	; 0
     16a:	f3 2e       	mov	r15, r19
     16c:	8e 01       	movw	r16, r28
     16e:	20 e0       	ldi	r18, 0x00	; 0
     170:	30 e0       	ldi	r19, 0x00	; 0
     172:	a9 01       	movw	r20, r18
     174:	65 e3       	ldi	r22, 0x35	; 53
     176:	7c e0       	ldi	r23, 0x0C	; 12
     178:	80 e0       	ldi	r24, 0x00	; 0
     17a:	90 e0       	ldi	r25, 0x00	; 0
     17c:	0e 94 4e 0e 	call	0x1c9c	; 0x1c9c <async>
     180:	1e 99       	sbic	0x03, 6	; 3
     182:	20 c0       	rjmp	.+64     	; 0x1c4 <holdJoyStick+0x9a>
     184:	81 e0       	ldi	r24, 0x01	; 1
     186:	8f 83       	std	Y+7, r24	; 0x07
     188:	0c 81       	ldd	r16, Y+4	; 0x04
     18a:	1d 81       	ldd	r17, Y+5	; 0x05
     18c:	c1 2c       	mov	r12, r1
     18e:	d1 2c       	mov	r13, r1
     190:	88 e6       	ldi	r24, 0x68	; 104
     192:	e8 2e       	mov	r14, r24
     194:	81 e0       	ldi	r24, 0x01	; 1
     196:	f8 2e       	mov	r15, r24
     198:	20 e0       	ldi	r18, 0x00	; 0
     19a:	30 e0       	ldi	r19, 0x00	; 0
     19c:	a9 01       	movw	r20, r18
     19e:	60 e0       	ldi	r22, 0x00	; 0
     1a0:	70 e0       	ldi	r23, 0x00	; 0
     1a2:	cb 01       	movw	r24, r22
     1a4:	0e 94 4e 0e 	call	0x1c9c	; 0x1c9c <async>
     1a8:	95 e9       	ldi	r25, 0x95	; 149
     1aa:	e9 2e       	mov	r14, r25
     1ac:	90 e0       	ldi	r25, 0x00	; 0
     1ae:	f9 2e       	mov	r15, r25
     1b0:	8e 01       	movw	r16, r28
     1b2:	20 e0       	ldi	r18, 0x00	; 0
     1b4:	30 e0       	ldi	r19, 0x00	; 0
     1b6:	a9 01       	movw	r20, r18
     1b8:	65 e3       	ldi	r22, 0x35	; 53
     1ba:	7c e0       	ldi	r23, 0x0C	; 12
     1bc:	80 e0       	ldi	r24, 0x00	; 0
     1be:	90 e0       	ldi	r25, 0x00	; 0
     1c0:	0e 94 4e 0e 	call	0x1c9c	; 0x1c9c <async>
     1c4:	1f 82       	std	Y+7, r1	; 0x07
     1c6:	80 e0       	ldi	r24, 0x00	; 0
     1c8:	90 e0       	ldi	r25, 0x00	; 0
     1ca:	df 91       	pop	r29
     1cc:	cf 91       	pop	r28
     1ce:	1f 91       	pop	r17
     1d0:	0f 91       	pop	r16
     1d2:	ff 90       	pop	r15
     1d4:	ef 90       	pop	r14
     1d6:	df 90       	pop	r13
     1d8:	cf 90       	pop	r12
     1da:	08 95       	ret

000001dc <joyStickHorizontalControll>:
     1dc:	cf 92       	push	r12
     1de:	df 92       	push	r13
     1e0:	ef 92       	push	r14
     1e2:	ff 92       	push	r15
     1e4:	0f 93       	push	r16
     1e6:	1f 93       	push	r17
     1e8:	63 ff       	sbrs	r22, 3
     1ea:	0b c0       	rjmp	.+22     	; 0x202 <__EEPROM_REGION_LENGTH__+0x2>
     1ec:	64 ff       	sbrs	r22, 4
     1ee:	09 c0       	rjmp	.+18     	; 0x202 <__EEPROM_REGION_LENGTH__+0x2>
     1f0:	80 e0       	ldi	r24, 0x00	; 0
     1f2:	90 e0       	ldi	r25, 0x00	; 0
     1f4:	1f 91       	pop	r17
     1f6:	0f 91       	pop	r16
     1f8:	ff 90       	pop	r15
     1fa:	ef 90       	pop	r14
     1fc:	df 90       	pop	r13
     1fe:	cf 90       	pop	r12
     200:	08 95       	ret
     202:	fc 01       	movw	r30, r24
     204:	04 81       	ldd	r16, Z+4	; 0x04
     206:	15 81       	ldd	r17, Z+5	; 0x05
     208:	c1 2c       	mov	r12, r1
     20a:	d1 2c       	mov	r13, r1
     20c:	88 eb       	ldi	r24, 0xB8	; 184
     20e:	e8 2e       	mov	r14, r24
     210:	81 e0       	ldi	r24, 0x01	; 1
     212:	f8 2e       	mov	r15, r24
     214:	20 e0       	ldi	r18, 0x00	; 0
     216:	30 e0       	ldi	r19, 0x00	; 0
     218:	a9 01       	movw	r20, r18
     21a:	60 e0       	ldi	r22, 0x00	; 0
     21c:	70 e0       	ldi	r23, 0x00	; 0
     21e:	cb 01       	movw	r24, r22
     220:	0e 94 4e 0e 	call	0x1c9c	; 0x1c9c <async>
     224:	e5 cf       	rjmp	.-54     	; 0x1f0 <joyStickHorizontalControll+0x14>

00000226 <joyStickVerticalControll>:
     226:	cf 92       	push	r12
     228:	df 92       	push	r13
     22a:	ef 92       	push	r14
     22c:	ff 92       	push	r15
     22e:	0f 93       	push	r16
     230:	1f 93       	push	r17
     232:	cf 93       	push	r28
     234:	df 93       	push	r29
     236:	ec 01       	movw	r28, r24
     238:	8f 81       	ldd	r24, Y+7	; 0x07
     23a:	81 11       	cpse	r24, r1
     23c:	14 c0       	rjmp	.+40     	; 0x266 <joyStickVerticalControll+0x40>
     23e:	1f 99       	sbic	0x03, 7	; 3
     240:	10 c0       	rjmp	.+32     	; 0x262 <joyStickVerticalControll+0x3c>
     242:	c1 2c       	mov	r12, r1
     244:	d1 2c       	mov	r13, r1
     246:	25 e9       	ldi	r18, 0x95	; 149
     248:	e2 2e       	mov	r14, r18
     24a:	20 e0       	ldi	r18, 0x00	; 0
     24c:	f2 2e       	mov	r15, r18
     24e:	8e 01       	movw	r16, r28
     250:	20 e0       	ldi	r18, 0x00	; 0
     252:	30 e0       	ldi	r19, 0x00	; 0
     254:	a9 01       	movw	r20, r18
     256:	6a e1       	ldi	r22, 0x1A	; 26
     258:	76 e0       	ldi	r23, 0x06	; 6
     25a:	80 e0       	ldi	r24, 0x00	; 0
     25c:	90 e0       	ldi	r25, 0x00	; 0
     25e:	0e 94 4e 0e 	call	0x1c9c	; 0x1c9c <async>
     262:	1e 9b       	sbis	0x03, 6	; 3
     264:	12 c0       	rjmp	.+36     	; 0x28a <joyStickVerticalControll+0x64>
     266:	1c 99       	sbic	0x03, 4	; 3
     268:	05 c0       	rjmp	.+10     	; 0x274 <joyStickVerticalControll+0x4e>
     26a:	8e 81       	ldd	r24, Y+6	; 0x06
     26c:	81 11       	cpse	r24, r1
     26e:	1e c0       	rjmp	.+60     	; 0x2ac <joyStickVerticalControll+0x86>
     270:	81 e0       	ldi	r24, 0x01	; 1
     272:	8e 83       	std	Y+6, r24	; 0x06
     274:	80 e0       	ldi	r24, 0x00	; 0
     276:	90 e0       	ldi	r25, 0x00	; 0
     278:	df 91       	pop	r29
     27a:	cf 91       	pop	r28
     27c:	1f 91       	pop	r17
     27e:	0f 91       	pop	r16
     280:	ff 90       	pop	r15
     282:	ef 90       	pop	r14
     284:	df 90       	pop	r13
     286:	cf 90       	pop	r12
     288:	08 95       	ret
     28a:	c1 2c       	mov	r12, r1
     28c:	d1 2c       	mov	r13, r1
     28e:	95 e9       	ldi	r25, 0x95	; 149
     290:	e9 2e       	mov	r14, r25
     292:	90 e0       	ldi	r25, 0x00	; 0
     294:	f9 2e       	mov	r15, r25
     296:	8e 01       	movw	r16, r28
     298:	20 e0       	ldi	r18, 0x00	; 0
     29a:	30 e0       	ldi	r19, 0x00	; 0
     29c:	a9 01       	movw	r20, r18
     29e:	6a e1       	ldi	r22, 0x1A	; 26
     2a0:	76 e0       	ldi	r23, 0x06	; 6
     2a2:	80 e0       	ldi	r24, 0x00	; 0
     2a4:	90 e0       	ldi	r25, 0x00	; 0
     2a6:	0e 94 4e 0e 	call	0x1c9c	; 0x1c9c <async>
     2aa:	dd cf       	rjmp	.-70     	; 0x266 <joyStickVerticalControll+0x40>
     2ac:	1e 82       	std	Y+6, r1	; 0x06
     2ae:	0c 81       	ldd	r16, Y+4	; 0x04
     2b0:	1d 81       	ldd	r17, Y+5	; 0x05
     2b2:	c1 2c       	mov	r12, r1
     2b4:	d1 2c       	mov	r13, r1
     2b6:	8d ec       	ldi	r24, 0xCD	; 205
     2b8:	e8 2e       	mov	r14, r24
     2ba:	81 e0       	ldi	r24, 0x01	; 1
     2bc:	f8 2e       	mov	r15, r24
     2be:	20 e0       	ldi	r18, 0x00	; 0
     2c0:	30 e0       	ldi	r19, 0x00	; 0
     2c2:	a9 01       	movw	r20, r18
     2c4:	60 e0       	ldi	r22, 0x00	; 0
     2c6:	70 e0       	ldi	r23, 0x00	; 0
     2c8:	cb 01       	movw	r24, r22
     2ca:	0e 94 4e 0e 	call	0x1c9c	; 0x1c9c <async>
     2ce:	d2 cf       	rjmp	.-92     	; 0x274 <joyStickVerticalControll+0x4e>

000002d0 <freqUp>:
     2d0:	cf 92       	push	r12
     2d2:	df 92       	push	r13
     2d4:	ef 92       	push	r14
     2d6:	ff 92       	push	r15
     2d8:	0f 93       	push	r16
     2da:	1f 93       	push	r17
     2dc:	fc 01       	movw	r30, r24
     2de:	24 81       	ldd	r18, Z+4	; 0x04
     2e0:	35 81       	ldd	r19, Z+5	; 0x05
     2e2:	23 2b       	or	r18, r19
     2e4:	d1 f4       	brne	.+52     	; 0x31a <freqUp+0x4a>
     2e6:	fc 01       	movw	r30, r24
     2e8:	00 85       	ldd	r16, Z+8	; 0x08
     2ea:	11 85       	ldd	r17, Z+9	; 0x09
     2ec:	c1 2c       	mov	r12, r1
     2ee:	d1 2c       	mov	r13, r1
     2f0:	85 e0       	ldi	r24, 0x05	; 5
     2f2:	e8 2e       	mov	r14, r24
     2f4:	84 e0       	ldi	r24, 0x04	; 4
     2f6:	f8 2e       	mov	r15, r24
     2f8:	20 e0       	ldi	r18, 0x00	; 0
     2fa:	30 e0       	ldi	r19, 0x00	; 0
     2fc:	a9 01       	movw	r20, r18
     2fe:	60 e0       	ldi	r22, 0x00	; 0
     300:	70 e0       	ldi	r23, 0x00	; 0
     302:	cb 01       	movw	r24, r22
     304:	0e 94 4e 0e 	call	0x1c9c	; 0x1c9c <async>
     308:	80 e0       	ldi	r24, 0x00	; 0
     30a:	90 e0       	ldi	r25, 0x00	; 0
     30c:	1f 91       	pop	r17
     30e:	0f 91       	pop	r16
     310:	ff 90       	pop	r15
     312:	ef 90       	pop	r14
     314:	df 90       	pop	r13
     316:	cf 90       	pop	r12
     318:	08 95       	ret
     31a:	06 81       	ldd	r16, Z+6	; 0x06
     31c:	17 81       	ldd	r17, Z+7	; 0x07
     31e:	e6 cf       	rjmp	.-52     	; 0x2ec <freqUp+0x1c>

00000320 <freqDown>:
     320:	cf 92       	push	r12
     322:	df 92       	push	r13
     324:	ef 92       	push	r14
     326:	ff 92       	push	r15
     328:	0f 93       	push	r16
     32a:	1f 93       	push	r17
     32c:	fc 01       	movw	r30, r24
     32e:	24 81       	ldd	r18, Z+4	; 0x04
     330:	35 81       	ldd	r19, Z+5	; 0x05
     332:	23 2b       	or	r18, r19
     334:	d1 f4       	brne	.+52     	; 0x36a <freqDown+0x4a>
     336:	fc 01       	movw	r30, r24
     338:	00 85       	ldd	r16, Z+8	; 0x08
     33a:	11 85       	ldd	r17, Z+9	; 0x09
     33c:	c1 2c       	mov	r12, r1
     33e:	d1 2c       	mov	r13, r1
     340:	86 e3       	ldi	r24, 0x36	; 54
     342:	e8 2e       	mov	r14, r24
     344:	84 e0       	ldi	r24, 0x04	; 4
     346:	f8 2e       	mov	r15, r24
     348:	20 e0       	ldi	r18, 0x00	; 0
     34a:	30 e0       	ldi	r19, 0x00	; 0
     34c:	a9 01       	movw	r20, r18
     34e:	60 e0       	ldi	r22, 0x00	; 0
     350:	70 e0       	ldi	r23, 0x00	; 0
     352:	cb 01       	movw	r24, r22
     354:	0e 94 4e 0e 	call	0x1c9c	; 0x1c9c <async>
     358:	80 e0       	ldi	r24, 0x00	; 0
     35a:	90 e0       	ldi	r25, 0x00	; 0
     35c:	1f 91       	pop	r17
     35e:	0f 91       	pop	r16
     360:	ff 90       	pop	r15
     362:	ef 90       	pop	r14
     364:	df 90       	pop	r13
     366:	cf 90       	pop	r12
     368:	08 95       	ret
     36a:	06 81       	ldd	r16, Z+6	; 0x06
     36c:	17 81       	ldd	r17, Z+7	; 0x07
     36e:	e6 cf       	rjmp	.-52     	; 0x33c <freqDown+0x1c>

00000370 <switchState>:
     370:	21 e0       	ldi	r18, 0x01	; 1
     372:	30 e0       	ldi	r19, 0x00	; 0
     374:	fc 01       	movw	r30, r24
     376:	44 81       	ldd	r20, Z+4	; 0x04
     378:	55 81       	ldd	r21, Z+5	; 0x05
     37a:	45 2b       	or	r20, r21
     37c:	11 f0       	breq	.+4      	; 0x382 <switchState+0x12>
     37e:	20 e0       	ldi	r18, 0x00	; 0
     380:	30 e0       	ldi	r19, 0x00	; 0
     382:	fc 01       	movw	r30, r24
     384:	35 83       	std	Z+5, r19	; 0x05
     386:	24 83       	std	Z+4, r18	; 0x04
     388:	90 91 f9 00 	lds	r25, 0x00F9	; 0x8000f9 <__TEXT_REGION_LENGTH__+0x7fc0f9>
     38c:	81 e0       	ldi	r24, 0x01	; 1
     38e:	89 27       	eor	r24, r25
     390:	80 93 f9 00 	sts	0x00F9, r24	; 0x8000f9 <__TEXT_REGION_LENGTH__+0x7fc0f9>
     394:	80 e0       	ldi	r24, 0x00	; 0
     396:	90 e0       	ldi	r25, 0x00	; 0
     398:	08 95       	ret

0000039a <press>:
     39a:	cf 92       	push	r12
     39c:	df 92       	push	r13
     39e:	ef 92       	push	r14
     3a0:	ff 92       	push	r15
     3a2:	0f 93       	push	r16
     3a4:	1f 93       	push	r17
     3a6:	fc 01       	movw	r30, r24
     3a8:	24 81       	ldd	r18, Z+4	; 0x04
     3aa:	35 81       	ldd	r19, Z+5	; 0x05
     3ac:	23 2b       	or	r18, r19
     3ae:	d1 f4       	brne	.+52     	; 0x3e4 <press+0x4a>
     3b0:	fc 01       	movw	r30, r24
     3b2:	00 85       	ldd	r16, Z+8	; 0x08
     3b4:	11 85       	ldd	r17, Z+9	; 0x09
     3b6:	c1 2c       	mov	r12, r1
     3b8:	d1 2c       	mov	r13, r1
     3ba:	85 e6       	ldi	r24, 0x65	; 101
     3bc:	e8 2e       	mov	r14, r24
     3be:	84 e0       	ldi	r24, 0x04	; 4
     3c0:	f8 2e       	mov	r15, r24
     3c2:	20 e0       	ldi	r18, 0x00	; 0
     3c4:	30 e0       	ldi	r19, 0x00	; 0
     3c6:	a9 01       	movw	r20, r18
     3c8:	60 e0       	ldi	r22, 0x00	; 0
     3ca:	70 e0       	ldi	r23, 0x00	; 0
     3cc:	cb 01       	movw	r24, r22
     3ce:	0e 94 4e 0e 	call	0x1c9c	; 0x1c9c <async>
     3d2:	80 e0       	ldi	r24, 0x00	; 0
     3d4:	90 e0       	ldi	r25, 0x00	; 0
     3d6:	1f 91       	pop	r17
     3d8:	0f 91       	pop	r16
     3da:	ff 90       	pop	r15
     3dc:	ef 90       	pop	r14
     3de:	df 90       	pop	r13
     3e0:	cf 90       	pop	r12
     3e2:	08 95       	ret
     3e4:	06 81       	ldd	r16, Z+6	; 0x06
     3e6:	17 81       	ldd	r17, Z+7	; 0x07
     3e8:	e6 cf       	rjmp	.-52     	; 0x3b6 <press+0x1c>

000003ea <startPulse>:
     3ea:	af 92       	push	r10
     3ec:	bf 92       	push	r11
     3ee:	cf 92       	push	r12
     3f0:	df 92       	push	r13
     3f2:	ef 92       	push	r14
     3f4:	ff 92       	push	r15
     3f6:	0f 93       	push	r16
     3f8:	1f 93       	push	r17
     3fa:	cf 93       	push	r28
     3fc:	df 93       	push	r29
     3fe:	ec 01       	movw	r28, r24
     400:	5b 01       	movw	r10, r22
     402:	0e 81       	ldd	r16, Y+6	; 0x06
     404:	1f 81       	ldd	r17, Y+7	; 0x07
     406:	c1 2c       	mov	r12, r1
     408:	d1 2c       	mov	r13, r1
     40a:	86 e8       	ldi	r24, 0x86	; 134
     40c:	e8 2e       	mov	r14, r24
     40e:	83 e0       	ldi	r24, 0x03	; 3
     410:	f8 2e       	mov	r15, r24
     412:	20 e0       	ldi	r18, 0x00	; 0
     414:	30 e0       	ldi	r19, 0x00	; 0
     416:	a9 01       	movw	r20, r18
     418:	60 e0       	ldi	r22, 0x00	; 0
     41a:	70 e0       	ldi	r23, 0x00	; 0
     41c:	cb 01       	movw	r24, r22
     41e:	0e 94 4e 0e 	call	0x1c9c	; 0x1c9c <async>
     422:	08 85       	ldd	r16, Y+8	; 0x08
     424:	19 85       	ldd	r17, Y+9	; 0x09
     426:	20 e0       	ldi	r18, 0x00	; 0
     428:	30 e0       	ldi	r19, 0x00	; 0
     42a:	a9 01       	movw	r20, r18
     42c:	60 e0       	ldi	r22, 0x00	; 0
     42e:	70 e0       	ldi	r23, 0x00	; 0
     430:	cb 01       	movw	r24, r22
     432:	0e 94 4e 0e 	call	0x1c9c	; 0x1c9c <async>
     436:	c5 01       	movw	r24, r10
     438:	df 91       	pop	r29
     43a:	cf 91       	pop	r28
     43c:	1f 91       	pop	r17
     43e:	0f 91       	pop	r16
     440:	ff 90       	pop	r15
     442:	ef 90       	pop	r14
     444:	df 90       	pop	r13
     446:	cf 90       	pop	r12
     448:	bf 90       	pop	r11
     44a:	af 90       	pop	r10
     44c:	08 95       	ret

0000044e <INIT>:
     44e:	20 ec       	ldi	r18, 0xC0	; 192
     450:	20 93 e4 00 	sts	0x00E4, r18	; 0x8000e4 <__TEXT_REGION_LENGTH__+0x7fc0e4>
     454:	87 eb       	ldi	r24, 0xB7	; 183
     456:	80 93 e5 00 	sts	0x00E5, r24	; 0x8000e5 <__TEXT_REGION_LENGTH__+0x7fc0e5>
     45a:	87 e0       	ldi	r24, 0x07	; 7
     45c:	80 93 e6 00 	sts	0x00E6, r24	; 0x8000e6 <__TEXT_REGION_LENGTH__+0x7fc0e6>
     460:	8f e0       	ldi	r24, 0x0F	; 15
     462:	80 93 e7 00 	sts	0x00E7, r24	; 0x8000e7 <__TEXT_REGION_LENGTH__+0x7fc0e7>
     466:	80 ed       	ldi	r24, 0xD0	; 208
     468:	85 b9       	out	0x05, r24	; 5
     46a:	9c e0       	ldi	r25, 0x0C	; 12
     46c:	9e b9       	out	0x0e, r25	; 14
     46e:	2d bb       	out	0x1d, r18	; 29
     470:	90 93 6b 00 	sts	0x006B, r25	; 0x80006b <__TEXT_REGION_LENGTH__+0x7fc06b>
     474:	80 93 6c 00 	sts	0x006C, r24	; 0x80006c <__TEXT_REGION_LENGTH__+0x7fc06c>
     478:	08 95       	ret

0000047a <writeChar.part.0>:
     47a:	fb 01       	movw	r30, r22
     47c:	e8 5f       	subi	r30, 0xF8	; 248
     47e:	fe 4f       	sbci	r31, 0xFE	; 254
     480:	e0 81       	ld	r30, Z
     482:	f0 e0       	ldi	r31, 0x00	; 0
     484:	e4 51       	subi	r30, 0x14	; 20
     486:	ff 4f       	sbci	r31, 0xFF	; 255
     488:	a8 2f       	mov	r26, r24
     48a:	b0 e0       	ldi	r27, 0x00	; 0
     48c:	d0 97       	sbiw	r26, 0x30	; 48
     48e:	61 70       	andi	r22, 0x01	; 1
     490:	70 78       	andi	r23, 0x80	; 128
     492:	77 fd       	sbrc	r23, 7
     494:	4c c0       	rjmp	.+152    	; 0x52e <__stack+0x2f>
     496:	80 81       	ld	r24, Z
     498:	61 30       	cpi	r22, 0x01	; 1
     49a:	71 05       	cpc	r23, r1
     49c:	d9 f1       	breq	.+118    	; 0x514 <__stack+0x15>
     49e:	80 7f       	andi	r24, 0xF0	; 240
     4a0:	80 83       	st	Z, r24
     4a2:	85 81       	ldd	r24, Z+5	; 0x05
     4a4:	80 7f       	andi	r24, 0xF0	; 240
     4a6:	85 83       	std	Z+5, r24	; 0x05
     4a8:	82 85       	ldd	r24, Z+10	; 0x0a
     4aa:	80 7f       	andi	r24, 0xF0	; 240
     4ac:	82 87       	std	Z+10, r24	; 0x0a
     4ae:	87 85       	ldd	r24, Z+15	; 0x0f
     4b0:	80 7f       	andi	r24, 0xF0	; 240
     4b2:	87 87       	std	Z+15, r24	; 0x0f
     4b4:	90 e0       	ldi	r25, 0x00	; 0
     4b6:	20 81       	ld	r18, Z
     4b8:	aa 0f       	add	r26, r26
     4ba:	bb 1f       	adc	r27, r27
     4bc:	aa 0f       	add	r26, r26
     4be:	bb 1f       	adc	r27, r27
     4c0:	a0 5f       	subi	r26, 0xF0	; 240
     4c2:	be 4f       	sbci	r27, 0xFE	; 254
     4c4:	8c 91       	ld	r24, X
     4c6:	09 2e       	mov	r0, r25
     4c8:	01 c0       	rjmp	.+2      	; 0x4cc <writeChar.part.0+0x52>
     4ca:	88 0f       	add	r24, r24
     4cc:	0a 94       	dec	r0
     4ce:	ea f7       	brpl	.-6      	; 0x4ca <writeChar.part.0+0x50>
     4d0:	82 2b       	or	r24, r18
     4d2:	80 83       	st	Z, r24
     4d4:	25 81       	ldd	r18, Z+5	; 0x05
     4d6:	11 96       	adiw	r26, 0x01	; 1
     4d8:	8c 91       	ld	r24, X
     4da:	11 97       	sbiw	r26, 0x01	; 1
     4dc:	09 2e       	mov	r0, r25
     4de:	01 c0       	rjmp	.+2      	; 0x4e2 <writeChar.part.0+0x68>
     4e0:	88 0f       	add	r24, r24
     4e2:	0a 94       	dec	r0
     4e4:	ea f7       	brpl	.-6      	; 0x4e0 <writeChar.part.0+0x66>
     4e6:	82 2b       	or	r24, r18
     4e8:	85 83       	std	Z+5, r24	; 0x05
     4ea:	22 85       	ldd	r18, Z+10	; 0x0a
     4ec:	12 96       	adiw	r26, 0x02	; 2
     4ee:	8c 91       	ld	r24, X
     4f0:	12 97       	sbiw	r26, 0x02	; 2
     4f2:	09 2e       	mov	r0, r25
     4f4:	01 c0       	rjmp	.+2      	; 0x4f8 <writeChar.part.0+0x7e>
     4f6:	88 0f       	add	r24, r24
     4f8:	0a 94       	dec	r0
     4fa:	ea f7       	brpl	.-6      	; 0x4f6 <writeChar.part.0+0x7c>
     4fc:	82 2b       	or	r24, r18
     4fe:	82 87       	std	Z+10, r24	; 0x0a
     500:	27 85       	ldd	r18, Z+15	; 0x0f
     502:	13 96       	adiw	r26, 0x03	; 3
     504:	8c 91       	ld	r24, X
     506:	01 c0       	rjmp	.+2      	; 0x50a <__stack+0xb>
     508:	88 0f       	add	r24, r24
     50a:	9a 95       	dec	r25
     50c:	ea f7       	brpl	.-6      	; 0x508 <__stack+0x9>
     50e:	82 2b       	or	r24, r18
     510:	87 87       	std	Z+15, r24	; 0x0f
     512:	08 95       	ret
     514:	8f 70       	andi	r24, 0x0F	; 15
     516:	80 83       	st	Z, r24
     518:	85 81       	ldd	r24, Z+5	; 0x05
     51a:	8f 70       	andi	r24, 0x0F	; 15
     51c:	85 83       	std	Z+5, r24	; 0x05
     51e:	82 85       	ldd	r24, Z+10	; 0x0a
     520:	8f 70       	andi	r24, 0x0F	; 15
     522:	82 87       	std	Z+10, r24	; 0x0a
     524:	87 85       	ldd	r24, Z+15	; 0x0f
     526:	8f 70       	andi	r24, 0x0F	; 15
     528:	87 87       	std	Z+15, r24	; 0x0f
     52a:	94 e0       	ldi	r25, 0x04	; 4
     52c:	c4 cf       	rjmp	.-120    	; 0x4b6 <writeChar.part.0+0x3c>
     52e:	61 50       	subi	r22, 0x01	; 1
     530:	71 09       	sbc	r23, r1
     532:	6e 6f       	ori	r22, 0xFE	; 254
     534:	7f 6f       	ori	r23, 0xFF	; 255
     536:	6f 5f       	subi	r22, 0xFF	; 255
     538:	7f 4f       	sbci	r23, 0xFF	; 255
     53a:	ad cf       	rjmp	.-166    	; 0x496 <writeChar.part.0+0x1c>

0000053c <printAt>:
     53c:	0f 93       	push	r16
     53e:	1f 93       	push	r17
     540:	cf 93       	push	r28
     542:	df 93       	push	r29
     544:	86 2f       	mov	r24, r22
     546:	88 1f       	adc	r24, r24
     548:	88 27       	eor	r24, r24
     54a:	88 1f       	adc	r24, r24
     54c:	73 70       	andi	r23, 0x03	; 3
     54e:	77 0f       	add	r23, r23
     550:	78 2b       	or	r23, r24
     552:	07 2f       	mov	r16, r23
     554:	10 e0       	ldi	r17, 0x00	; 0
     556:	6f 77       	andi	r22, 0x7F	; 127
     558:	c6 2f       	mov	r28, r22
     55a:	d0 e0       	ldi	r29, 0x00	; 0
     55c:	76 30       	cpi	r23, 0x06	; 6
     55e:	70 f4       	brcc	.+28     	; 0x57c <printAt+0x40>
     560:	ce 01       	movw	r24, r28
     562:	64 e6       	ldi	r22, 0x64	; 100
     564:	70 e0       	ldi	r23, 0x00	; 0
     566:	0e 94 f1 10 	call	0x21e2	; 0x21e2 <__divmodhi4>
     56a:	6a e0       	ldi	r22, 0x0A	; 10
     56c:	70 e0       	ldi	r23, 0x00	; 0
     56e:	0e 94 f1 10 	call	0x21e2	; 0x21e2 <__divmodhi4>
     572:	86 2f       	mov	r24, r22
     574:	b8 01       	movw	r22, r16
     576:	80 5d       	subi	r24, 0xD0	; 208
     578:	0e 94 3d 02 	call	0x47a	; 0x47a <writeChar.part.0>
     57c:	98 01       	movw	r18, r16
     57e:	2f 5f       	subi	r18, 0xFF	; 255
     580:	3f 4f       	sbci	r19, 0xFF	; 255
     582:	26 30       	cpi	r18, 0x06	; 6
     584:	31 05       	cpc	r19, r1
     586:	3c f0       	brlt	.+14     	; 0x596 <printAt+0x5a>
     588:	80 e0       	ldi	r24, 0x00	; 0
     58a:	90 e0       	ldi	r25, 0x00	; 0
     58c:	df 91       	pop	r29
     58e:	cf 91       	pop	r28
     590:	1f 91       	pop	r17
     592:	0f 91       	pop	r16
     594:	08 95       	ret
     596:	ce 01       	movw	r24, r28
     598:	6a e0       	ldi	r22, 0x0A	; 10
     59a:	70 e0       	ldi	r23, 0x00	; 0
     59c:	0e 94 f1 10 	call	0x21e2	; 0x21e2 <__divmodhi4>
     5a0:	b9 01       	movw	r22, r18
     5a2:	80 5d       	subi	r24, 0xD0	; 208
     5a4:	0e 94 3d 02 	call	0x47a	; 0x47a <writeChar.part.0>
     5a8:	80 e0       	ldi	r24, 0x00	; 0
     5aa:	90 e0       	ldi	r25, 0x00	; 0
     5ac:	df 91       	pop	r29
     5ae:	cf 91       	pop	r28
     5b0:	1f 91       	pop	r17
     5b2:	0f 91       	pop	r16
     5b4:	08 95       	ret

000005b6 <main>:
     5b6:	0f 93       	push	r16
     5b8:	1f 93       	push	r17
     5ba:	cf 93       	push	r28
     5bc:	df 93       	push	r29
     5be:	cd b7       	in	r28, 0x3d	; 61
     5c0:	de b7       	in	r29, 0x3e	; 62
     5c2:	c4 54       	subi	r28, 0x44	; 68
     5c4:	d1 09       	sbc	r29, r1
     5c6:	0f b6       	in	r0, 0x3f	; 63
     5c8:	f8 94       	cli
     5ca:	de bf       	out	0x3e, r29	; 62
     5cc:	0f be       	out	0x3f, r0	; 63
     5ce:	cd bf       	out	0x3d, r28	; 61
     5d0:	0e 94 27 02 	call	0x44e	; 0x44e <INIT>
     5d4:	fe 01       	movw	r30, r28
     5d6:	ef 5b       	subi	r30, 0xBF	; 191
     5d8:	ff 4f       	sbci	r31, 0xFF	; 255
     5da:	11 82       	std	Z+1, r1	; 0x01
     5dc:	10 82       	st	Z, r1
     5de:	13 82       	std	Z+3, r1	; 0x03
     5e0:	12 82       	std	Z+2, r1	; 0x02
     5e2:	1e ae       	std	Y+62, r1	; 0x3e
     5e4:	1d ae       	std	Y+61, r1	; 0x3d
     5e6:	21 96       	adiw	r28, 0x01	; 1
     5e8:	1f ae       	std	Y+63, r1	; 0x3f
     5ea:	1e ae       	std	Y+62, r1	; 0x3e
     5ec:	21 97       	sbiw	r28, 0x01	; 1
     5ee:	1c 8a       	std	Y+20, r1	; 0x14
     5f0:	1b 8a       	std	Y+19, r1	; 0x13
     5f2:	1e 8a       	std	Y+22, r1	; 0x16
     5f4:	1d 8a       	std	Y+21, r1	; 0x15
     5f6:	18 8e       	std	Y+24, r1	; 0x18
     5f8:	1f 8a       	std	Y+23, r1	; 0x17
     5fa:	1a 8e       	std	Y+26, r1	; 0x1a
     5fc:	19 8e       	std	Y+25, r1	; 0x19
     5fe:	81 e0       	ldi	r24, 0x01	; 1
     600:	90 e0       	ldi	r25, 0x00	; 0
     602:	9c 8f       	std	Y+28, r25	; 0x1c
     604:	8b 8f       	std	Y+27, r24	; 0x1b
     606:	9e 8f       	std	Y+30, r25	; 0x1e
     608:	8d 8f       	std	Y+29, r24	; 0x1d
     60a:	f8 a3       	std	Y+32, r31	; 0x20
     60c:	ef 8f       	std	Y+31, r30	; 0x1f
     60e:	ce 01       	movw	r24, r28
     610:	cd 96       	adiw	r24, 0x3d	; 61
     612:	9a a3       	std	Y+34, r25	; 0x22
     614:	89 a3       	std	Y+33, r24	; 0x21
     616:	1c a2       	std	Y+36, r1	; 0x24
     618:	1b a2       	std	Y+35, r1	; 0x23
     61a:	1a 82       	std	Y+2, r1	; 0x02
     61c:	19 82       	std	Y+1, r1	; 0x01
     61e:	1c 82       	std	Y+4, r1	; 0x04
     620:	1b 82       	std	Y+3, r1	; 0x03
     622:	1e 82       	std	Y+6, r1	; 0x06
     624:	1d 82       	std	Y+5, r1	; 0x05
     626:	18 86       	std	Y+8, r1	; 0x08
     628:	1f 82       	std	Y+7, r1	; 0x07
     62a:	24 e0       	ldi	r18, 0x04	; 4
     62c:	30 e0       	ldi	r19, 0x00	; 0
     62e:	3a 87       	std	Y+10, r19	; 0x0a
     630:	29 87       	std	Y+9, r18	; 0x09
     632:	23 e0       	ldi	r18, 0x03	; 3
     634:	30 e0       	ldi	r19, 0x00	; 0
     636:	3c 87       	std	Y+12, r19	; 0x0c
     638:	2b 87       	std	Y+11, r18	; 0x0b
     63a:	fe 87       	std	Y+14, r31	; 0x0e
     63c:	ed 87       	std	Y+13, r30	; 0x0d
     63e:	98 8b       	std	Y+16, r25	; 0x10
     640:	8f 87       	std	Y+15, r24	; 0x0f
     642:	1a 8a       	std	Y+18, r1	; 0x12
     644:	19 8a       	std	Y+17, r1	; 0x11
     646:	1e a2       	std	Y+38, r1	; 0x26
     648:	1d a2       	std	Y+37, r1	; 0x25
     64a:	18 a6       	std	Y+40, r1	; 0x28
     64c:	1f a2       	std	Y+39, r1	; 0x27
     64e:	1a a6       	std	Y+42, r1	; 0x2a
     650:	19 a6       	std	Y+41, r1	; 0x29
     652:	8a 97       	sbiw	r24, 0x2a	; 42
     654:	9c a7       	std	Y+44, r25	; 0x2c
     656:	8b a7       	std	Y+43, r24	; 0x2b
     658:	42 97       	sbiw	r24, 0x12	; 18
     65a:	9e a7       	std	Y+46, r25	; 0x2e
     65c:	8d a7       	std	Y+45, r24	; 0x2d
     65e:	72 97       	sbiw	r30, 0x12	; 18
     660:	88 e0       	ldi	r24, 0x08	; 8
     662:	df 01       	movw	r26, r30
     664:	1d 92       	st	X+, r1
     666:	8a 95       	dec	r24
     668:	e9 f7       	brne	.-6      	; 0x664 <main+0xae>
     66a:	8e 01       	movw	r16, r28
     66c:	0b 5d       	subi	r16, 0xDB	; 219
     66e:	1f 4f       	sbci	r17, 0xFF	; 255
     670:	1c ab       	std	Y+52, r17	; 0x34
     672:	0b ab       	std	Y+51, r16	; 0x33
     674:	18 ae       	std	Y+56, r1	; 0x38
     676:	1f aa       	std	Y+55, r1	; 0x37
     678:	1a ae       	std	Y+58, r1	; 0x3a
     67a:	19 ae       	std	Y+57, r1	; 0x39
     67c:	fc af       	std	Y+60, r31	; 0x3c
     67e:	eb af       	std	Y+59, r30	; 0x3b
     680:	41 e0       	ldi	r20, 0x01	; 1
     682:	6d e4       	ldi	r22, 0x4D	; 77
     684:	70 e0       	ldi	r23, 0x00	; 0
     686:	ce 01       	movw	r24, r28
     688:	c7 96       	adiw	r24, 0x37	; 55
     68a:	0e 94 bb 10 	call	0x2176	; 0x2176 <install>
     68e:	42 e0       	ldi	r20, 0x02	; 2
     690:	61 e7       	ldi	r22, 0x71	; 113
     692:	70 e0       	ldi	r23, 0x00	; 0
     694:	ce 01       	movw	r24, r28
     696:	c7 96       	adiw	r24, 0x37	; 55
     698:	0e 94 bb 10 	call	0x2176	; 0x2176 <install>
     69c:	40 e0       	ldi	r20, 0x00	; 0
     69e:	50 e0       	ldi	r21, 0x00	; 0
     6a0:	65 ef       	ldi	r22, 0xF5	; 245
     6a2:	71 e0       	ldi	r23, 0x01	; 1
     6a4:	c8 01       	movw	r24, r16
     6a6:	0e 94 d5 10 	call	0x21aa	; 0x21aa <tinytimber>
     6aa:	cc 5b       	subi	r28, 0xBC	; 188
     6ac:	df 4f       	sbci	r29, 0xFF	; 255
     6ae:	0f b6       	in	r0, 0x3f	; 63
     6b0:	f8 94       	cli
     6b2:	de bf       	out	0x3e, r29	; 62
     6b4:	0f be       	out	0x3f, r0	; 63
     6b6:	cd bf       	out	0x3d, r28	; 61
     6b8:	df 91       	pop	r29
     6ba:	cf 91       	pop	r28
     6bc:	1f 91       	pop	r17
     6be:	0f 91       	pop	r16
     6c0:	08 95       	ret

000006c2 <sendSignal>:
     6c2:	61 30       	cpi	r22, 0x01	; 1
     6c4:	71 05       	cpc	r23, r1
     6c6:	69 f0       	breq	.+26     	; 0x6e2 <sendSignal+0x20>
     6c8:	63 30       	cpi	r22, 0x03	; 3
     6ca:	71 05       	cpc	r23, r1
     6cc:	19 f0       	breq	.+6      	; 0x6d4 <sendSignal+0x12>
     6ce:	80 e0       	ldi	r24, 0x00	; 0
     6d0:	90 e0       	ldi	r25, 0x00	; 0
     6d2:	08 95       	ret
     6d4:	9e b1       	in	r25, 0x0e	; 14
     6d6:	80 e4       	ldi	r24, 0x40	; 64
     6d8:	89 27       	eor	r24, r25
     6da:	8e b9       	out	0x0e, r24	; 14
     6dc:	80 e0       	ldi	r24, 0x00	; 0
     6de:	90 e0       	ldi	r25, 0x00	; 0
     6e0:	08 95       	ret
     6e2:	9e b1       	in	r25, 0x0e	; 14
     6e4:	80 e1       	ldi	r24, 0x10	; 16
     6e6:	89 27       	eor	r24, r25
     6e8:	8e b9       	out	0x0e, r24	; 14
     6ea:	80 e0       	ldi	r24, 0x00	; 0
     6ec:	90 e0       	ldi	r25, 0x00	; 0
     6ee:	08 95       	ret

000006f0 <setLow>:
     6f0:	61 30       	cpi	r22, 0x01	; 1
     6f2:	71 05       	cpc	r23, r1
     6f4:	31 f0       	breq	.+12     	; 0x702 <setLow+0x12>
     6f6:	63 30       	cpi	r22, 0x03	; 3
     6f8:	71 05       	cpc	r23, r1
     6fa:	19 f0       	breq	.+6      	; 0x702 <setLow+0x12>
     6fc:	80 e0       	ldi	r24, 0x00	; 0
     6fe:	90 e0       	ldi	r25, 0x00	; 0
     700:	08 95       	ret
     702:	8e b1       	in	r24, 0x0e	; 14
     704:	8e b9       	out	0x0e, r24	; 14
     706:	80 e0       	ldi	r24, 0x00	; 0
     708:	90 e0       	ldi	r25, 0x00	; 0
     70a:	08 95       	ret

0000070c <generator>:
     70c:	cf 92       	push	r12
     70e:	df 92       	push	r13
     710:	ef 92       	push	r14
     712:	ff 92       	push	r15
     714:	0f 93       	push	r16
     716:	1f 93       	push	r17
     718:	cf 93       	push	r28
     71a:	df 93       	push	r29
     71c:	ec 01       	movw	r28, r24
     71e:	8c 81       	ldd	r24, Y+4	; 0x04
     720:	9d 81       	ldd	r25, Y+5	; 0x05
     722:	89 2b       	or	r24, r25
     724:	81 f5       	brne	.+96     	; 0x786 <generator+0x7a>
     726:	88 89       	ldd	r24, Y+16	; 0x10
     728:	99 89       	ldd	r25, Y+17	; 0x11
     72a:	89 2b       	or	r24, r25
     72c:	d9 f4       	brne	.+54     	; 0x764 <generator+0x58>
     72e:	c1 2c       	mov	r12, r1
     730:	d1 2c       	mov	r13, r1
     732:	86 e8       	ldi	r24, 0x86	; 134
     734:	e8 2e       	mov	r14, r24
     736:	83 e0       	ldi	r24, 0x03	; 3
     738:	f8 2e       	mov	r15, r24
     73a:	8e 01       	movw	r16, r28
     73c:	20 e0       	ldi	r18, 0x00	; 0
     73e:	30 e0       	ldi	r19, 0x00	; 0
     740:	a9 01       	movw	r20, r18
     742:	69 e0       	ldi	r22, 0x09	; 9
     744:	7d e3       	ldi	r23, 0x3D	; 61
     746:	80 e0       	ldi	r24, 0x00	; 0
     748:	90 e0       	ldi	r25, 0x00	; 0
     74a:	0e 94 4e 0e 	call	0x1c9c	; 0x1c9c <async>
     74e:	80 e0       	ldi	r24, 0x00	; 0
     750:	90 e0       	ldi	r25, 0x00	; 0
     752:	df 91       	pop	r29
     754:	cf 91       	pop	r28
     756:	1f 91       	pop	r17
     758:	0f 91       	pop	r16
     75a:	ff 90       	pop	r15
     75c:	ef 90       	pop	r14
     75e:	df 90       	pop	r13
     760:	cf 90       	pop	r12
     762:	08 95       	ret
     764:	ca 84       	ldd	r12, Y+10	; 0x0a
     766:	db 84       	ldd	r13, Y+11	; 0x0b
     768:	0c 85       	ldd	r16, Y+12	; 0x0c
     76a:	1d 85       	ldd	r17, Y+13	; 0x0d
     76c:	98 e7       	ldi	r25, 0x78	; 120
     76e:	e9 2e       	mov	r14, r25
     770:	93 e0       	ldi	r25, 0x03	; 3
     772:	f9 2e       	mov	r15, r25
     774:	20 e0       	ldi	r18, 0x00	; 0
     776:	30 e0       	ldi	r19, 0x00	; 0
     778:	a9 01       	movw	r20, r18
     77a:	60 e0       	ldi	r22, 0x00	; 0
     77c:	70 e0       	ldi	r23, 0x00	; 0
     77e:	cb 01       	movw	r24, r22
     780:	0e 94 4e 0e 	call	0x1c9c	; 0x1c9c <async>
     784:	d4 cf       	rjmp	.-88     	; 0x72e <generator+0x22>
     786:	81 e0       	ldi	r24, 0x01	; 1
     788:	90 e0       	ldi	r25, 0x00	; 0
     78a:	28 89       	ldd	r18, Y+16	; 0x10
     78c:	39 89       	ldd	r19, Y+17	; 0x11
     78e:	23 2b       	or	r18, r19
     790:	a1 f5       	brne	.+104    	; 0x7fa <generator+0xee>
     792:	99 8b       	std	Y+17, r25	; 0x11
     794:	88 8b       	std	Y+16, r24	; 0x10
     796:	ca 84       	ldd	r12, Y+10	; 0x0a
     798:	db 84       	ldd	r13, Y+11	; 0x0b
     79a:	0c 85       	ldd	r16, Y+12	; 0x0c
     79c:	1d 85       	ldd	r17, Y+13	; 0x0d
     79e:	41 e6       	ldi	r20, 0x61	; 97
     7a0:	e4 2e       	mov	r14, r20
     7a2:	43 e0       	ldi	r20, 0x03	; 3
     7a4:	f4 2e       	mov	r15, r20
     7a6:	20 e0       	ldi	r18, 0x00	; 0
     7a8:	30 e0       	ldi	r19, 0x00	; 0
     7aa:	a9 01       	movw	r20, r18
     7ac:	60 e0       	ldi	r22, 0x00	; 0
     7ae:	70 e0       	ldi	r23, 0x00	; 0
     7b0:	cb 01       	movw	r24, r22
     7b2:	0e 94 4e 0e 	call	0x1c9c	; 0x1c9c <async>
     7b6:	6c 81       	ldd	r22, Y+4	; 0x04
     7b8:	7d 81       	ldd	r23, Y+5	; 0x05
     7ba:	84 ef       	ldi	r24, 0xF4	; 244
     7bc:	91 e0       	ldi	r25, 0x01	; 1
     7be:	0e 94 f1 10 	call	0x21e2	; 0x21e2 <__divmodhi4>
     7c2:	2d e7       	ldi	r18, 0x7D	; 125
     7c4:	30 e0       	ldi	r19, 0x00	; 0
     7c6:	db 01       	movw	r26, r22
     7c8:	0e 94 05 11 	call	0x220a	; 0x220a <__usmulhisi3>
     7cc:	97 fd       	sbrc	r25, 7
     7ce:	18 c0       	rjmp	.+48     	; 0x800 <generator+0xf4>
     7d0:	95 95       	asr	r25
     7d2:	87 95       	ror	r24
     7d4:	77 95       	ror	r23
     7d6:	67 95       	ror	r22
     7d8:	95 95       	asr	r25
     7da:	87 95       	ror	r24
     7dc:	77 95       	ror	r23
     7de:	67 95       	ror	r22
     7e0:	c1 2c       	mov	r12, r1
     7e2:	d1 2c       	mov	r13, r1
     7e4:	36 e8       	ldi	r19, 0x86	; 134
     7e6:	e3 2e       	mov	r14, r19
     7e8:	33 e0       	ldi	r19, 0x03	; 3
     7ea:	f3 2e       	mov	r15, r19
     7ec:	8e 01       	movw	r16, r28
     7ee:	20 e0       	ldi	r18, 0x00	; 0
     7f0:	30 e0       	ldi	r19, 0x00	; 0
     7f2:	a9 01       	movw	r20, r18
     7f4:	0e 94 4e 0e 	call	0x1c9c	; 0x1c9c <async>
     7f8:	aa cf       	rjmp	.-172    	; 0x74e <generator+0x42>
     7fa:	80 e0       	ldi	r24, 0x00	; 0
     7fc:	90 e0       	ldi	r25, 0x00	; 0
     7fe:	c9 cf       	rjmp	.-110    	; 0x792 <generator+0x86>
     800:	6d 5f       	subi	r22, 0xFD	; 253
     802:	7f 4f       	sbci	r23, 0xFF	; 255
     804:	8f 4f       	sbci	r24, 0xFF	; 255
     806:	9f 4f       	sbci	r25, 0xFF	; 255
     808:	e3 cf       	rjmp	.-58     	; 0x7d0 <generator+0xc4>

0000080a <increase>:
     80a:	cf 92       	push	r12
     80c:	df 92       	push	r13
     80e:	ef 92       	push	r14
     810:	ff 92       	push	r15
     812:	0f 93       	push	r16
     814:	1f 93       	push	r17
     816:	fc 01       	movw	r30, r24
     818:	c4 80       	ldd	r12, Z+4	; 0x04
     81a:	d5 80       	ldd	r13, Z+5	; 0x05
     81c:	f3 e6       	ldi	r31, 0x63	; 99
     81e:	cf 16       	cp	r12, r31
     820:	d1 04       	cpc	r13, r1
     822:	dc f4       	brge	.+54     	; 0x85a <increase+0x50>
     824:	fc 01       	movw	r30, r24
     826:	2f ef       	ldi	r18, 0xFF	; 255
     828:	c2 1a       	sub	r12, r18
     82a:	d2 0a       	sbc	r13, r18
     82c:	d5 82       	std	Z+5, r13	; 0x05
     82e:	c4 82       	std	Z+4, r12	; 0x04
     830:	d0 84       	ldd	r13, Z+8	; 0x08
     832:	d0 fa       	bst	r13, 0
     834:	c7 f8       	bld	r12, 7
     836:	8d 2d       	mov	r24, r13
     838:	86 95       	lsr	r24
     83a:	83 70       	andi	r24, 0x03	; 3
     83c:	d8 2e       	mov	r13, r24
     83e:	06 85       	ldd	r16, Z+14	; 0x0e
     840:	17 85       	ldd	r17, Z+15	; 0x0f
     842:	8e e9       	ldi	r24, 0x9E	; 158
     844:	e8 2e       	mov	r14, r24
     846:	82 e0       	ldi	r24, 0x02	; 2
     848:	f8 2e       	mov	r15, r24
     84a:	20 e0       	ldi	r18, 0x00	; 0
     84c:	30 e0       	ldi	r19, 0x00	; 0
     84e:	a9 01       	movw	r20, r18
     850:	60 e0       	ldi	r22, 0x00	; 0
     852:	70 e0       	ldi	r23, 0x00	; 0
     854:	cb 01       	movw	r24, r22
     856:	0e 94 4e 0e 	call	0x1c9c	; 0x1c9c <async>
     85a:	80 e0       	ldi	r24, 0x00	; 0
     85c:	90 e0       	ldi	r25, 0x00	; 0
     85e:	1f 91       	pop	r17
     860:	0f 91       	pop	r16
     862:	ff 90       	pop	r15
     864:	ef 90       	pop	r14
     866:	df 90       	pop	r13
     868:	cf 90       	pop	r12
     86a:	08 95       	ret

0000086c <decrease>:
     86c:	cf 92       	push	r12
     86e:	df 92       	push	r13
     870:	ef 92       	push	r14
     872:	ff 92       	push	r15
     874:	0f 93       	push	r16
     876:	1f 93       	push	r17
     878:	fc 01       	movw	r30, r24
     87a:	c4 80       	ldd	r12, Z+4	; 0x04
     87c:	d5 80       	ldd	r13, Z+5	; 0x05
     87e:	1c 14       	cp	r1, r12
     880:	1d 04       	cpc	r1, r13
     882:	2c f4       	brge	.+10     	; 0x88e <decrease+0x22>
     884:	81 e0       	ldi	r24, 0x01	; 1
     886:	c8 1a       	sub	r12, r24
     888:	d1 08       	sbc	r13, r1
     88a:	d5 82       	std	Z+5, r13	; 0x05
     88c:	c4 82       	std	Z+4, r12	; 0x04
     88e:	d0 84       	ldd	r13, Z+8	; 0x08
     890:	d0 fa       	bst	r13, 0
     892:	c7 f8       	bld	r12, 7
     894:	8d 2d       	mov	r24, r13
     896:	86 95       	lsr	r24
     898:	83 70       	andi	r24, 0x03	; 3
     89a:	d8 2e       	mov	r13, r24
     89c:	06 85       	ldd	r16, Z+14	; 0x0e
     89e:	17 85       	ldd	r17, Z+15	; 0x0f
     8a0:	8e e9       	ldi	r24, 0x9E	; 158
     8a2:	e8 2e       	mov	r14, r24
     8a4:	82 e0       	ldi	r24, 0x02	; 2
     8a6:	f8 2e       	mov	r15, r24
     8a8:	20 e0       	ldi	r18, 0x00	; 0
     8aa:	30 e0       	ldi	r19, 0x00	; 0
     8ac:	a9 01       	movw	r20, r18
     8ae:	60 e0       	ldi	r22, 0x00	; 0
     8b0:	70 e0       	ldi	r23, 0x00	; 0
     8b2:	cb 01       	movw	r24, r22
     8b4:	0e 94 4e 0e 	call	0x1c9c	; 0x1c9c <async>
     8b8:	80 e0       	ldi	r24, 0x00	; 0
     8ba:	90 e0       	ldi	r25, 0x00	; 0
     8bc:	1f 91       	pop	r17
     8be:	0f 91       	pop	r16
     8c0:	ff 90       	pop	r15
     8c2:	ef 90       	pop	r14
     8c4:	df 90       	pop	r13
     8c6:	cf 90       	pop	r12
     8c8:	08 95       	ret

000008ca <reset>:
     8ca:	cf 92       	push	r12
     8cc:	df 92       	push	r13
     8ce:	ef 92       	push	r14
     8d0:	ff 92       	push	r15
     8d2:	0f 93       	push	r16
     8d4:	1f 93       	push	r17
     8d6:	fc 01       	movw	r30, r24
     8d8:	84 81       	ldd	r24, Z+4	; 0x04
     8da:	95 81       	ldd	r25, Z+5	; 0x05
     8dc:	00 97       	sbiw	r24, 0x00	; 0
     8de:	39 f5       	brne	.+78     	; 0x92e <reset+0x64>
     8e0:	96 81       	ldd	r25, Z+6	; 0x06
     8e2:	87 81       	ldd	r24, Z+7	; 0x07
     8e4:	94 83       	std	Z+4, r25	; 0x04
     8e6:	85 83       	std	Z+5, r24	; 0x05
     8e8:	9f 77       	andi	r25, 0x7F	; 127
     8ea:	d0 84       	ldd	r13, Z+8	; 0x08
     8ec:	8d 2d       	mov	r24, r13
     8ee:	87 95       	ror	r24
     8f0:	88 27       	eor	r24, r24
     8f2:	87 95       	ror	r24
     8f4:	c9 2e       	mov	r12, r25
     8f6:	c8 2a       	or	r12, r24
     8f8:	8d 2d       	mov	r24, r13
     8fa:	86 95       	lsr	r24
     8fc:	83 70       	andi	r24, 0x03	; 3
     8fe:	d8 2e       	mov	r13, r24
     900:	06 85       	ldd	r16, Z+14	; 0x0e
     902:	17 85       	ldd	r17, Z+15	; 0x0f
     904:	8e e9       	ldi	r24, 0x9E	; 158
     906:	e8 2e       	mov	r14, r24
     908:	82 e0       	ldi	r24, 0x02	; 2
     90a:	f8 2e       	mov	r15, r24
     90c:	20 e0       	ldi	r18, 0x00	; 0
     90e:	30 e0       	ldi	r19, 0x00	; 0
     910:	a9 01       	movw	r20, r18
     912:	60 e0       	ldi	r22, 0x00	; 0
     914:	70 e0       	ldi	r23, 0x00	; 0
     916:	cb 01       	movw	r24, r22
     918:	0e 94 4e 0e 	call	0x1c9c	; 0x1c9c <async>
     91c:	80 e0       	ldi	r24, 0x00	; 0
     91e:	90 e0       	ldi	r25, 0x00	; 0
     920:	1f 91       	pop	r17
     922:	0f 91       	pop	r16
     924:	ff 90       	pop	r15
     926:	ef 90       	pop	r14
     928:	df 90       	pop	r13
     92a:	cf 90       	pop	r12
     92c:	08 95       	ret
     92e:	97 83       	std	Z+7, r25	; 0x07
     930:	86 83       	std	Z+6, r24	; 0x06
     932:	15 82       	std	Z+5, r1	; 0x05
     934:	14 82       	std	Z+4, r1	; 0x04
     936:	90 e0       	ldi	r25, 0x00	; 0
     938:	d8 cf       	rjmp	.-80     	; 0x8ea <reset+0x20>

0000093a <initialize>:
     93a:	cf 93       	push	r28
     93c:	df 93       	push	r29
     93e:	00 d0       	rcall	.+0      	; 0x940 <initialize+0x6>
     940:	00 d0       	rcall	.+0      	; 0x942 <initialize+0x8>
     942:	cd b7       	in	r28, 0x3d	; 61
     944:	de b7       	in	r29, 0x3e	; 62
     946:	8b e2       	ldi	r24, 0x2B	; 43
     948:	92 e0       	ldi	r25, 0x02	; 2
     94a:	2b e0       	ldi	r18, 0x0B	; 11
     94c:	33 e0       	ldi	r19, 0x03	; 3
     94e:	fc 01       	movw	r30, r24
     950:	70 97       	sbiw	r30, 0x10	; 16
     952:	91 83       	std	Z+1, r25	; 0x01
     954:	80 83       	st	Z, r24
     956:	40 96       	adiw	r24, 0x10	; 16
     958:	82 17       	cp	r24, r18
     95a:	93 07       	cpc	r25, r19
     95c:	c1 f7       	brne	.-16     	; 0x94e <initialize+0x14>
     95e:	10 92 fc 02 	sts	0x02FC, r1	; 0x8002fc <messages+0xe1>
     962:	10 92 fb 02 	sts	0x02FB, r1	; 0x8002fb <messages+0xe0>
     966:	e6 e6       	ldi	r30, 0x66	; 102
     968:	f1 e0       	ldi	r31, 0x01	; 1
     96a:	83 e8       	ldi	r24, 0x83	; 131
     96c:	91 e0       	ldi	r25, 0x01	; 1
     96e:	91 83       	std	Z+1, r25	; 0x01
     970:	80 83       	st	Z, r24
     972:	80 ea       	ldi	r24, 0xA0	; 160
     974:	91 e0       	ldi	r25, 0x01	; 1
     976:	96 8f       	std	Z+30, r25	; 0x1e
     978:	85 8f       	std	Z+29, r24	; 0x1d
     97a:	ad eb       	ldi	r26, 0xBD	; 189
     97c:	b1 e0       	ldi	r27, 0x01	; 1
     97e:	b3 af       	std	Z+59, r27	; 0x3b
     980:	a2 af       	std	Z+58, r26	; 0x3a
     982:	1d 92       	st	X+, r1
     984:	1c 92       	st	X, r1
     986:	fa 83       	std	Y+2, r31	; 0x02
     988:	e9 83       	std	Y+1, r30	; 0x01
     98a:	e7 e6       	ldi	r30, 0x67	; 103
     98c:	f3 e0       	ldi	r31, 0x03	; 3
     98e:	fc 83       	std	Y+4, r31	; 0x04
     990:	eb 83       	std	Y+3, r30	; 0x03
     992:	89 81       	ldd	r24, Y+1	; 0x01
     994:	9a 81       	ldd	r25, Y+2	; 0x02
     996:	06 96       	adiw	r24, 0x06	; 6
     998:	0e 94 2f 11 	call	0x225e	; 0x225e <setjmp>
     99c:	8b 81       	ldd	r24, Y+3	; 0x03
     99e:	9c 81       	ldd	r25, Y+4	; 0x04
     9a0:	e9 81       	ldd	r30, Y+1	; 0x01
     9a2:	fa 81       	ldd	r31, Y+2	; 0x02
     9a4:	97 8b       	std	Z+23, r25	; 0x17
     9a6:	86 8b       	std	Z+22, r24	; 0x16
     9a8:	91 8f       	std	Z+25, r25	; 0x19
     9aa:	80 8f       	std	Z+24, r24	; 0x18
     9ac:	80 e4       	ldi	r24, 0x40	; 64
     9ae:	90 e1       	ldi	r25, 0x10	; 16
     9b0:	94 8f       	std	Z+28, r25	; 0x1c
     9b2:	83 8f       	std	Z+27, r24	; 0x1b
     9b4:	15 82       	std	Z+5, r1	; 0x05
     9b6:	14 82       	std	Z+4, r1	; 0x04
     9b8:	7d 96       	adiw	r30, 0x1d	; 29
     9ba:	fa 83       	std	Y+2, r31	; 0x02
     9bc:	e9 83       	std	Y+1, r30	; 0x01
     9be:	eb 81       	ldd	r30, Y+3	; 0x03
     9c0:	fc 81       	ldd	r31, Y+4	; 0x04
     9c2:	e0 5a       	subi	r30, 0xA0	; 160
     9c4:	ff 4f       	sbci	r31, 0xFF	; 255
     9c6:	fc 83       	std	Y+4, r31	; 0x04
     9c8:	eb 83       	std	Y+3, r30	; 0x03
     9ca:	89 81       	ldd	r24, Y+1	; 0x01
     9cc:	9a 81       	ldd	r25, Y+2	; 0x02
     9ce:	8a 5d       	subi	r24, 0xDA	; 218
     9d0:	91 40       	sbci	r25, 0x01	; 1
     9d2:	f9 f6       	brne	.-66     	; 0x992 <initialize+0x58>
     9d4:	ee ef       	ldi	r30, 0xFE	; 254
     9d6:	f1 e0       	ldi	r31, 0x01	; 1
     9d8:	11 82       	std	Z+1, r1	; 0x01
     9da:	10 82       	st	Z, r1
     9dc:	15 82       	std	Z+5, r1	; 0x05
     9de:	14 82       	std	Z+4, r1	; 0x04
     9e0:	13 82       	std	Z+3, r1	; 0x03
     9e2:	12 82       	std	Z+2, r1	; 0x02
     9e4:	e1 e6       	ldi	r30, 0x61	; 97
     9e6:	f0 e0       	ldi	r31, 0x00	; 0
     9e8:	80 e8       	ldi	r24, 0x80	; 128
     9ea:	80 83       	st	Z, r24
     9ec:	10 82       	st	Z, r1
     9ee:	10 92 85 00 	sts	0x0085, r1	; 0x800085 <__TEXT_REGION_LENGTH__+0x7fc085>
     9f2:	10 92 84 00 	sts	0x0084, r1	; 0x800084 <__TEXT_REGION_LENGTH__+0x7fc084>
     9f6:	84 e0       	ldi	r24, 0x04	; 4
     9f8:	80 93 81 00 	sts	0x0081, r24	; 0x800081 <__TEXT_REGION_LENGTH__+0x7fc081>
     9fc:	81 e0       	ldi	r24, 0x01	; 1
     9fe:	80 93 6f 00 	sts	0x006F, r24	; 0x80006f <__TEXT_REGION_LENGTH__+0x7fc06f>
     a02:	0f 90       	pop	r0
     a04:	0f 90       	pop	r0
     a06:	0f 90       	pop	r0
     a08:	0f 90       	pop	r0
     a0a:	df 91       	pop	r29
     a0c:	cf 91       	pop	r28
     a0e:	08 95       	ret

00000a10 <dispatch>:
     a10:	cf 93       	push	r28
     a12:	df 93       	push	r29
     a14:	00 d0       	rcall	.+0      	; 0xa16 <dispatch+0x6>
     a16:	cd b7       	in	r28, 0x3d	; 61
     a18:	de b7       	in	r29, 0x3e	; 62
     a1a:	9a 83       	std	Y+2, r25	; 0x02
     a1c:	89 83       	std	Y+1, r24	; 0x01
     a1e:	80 91 00 01 	lds	r24, 0x0100	; 0x800100 <__DATA_REGION_ORIGIN__>
     a22:	90 91 01 01 	lds	r25, 0x0101	; 0x800101 <__DATA_REGION_ORIGIN__+0x1>
     a26:	06 96       	adiw	r24, 0x06	; 6
     a28:	0e 94 2f 11 	call	0x225e	; 0x225e <setjmp>
     a2c:	89 2b       	or	r24, r25
     a2e:	29 f0       	breq	.+10     	; 0xa3a <dispatch+0x2a>
     a30:	0f 90       	pop	r0
     a32:	0f 90       	pop	r0
     a34:	df 91       	pop	r29
     a36:	cf 91       	pop	r28
     a38:	08 95       	ret
     a3a:	89 81       	ldd	r24, Y+1	; 0x01
     a3c:	9a 81       	ldd	r25, Y+2	; 0x02
     a3e:	90 93 01 01 	sts	0x0101, r25	; 0x800101 <__DATA_REGION_ORIGIN__+0x1>
     a42:	80 93 00 01 	sts	0x0100, r24	; 0x800100 <__DATA_REGION_ORIGIN__>
     a46:	61 e0       	ldi	r22, 0x01	; 1
     a48:	70 e0       	ldi	r23, 0x00	; 0
     a4a:	06 96       	adiw	r24, 0x06	; 6
     a4c:	0e 94 4f 11 	call	0x229e	; 0x229e <longjmp>

00000a50 <schedule>:
     a50:	0f 93       	push	r16
     a52:	1f 93       	push	r17
     a54:	cf 93       	push	r28
     a56:	df 93       	push	r29
     a58:	e0 91 40 01 	lds	r30, 0x0140	; 0x800140 <msgQ>
     a5c:	f0 91 41 01 	lds	r31, 0x0141	; 0x800141 <msgQ+0x1>
     a60:	30 97       	sbiw	r30, 0x00	; 0
     a62:	f1 f0       	breq	.+60     	; 0xaa0 <schedule+0x50>
     a64:	80 91 04 01 	lds	r24, 0x0104	; 0x800104 <threadPool>
     a68:	90 91 05 01 	lds	r25, 0x0105	; 0x800105 <threadPool+0x1>
     a6c:	00 97       	sbiw	r24, 0x00	; 0
     a6e:	c1 f0       	breq	.+48     	; 0xaa0 <schedule+0x50>
     a70:	c0 91 02 01 	lds	r28, 0x0102	; 0x800102 <activeStack>
     a74:	d0 91 03 01 	lds	r29, 0x0103	; 0x800103 <activeStack+0x1>
     a78:	aa 81       	ldd	r26, Y+2	; 0x02
     a7a:	bb 81       	ldd	r27, Y+3	; 0x03
     a7c:	10 97       	sbiw	r26, 0x00	; 0
     a7e:	a9 f0       	breq	.+42     	; 0xaaa <schedule+0x5a>
     a80:	46 81       	ldd	r20, Z+6	; 0x06
     a82:	57 81       	ldd	r21, Z+7	; 0x07
     a84:	60 85       	ldd	r22, Z+8	; 0x08
     a86:	71 85       	ldd	r23, Z+9	; 0x09
     a88:	16 96       	adiw	r26, 0x06	; 6
     a8a:	0d 91       	ld	r16, X+
     a8c:	1d 91       	ld	r17, X+
     a8e:	2d 91       	ld	r18, X+
     a90:	3c 91       	ld	r19, X
     a92:	19 97       	sbiw	r26, 0x09	; 9
     a94:	40 1b       	sub	r20, r16
     a96:	51 0b       	sbc	r21, r17
     a98:	62 0b       	sbc	r22, r18
     a9a:	73 0b       	sbc	r23, r19
     a9c:	77 fd       	sbrc	r23, 7
     a9e:	05 c0       	rjmp	.+10     	; 0xaaa <schedule+0x5a>
     aa0:	df 91       	pop	r29
     aa2:	cf 91       	pop	r28
     aa4:	1f 91       	pop	r17
     aa6:	0f 91       	pop	r16
     aa8:	08 95       	ret
     aaa:	fc 01       	movw	r30, r24
     aac:	20 81       	ld	r18, Z
     aae:	31 81       	ldd	r19, Z+1	; 0x01
     ab0:	30 93 05 01 	sts	0x0105, r19	; 0x800105 <threadPool+0x1>
     ab4:	20 93 04 01 	sts	0x0104, r18	; 0x800104 <threadPool>
     ab8:	d1 83       	std	Z+1, r29	; 0x01
     aba:	c0 83       	st	Z, r28
     abc:	90 93 03 01 	sts	0x0103, r25	; 0x800103 <activeStack+0x1>
     ac0:	80 93 02 01 	sts	0x0102, r24	; 0x800102 <activeStack>
     ac4:	df 91       	pop	r29
     ac6:	cf 91       	pop	r28
     ac8:	1f 91       	pop	r17
     aca:	0f 91       	pop	r16
     acc:	0c 94 08 05 	jmp	0xa10	; 0xa10 <dispatch>

00000ad0 <dequeue.part.0>:
     ad0:	8f ef       	ldi	r24, 0xFF	; 255
     ad2:	80 93 ec 00 	sts	0x00EC, r24	; 0x8000ec <__TEXT_REGION_LENGTH__+0x7fc0ec>
     ad6:	80 93 ed 00 	sts	0x00ED, r24	; 0x8000ed <__TEXT_REGION_LENGTH__+0x7fc0ed>
     ada:	80 93 ee 00 	sts	0x00EE, r24	; 0x8000ee <__TEXT_REGION_LENGTH__+0x7fc0ee>
     ade:	81 e0       	ldi	r24, 0x01	; 1
     ae0:	83 bf       	out	0x33, r24	; 51
     ae2:	88 95       	sleep
     ae4:	fd cf       	rjmp	.-6      	; 0xae0 <dequeue.part.0+0x10>

00000ae6 <__vector_1>:
     ae6:	1f 92       	push	r1
     ae8:	0f 92       	push	r0
     aea:	0f b6       	in	r0, 0x3f	; 63
     aec:	0f 92       	push	r0
     aee:	11 24       	eor	r1, r1
     af0:	2f 93       	push	r18
     af2:	3f 93       	push	r19
     af4:	4f 93       	push	r20
     af6:	5f 93       	push	r21
     af8:	6f 93       	push	r22
     afa:	7f 93       	push	r23
     afc:	8f 93       	push	r24
     afe:	9f 93       	push	r25
     b00:	af 93       	push	r26
     b02:	bf 93       	push	r27
     b04:	ef 93       	push	r30
     b06:	ff 93       	push	r31
     b08:	20 91 38 01 	lds	r18, 0x0138	; 0x800138 <__data_end>
     b0c:	30 91 39 01 	lds	r19, 0x0139	; 0x800139 <__data_end+0x1>
     b10:	40 91 84 00 	lds	r20, 0x0084	; 0x800084 <__TEXT_REGION_LENGTH__+0x7fc084>
     b14:	50 91 85 00 	lds	r21, 0x0085	; 0x800085 <__TEXT_REGION_LENGTH__+0x7fc085>
     b18:	c9 01       	movw	r24, r18
     b1a:	03 2e       	mov	r0, r19
     b1c:	00 0c       	add	r0, r0
     b1e:	aa 0b       	sbc	r26, r26
     b20:	bb 0b       	sbc	r27, r27
     b22:	dc 01       	movw	r26, r24
     b24:	99 27       	eor	r25, r25
     b26:	88 27       	eor	r24, r24
     b28:	60 e0       	ldi	r22, 0x00	; 0
     b2a:	70 e0       	ldi	r23, 0x00	; 0
     b2c:	84 2b       	or	r24, r20
     b2e:	95 2b       	or	r25, r21
     b30:	a6 2b       	or	r26, r22
     b32:	b7 2b       	or	r27, r23
     b34:	80 93 3a 01 	sts	0x013A, r24	; 0x80013a <timestamp>
     b38:	90 93 3b 01 	sts	0x013B, r25	; 0x80013b <timestamp+0x1>
     b3c:	a0 93 3c 01 	sts	0x013C, r26	; 0x80013c <timestamp+0x2>
     b40:	b0 93 3d 01 	sts	0x013D, r27	; 0x80013d <timestamp+0x3>
     b44:	b0 9b       	sbis	0x16, 0	; 22
     b46:	1b c0       	rjmp	.+54     	; 0xb7e <__vector_1+0x98>
     b48:	40 91 84 00 	lds	r20, 0x0084	; 0x800084 <__TEXT_REGION_LENGTH__+0x7fc084>
     b4c:	50 91 85 00 	lds	r21, 0x0085	; 0x800085 <__TEXT_REGION_LENGTH__+0x7fc085>
     b50:	c9 01       	movw	r24, r18
     b52:	01 96       	adiw	r24, 0x01	; 1
     b54:	09 2e       	mov	r0, r25
     b56:	00 0c       	add	r0, r0
     b58:	aa 0b       	sbc	r26, r26
     b5a:	bb 0b       	sbc	r27, r27
     b5c:	dc 01       	movw	r26, r24
     b5e:	99 27       	eor	r25, r25
     b60:	88 27       	eor	r24, r24
     b62:	60 e0       	ldi	r22, 0x00	; 0
     b64:	70 e0       	ldi	r23, 0x00	; 0
     b66:	84 2b       	or	r24, r20
     b68:	95 2b       	or	r25, r21
     b6a:	a6 2b       	or	r26, r22
     b6c:	b7 2b       	or	r27, r23
     b6e:	80 93 3a 01 	sts	0x013A, r24	; 0x80013a <timestamp>
     b72:	90 93 3b 01 	sts	0x013B, r25	; 0x80013b <timestamp+0x1>
     b76:	a0 93 3c 01 	sts	0x013C, r26	; 0x80013c <timestamp+0x2>
     b7a:	b0 93 3d 01 	sts	0x013D, r27	; 0x80013d <timestamp+0x3>
     b7e:	e0 91 da 01 	lds	r30, 0x01DA	; 0x8001da <mtable>
     b82:	f0 91 db 01 	lds	r31, 0x01DB	; 0x8001db <mtable+0x1>
     b86:	30 97       	sbiw	r30, 0x00	; 0
     b88:	39 f0       	breq	.+14     	; 0xb98 <__vector_1+0xb2>
     b8a:	60 e0       	ldi	r22, 0x00	; 0
     b8c:	70 e0       	ldi	r23, 0x00	; 0
     b8e:	80 91 42 01 	lds	r24, 0x0142	; 0x800142 <otable>
     b92:	90 91 43 01 	lds	r25, 0x0143	; 0x800143 <otable+0x1>
     b96:	09 95       	icall
     b98:	0e 94 28 05 	call	0xa50	; 0xa50 <schedule>
     b9c:	ff 91       	pop	r31
     b9e:	ef 91       	pop	r30
     ba0:	bf 91       	pop	r27
     ba2:	af 91       	pop	r26
     ba4:	9f 91       	pop	r25
     ba6:	8f 91       	pop	r24
     ba8:	7f 91       	pop	r23
     baa:	6f 91       	pop	r22
     bac:	5f 91       	pop	r21
     bae:	4f 91       	pop	r20
     bb0:	3f 91       	pop	r19
     bb2:	2f 91       	pop	r18
     bb4:	0f 90       	pop	r0
     bb6:	0f be       	out	0x3f, r0	; 63
     bb8:	0f 90       	pop	r0
     bba:	1f 90       	pop	r1
     bbc:	18 95       	reti

00000bbe <__vector_2>:
     bbe:	1f 92       	push	r1
     bc0:	0f 92       	push	r0
     bc2:	0f b6       	in	r0, 0x3f	; 63
     bc4:	0f 92       	push	r0
     bc6:	11 24       	eor	r1, r1
     bc8:	2f 93       	push	r18
     bca:	3f 93       	push	r19
     bcc:	4f 93       	push	r20
     bce:	5f 93       	push	r21
     bd0:	6f 93       	push	r22
     bd2:	7f 93       	push	r23
     bd4:	8f 93       	push	r24
     bd6:	9f 93       	push	r25
     bd8:	af 93       	push	r26
     bda:	bf 93       	push	r27
     bdc:	ef 93       	push	r30
     bde:	ff 93       	push	r31
     be0:	20 91 38 01 	lds	r18, 0x0138	; 0x800138 <__data_end>
     be4:	30 91 39 01 	lds	r19, 0x0139	; 0x800139 <__data_end+0x1>
     be8:	40 91 84 00 	lds	r20, 0x0084	; 0x800084 <__TEXT_REGION_LENGTH__+0x7fc084>
     bec:	50 91 85 00 	lds	r21, 0x0085	; 0x800085 <__TEXT_REGION_LENGTH__+0x7fc085>
     bf0:	c9 01       	movw	r24, r18
     bf2:	03 2e       	mov	r0, r19
     bf4:	00 0c       	add	r0, r0
     bf6:	aa 0b       	sbc	r26, r26
     bf8:	bb 0b       	sbc	r27, r27
     bfa:	dc 01       	movw	r26, r24
     bfc:	99 27       	eor	r25, r25
     bfe:	88 27       	eor	r24, r24
     c00:	60 e0       	ldi	r22, 0x00	; 0
     c02:	70 e0       	ldi	r23, 0x00	; 0
     c04:	84 2b       	or	r24, r20
     c06:	95 2b       	or	r25, r21
     c08:	a6 2b       	or	r26, r22
     c0a:	b7 2b       	or	r27, r23
     c0c:	80 93 3a 01 	sts	0x013A, r24	; 0x80013a <timestamp>
     c10:	90 93 3b 01 	sts	0x013B, r25	; 0x80013b <timestamp+0x1>
     c14:	a0 93 3c 01 	sts	0x013C, r26	; 0x80013c <timestamp+0x2>
     c18:	b0 93 3d 01 	sts	0x013D, r27	; 0x80013d <timestamp+0x3>
     c1c:	b0 9b       	sbis	0x16, 0	; 22
     c1e:	1b c0       	rjmp	.+54     	; 0xc56 <__vector_2+0x98>
     c20:	40 91 84 00 	lds	r20, 0x0084	; 0x800084 <__TEXT_REGION_LENGTH__+0x7fc084>
     c24:	50 91 85 00 	lds	r21, 0x0085	; 0x800085 <__TEXT_REGION_LENGTH__+0x7fc085>
     c28:	c9 01       	movw	r24, r18
     c2a:	01 96       	adiw	r24, 0x01	; 1
     c2c:	09 2e       	mov	r0, r25
     c2e:	00 0c       	add	r0, r0
     c30:	aa 0b       	sbc	r26, r26
     c32:	bb 0b       	sbc	r27, r27
     c34:	dc 01       	movw	r26, r24
     c36:	99 27       	eor	r25, r25
     c38:	88 27       	eor	r24, r24
     c3a:	60 e0       	ldi	r22, 0x00	; 0
     c3c:	70 e0       	ldi	r23, 0x00	; 0
     c3e:	84 2b       	or	r24, r20
     c40:	95 2b       	or	r25, r21
     c42:	a6 2b       	or	r26, r22
     c44:	b7 2b       	or	r27, r23
     c46:	80 93 3a 01 	sts	0x013A, r24	; 0x80013a <timestamp>
     c4a:	90 93 3b 01 	sts	0x013B, r25	; 0x80013b <timestamp+0x1>
     c4e:	a0 93 3c 01 	sts	0x013C, r26	; 0x80013c <timestamp+0x2>
     c52:	b0 93 3d 01 	sts	0x013D, r27	; 0x80013d <timestamp+0x3>
     c56:	e0 91 dc 01 	lds	r30, 0x01DC	; 0x8001dc <mtable+0x2>
     c5a:	f0 91 dd 01 	lds	r31, 0x01DD	; 0x8001dd <mtable+0x3>
     c5e:	30 97       	sbiw	r30, 0x00	; 0
     c60:	39 f0       	breq	.+14     	; 0xc70 <__vector_2+0xb2>
     c62:	61 e0       	ldi	r22, 0x01	; 1
     c64:	70 e0       	ldi	r23, 0x00	; 0
     c66:	80 91 44 01 	lds	r24, 0x0144	; 0x800144 <otable+0x2>
     c6a:	90 91 45 01 	lds	r25, 0x0145	; 0x800145 <otable+0x3>
     c6e:	09 95       	icall
     c70:	0e 94 28 05 	call	0xa50	; 0xa50 <schedule>
     c74:	ff 91       	pop	r31
     c76:	ef 91       	pop	r30
     c78:	bf 91       	pop	r27
     c7a:	af 91       	pop	r26
     c7c:	9f 91       	pop	r25
     c7e:	8f 91       	pop	r24
     c80:	7f 91       	pop	r23
     c82:	6f 91       	pop	r22
     c84:	5f 91       	pop	r21
     c86:	4f 91       	pop	r20
     c88:	3f 91       	pop	r19
     c8a:	2f 91       	pop	r18
     c8c:	0f 90       	pop	r0
     c8e:	0f be       	out	0x3f, r0	; 63
     c90:	0f 90       	pop	r0
     c92:	1f 90       	pop	r1
     c94:	18 95       	reti

00000c96 <__vector_3>:
     c96:	1f 92       	push	r1
     c98:	0f 92       	push	r0
     c9a:	0f b6       	in	r0, 0x3f	; 63
     c9c:	0f 92       	push	r0
     c9e:	11 24       	eor	r1, r1
     ca0:	2f 93       	push	r18
     ca2:	3f 93       	push	r19
     ca4:	4f 93       	push	r20
     ca6:	5f 93       	push	r21
     ca8:	6f 93       	push	r22
     caa:	7f 93       	push	r23
     cac:	8f 93       	push	r24
     cae:	9f 93       	push	r25
     cb0:	af 93       	push	r26
     cb2:	bf 93       	push	r27
     cb4:	ef 93       	push	r30
     cb6:	ff 93       	push	r31
     cb8:	20 91 38 01 	lds	r18, 0x0138	; 0x800138 <__data_end>
     cbc:	30 91 39 01 	lds	r19, 0x0139	; 0x800139 <__data_end+0x1>
     cc0:	40 91 84 00 	lds	r20, 0x0084	; 0x800084 <__TEXT_REGION_LENGTH__+0x7fc084>
     cc4:	50 91 85 00 	lds	r21, 0x0085	; 0x800085 <__TEXT_REGION_LENGTH__+0x7fc085>
     cc8:	c9 01       	movw	r24, r18
     cca:	03 2e       	mov	r0, r19
     ccc:	00 0c       	add	r0, r0
     cce:	aa 0b       	sbc	r26, r26
     cd0:	bb 0b       	sbc	r27, r27
     cd2:	dc 01       	movw	r26, r24
     cd4:	99 27       	eor	r25, r25
     cd6:	88 27       	eor	r24, r24
     cd8:	60 e0       	ldi	r22, 0x00	; 0
     cda:	70 e0       	ldi	r23, 0x00	; 0
     cdc:	84 2b       	or	r24, r20
     cde:	95 2b       	or	r25, r21
     ce0:	a6 2b       	or	r26, r22
     ce2:	b7 2b       	or	r27, r23
     ce4:	80 93 3a 01 	sts	0x013A, r24	; 0x80013a <timestamp>
     ce8:	90 93 3b 01 	sts	0x013B, r25	; 0x80013b <timestamp+0x1>
     cec:	a0 93 3c 01 	sts	0x013C, r26	; 0x80013c <timestamp+0x2>
     cf0:	b0 93 3d 01 	sts	0x013D, r27	; 0x80013d <timestamp+0x3>
     cf4:	b0 9b       	sbis	0x16, 0	; 22
     cf6:	1b c0       	rjmp	.+54     	; 0xd2e <__vector_3+0x98>
     cf8:	40 91 84 00 	lds	r20, 0x0084	; 0x800084 <__TEXT_REGION_LENGTH__+0x7fc084>
     cfc:	50 91 85 00 	lds	r21, 0x0085	; 0x800085 <__TEXT_REGION_LENGTH__+0x7fc085>
     d00:	c9 01       	movw	r24, r18
     d02:	01 96       	adiw	r24, 0x01	; 1
     d04:	09 2e       	mov	r0, r25
     d06:	00 0c       	add	r0, r0
     d08:	aa 0b       	sbc	r26, r26
     d0a:	bb 0b       	sbc	r27, r27
     d0c:	dc 01       	movw	r26, r24
     d0e:	99 27       	eor	r25, r25
     d10:	88 27       	eor	r24, r24
     d12:	60 e0       	ldi	r22, 0x00	; 0
     d14:	70 e0       	ldi	r23, 0x00	; 0
     d16:	84 2b       	or	r24, r20
     d18:	95 2b       	or	r25, r21
     d1a:	a6 2b       	or	r26, r22
     d1c:	b7 2b       	or	r27, r23
     d1e:	80 93 3a 01 	sts	0x013A, r24	; 0x80013a <timestamp>
     d22:	90 93 3b 01 	sts	0x013B, r25	; 0x80013b <timestamp+0x1>
     d26:	a0 93 3c 01 	sts	0x013C, r26	; 0x80013c <timestamp+0x2>
     d2a:	b0 93 3d 01 	sts	0x013D, r27	; 0x80013d <timestamp+0x3>
     d2e:	e0 91 de 01 	lds	r30, 0x01DE	; 0x8001de <mtable+0x4>
     d32:	f0 91 df 01 	lds	r31, 0x01DF	; 0x8001df <mtable+0x5>
     d36:	30 97       	sbiw	r30, 0x00	; 0
     d38:	39 f0       	breq	.+14     	; 0xd48 <__vector_3+0xb2>
     d3a:	62 e0       	ldi	r22, 0x02	; 2
     d3c:	70 e0       	ldi	r23, 0x00	; 0
     d3e:	80 91 46 01 	lds	r24, 0x0146	; 0x800146 <otable+0x4>
     d42:	90 91 47 01 	lds	r25, 0x0147	; 0x800147 <otable+0x5>
     d46:	09 95       	icall
     d48:	0e 94 28 05 	call	0xa50	; 0xa50 <schedule>
     d4c:	ff 91       	pop	r31
     d4e:	ef 91       	pop	r30
     d50:	bf 91       	pop	r27
     d52:	af 91       	pop	r26
     d54:	9f 91       	pop	r25
     d56:	8f 91       	pop	r24
     d58:	7f 91       	pop	r23
     d5a:	6f 91       	pop	r22
     d5c:	5f 91       	pop	r21
     d5e:	4f 91       	pop	r20
     d60:	3f 91       	pop	r19
     d62:	2f 91       	pop	r18
     d64:	0f 90       	pop	r0
     d66:	0f be       	out	0x3f, r0	; 63
     d68:	0f 90       	pop	r0
     d6a:	1f 90       	pop	r1
     d6c:	18 95       	reti

00000d6e <__vector_4>:
     d6e:	1f 92       	push	r1
     d70:	0f 92       	push	r0
     d72:	0f b6       	in	r0, 0x3f	; 63
     d74:	0f 92       	push	r0
     d76:	11 24       	eor	r1, r1
     d78:	2f 93       	push	r18
     d7a:	3f 93       	push	r19
     d7c:	4f 93       	push	r20
     d7e:	5f 93       	push	r21
     d80:	6f 93       	push	r22
     d82:	7f 93       	push	r23
     d84:	8f 93       	push	r24
     d86:	9f 93       	push	r25
     d88:	af 93       	push	r26
     d8a:	bf 93       	push	r27
     d8c:	ef 93       	push	r30
     d8e:	ff 93       	push	r31
     d90:	20 91 38 01 	lds	r18, 0x0138	; 0x800138 <__data_end>
     d94:	30 91 39 01 	lds	r19, 0x0139	; 0x800139 <__data_end+0x1>
     d98:	40 91 84 00 	lds	r20, 0x0084	; 0x800084 <__TEXT_REGION_LENGTH__+0x7fc084>
     d9c:	50 91 85 00 	lds	r21, 0x0085	; 0x800085 <__TEXT_REGION_LENGTH__+0x7fc085>
     da0:	c9 01       	movw	r24, r18
     da2:	03 2e       	mov	r0, r19
     da4:	00 0c       	add	r0, r0
     da6:	aa 0b       	sbc	r26, r26
     da8:	bb 0b       	sbc	r27, r27
     daa:	dc 01       	movw	r26, r24
     dac:	99 27       	eor	r25, r25
     dae:	88 27       	eor	r24, r24
     db0:	60 e0       	ldi	r22, 0x00	; 0
     db2:	70 e0       	ldi	r23, 0x00	; 0
     db4:	84 2b       	or	r24, r20
     db6:	95 2b       	or	r25, r21
     db8:	a6 2b       	or	r26, r22
     dba:	b7 2b       	or	r27, r23
     dbc:	80 93 3a 01 	sts	0x013A, r24	; 0x80013a <timestamp>
     dc0:	90 93 3b 01 	sts	0x013B, r25	; 0x80013b <timestamp+0x1>
     dc4:	a0 93 3c 01 	sts	0x013C, r26	; 0x80013c <timestamp+0x2>
     dc8:	b0 93 3d 01 	sts	0x013D, r27	; 0x80013d <timestamp+0x3>
     dcc:	b0 9b       	sbis	0x16, 0	; 22
     dce:	1b c0       	rjmp	.+54     	; 0xe06 <__vector_4+0x98>
     dd0:	40 91 84 00 	lds	r20, 0x0084	; 0x800084 <__TEXT_REGION_LENGTH__+0x7fc084>
     dd4:	50 91 85 00 	lds	r21, 0x0085	; 0x800085 <__TEXT_REGION_LENGTH__+0x7fc085>
     dd8:	c9 01       	movw	r24, r18
     dda:	01 96       	adiw	r24, 0x01	; 1
     ddc:	09 2e       	mov	r0, r25
     dde:	00 0c       	add	r0, r0
     de0:	aa 0b       	sbc	r26, r26
     de2:	bb 0b       	sbc	r27, r27
     de4:	dc 01       	movw	r26, r24
     de6:	99 27       	eor	r25, r25
     de8:	88 27       	eor	r24, r24
     dea:	60 e0       	ldi	r22, 0x00	; 0
     dec:	70 e0       	ldi	r23, 0x00	; 0
     dee:	84 2b       	or	r24, r20
     df0:	95 2b       	or	r25, r21
     df2:	a6 2b       	or	r26, r22
     df4:	b7 2b       	or	r27, r23
     df6:	80 93 3a 01 	sts	0x013A, r24	; 0x80013a <timestamp>
     dfa:	90 93 3b 01 	sts	0x013B, r25	; 0x80013b <timestamp+0x1>
     dfe:	a0 93 3c 01 	sts	0x013C, r26	; 0x80013c <timestamp+0x2>
     e02:	b0 93 3d 01 	sts	0x013D, r27	; 0x80013d <timestamp+0x3>
     e06:	e0 91 e0 01 	lds	r30, 0x01E0	; 0x8001e0 <mtable+0x6>
     e0a:	f0 91 e1 01 	lds	r31, 0x01E1	; 0x8001e1 <mtable+0x7>
     e0e:	30 97       	sbiw	r30, 0x00	; 0
     e10:	39 f0       	breq	.+14     	; 0xe20 <__vector_4+0xb2>
     e12:	63 e0       	ldi	r22, 0x03	; 3
     e14:	70 e0       	ldi	r23, 0x00	; 0
     e16:	80 91 48 01 	lds	r24, 0x0148	; 0x800148 <otable+0x6>
     e1a:	90 91 49 01 	lds	r25, 0x0149	; 0x800149 <otable+0x7>
     e1e:	09 95       	icall
     e20:	0e 94 28 05 	call	0xa50	; 0xa50 <schedule>
     e24:	ff 91       	pop	r31
     e26:	ef 91       	pop	r30
     e28:	bf 91       	pop	r27
     e2a:	af 91       	pop	r26
     e2c:	9f 91       	pop	r25
     e2e:	8f 91       	pop	r24
     e30:	7f 91       	pop	r23
     e32:	6f 91       	pop	r22
     e34:	5f 91       	pop	r21
     e36:	4f 91       	pop	r20
     e38:	3f 91       	pop	r19
     e3a:	2f 91       	pop	r18
     e3c:	0f 90       	pop	r0
     e3e:	0f be       	out	0x3f, r0	; 63
     e40:	0f 90       	pop	r0
     e42:	1f 90       	pop	r1
     e44:	18 95       	reti

00000e46 <__vector_5>:
     e46:	1f 92       	push	r1
     e48:	0f 92       	push	r0
     e4a:	0f b6       	in	r0, 0x3f	; 63
     e4c:	0f 92       	push	r0
     e4e:	11 24       	eor	r1, r1
     e50:	2f 93       	push	r18
     e52:	3f 93       	push	r19
     e54:	4f 93       	push	r20
     e56:	5f 93       	push	r21
     e58:	6f 93       	push	r22
     e5a:	7f 93       	push	r23
     e5c:	8f 93       	push	r24
     e5e:	9f 93       	push	r25
     e60:	af 93       	push	r26
     e62:	bf 93       	push	r27
     e64:	ef 93       	push	r30
     e66:	ff 93       	push	r31
     e68:	20 91 38 01 	lds	r18, 0x0138	; 0x800138 <__data_end>
     e6c:	30 91 39 01 	lds	r19, 0x0139	; 0x800139 <__data_end+0x1>
     e70:	40 91 84 00 	lds	r20, 0x0084	; 0x800084 <__TEXT_REGION_LENGTH__+0x7fc084>
     e74:	50 91 85 00 	lds	r21, 0x0085	; 0x800085 <__TEXT_REGION_LENGTH__+0x7fc085>
     e78:	c9 01       	movw	r24, r18
     e7a:	03 2e       	mov	r0, r19
     e7c:	00 0c       	add	r0, r0
     e7e:	aa 0b       	sbc	r26, r26
     e80:	bb 0b       	sbc	r27, r27
     e82:	dc 01       	movw	r26, r24
     e84:	99 27       	eor	r25, r25
     e86:	88 27       	eor	r24, r24
     e88:	60 e0       	ldi	r22, 0x00	; 0
     e8a:	70 e0       	ldi	r23, 0x00	; 0
     e8c:	84 2b       	or	r24, r20
     e8e:	95 2b       	or	r25, r21
     e90:	a6 2b       	or	r26, r22
     e92:	b7 2b       	or	r27, r23
     e94:	80 93 3a 01 	sts	0x013A, r24	; 0x80013a <timestamp>
     e98:	90 93 3b 01 	sts	0x013B, r25	; 0x80013b <timestamp+0x1>
     e9c:	a0 93 3c 01 	sts	0x013C, r26	; 0x80013c <timestamp+0x2>
     ea0:	b0 93 3d 01 	sts	0x013D, r27	; 0x80013d <timestamp+0x3>
     ea4:	b0 9b       	sbis	0x16, 0	; 22
     ea6:	1b c0       	rjmp	.+54     	; 0xede <__vector_5+0x98>
     ea8:	40 91 84 00 	lds	r20, 0x0084	; 0x800084 <__TEXT_REGION_LENGTH__+0x7fc084>
     eac:	50 91 85 00 	lds	r21, 0x0085	; 0x800085 <__TEXT_REGION_LENGTH__+0x7fc085>
     eb0:	c9 01       	movw	r24, r18
     eb2:	01 96       	adiw	r24, 0x01	; 1
     eb4:	09 2e       	mov	r0, r25
     eb6:	00 0c       	add	r0, r0
     eb8:	aa 0b       	sbc	r26, r26
     eba:	bb 0b       	sbc	r27, r27
     ebc:	dc 01       	movw	r26, r24
     ebe:	99 27       	eor	r25, r25
     ec0:	88 27       	eor	r24, r24
     ec2:	60 e0       	ldi	r22, 0x00	; 0
     ec4:	70 e0       	ldi	r23, 0x00	; 0
     ec6:	84 2b       	or	r24, r20
     ec8:	95 2b       	or	r25, r21
     eca:	a6 2b       	or	r26, r22
     ecc:	b7 2b       	or	r27, r23
     ece:	80 93 3a 01 	sts	0x013A, r24	; 0x80013a <timestamp>
     ed2:	90 93 3b 01 	sts	0x013B, r25	; 0x80013b <timestamp+0x1>
     ed6:	a0 93 3c 01 	sts	0x013C, r26	; 0x80013c <timestamp+0x2>
     eda:	b0 93 3d 01 	sts	0x013D, r27	; 0x80013d <timestamp+0x3>
     ede:	e0 91 e2 01 	lds	r30, 0x01E2	; 0x8001e2 <mtable+0x8>
     ee2:	f0 91 e3 01 	lds	r31, 0x01E3	; 0x8001e3 <mtable+0x9>
     ee6:	30 97       	sbiw	r30, 0x00	; 0
     ee8:	39 f0       	breq	.+14     	; 0xef8 <__vector_5+0xb2>
     eea:	64 e0       	ldi	r22, 0x04	; 4
     eec:	70 e0       	ldi	r23, 0x00	; 0
     eee:	80 91 4a 01 	lds	r24, 0x014A	; 0x80014a <otable+0x8>
     ef2:	90 91 4b 01 	lds	r25, 0x014B	; 0x80014b <otable+0x9>
     ef6:	09 95       	icall
     ef8:	0e 94 28 05 	call	0xa50	; 0xa50 <schedule>
     efc:	ff 91       	pop	r31
     efe:	ef 91       	pop	r30
     f00:	bf 91       	pop	r27
     f02:	af 91       	pop	r26
     f04:	9f 91       	pop	r25
     f06:	8f 91       	pop	r24
     f08:	7f 91       	pop	r23
     f0a:	6f 91       	pop	r22
     f0c:	5f 91       	pop	r21
     f0e:	4f 91       	pop	r20
     f10:	3f 91       	pop	r19
     f12:	2f 91       	pop	r18
     f14:	0f 90       	pop	r0
     f16:	0f be       	out	0x3f, r0	; 63
     f18:	0f 90       	pop	r0
     f1a:	1f 90       	pop	r1
     f1c:	18 95       	reti

00000f1e <__vector_10>:
     f1e:	1f 92       	push	r1
     f20:	0f 92       	push	r0
     f22:	0f b6       	in	r0, 0x3f	; 63
     f24:	0f 92       	push	r0
     f26:	11 24       	eor	r1, r1
     f28:	2f 93       	push	r18
     f2a:	3f 93       	push	r19
     f2c:	4f 93       	push	r20
     f2e:	5f 93       	push	r21
     f30:	6f 93       	push	r22
     f32:	7f 93       	push	r23
     f34:	8f 93       	push	r24
     f36:	9f 93       	push	r25
     f38:	af 93       	push	r26
     f3a:	bf 93       	push	r27
     f3c:	ef 93       	push	r30
     f3e:	ff 93       	push	r31
     f40:	20 91 38 01 	lds	r18, 0x0138	; 0x800138 <__data_end>
     f44:	30 91 39 01 	lds	r19, 0x0139	; 0x800139 <__data_end+0x1>
     f48:	40 91 84 00 	lds	r20, 0x0084	; 0x800084 <__TEXT_REGION_LENGTH__+0x7fc084>
     f4c:	50 91 85 00 	lds	r21, 0x0085	; 0x800085 <__TEXT_REGION_LENGTH__+0x7fc085>
     f50:	c9 01       	movw	r24, r18
     f52:	03 2e       	mov	r0, r19
     f54:	00 0c       	add	r0, r0
     f56:	aa 0b       	sbc	r26, r26
     f58:	bb 0b       	sbc	r27, r27
     f5a:	dc 01       	movw	r26, r24
     f5c:	99 27       	eor	r25, r25
     f5e:	88 27       	eor	r24, r24
     f60:	60 e0       	ldi	r22, 0x00	; 0
     f62:	70 e0       	ldi	r23, 0x00	; 0
     f64:	84 2b       	or	r24, r20
     f66:	95 2b       	or	r25, r21
     f68:	a6 2b       	or	r26, r22
     f6a:	b7 2b       	or	r27, r23
     f6c:	80 93 3a 01 	sts	0x013A, r24	; 0x80013a <timestamp>
     f70:	90 93 3b 01 	sts	0x013B, r25	; 0x80013b <timestamp+0x1>
     f74:	a0 93 3c 01 	sts	0x013C, r26	; 0x80013c <timestamp+0x2>
     f78:	b0 93 3d 01 	sts	0x013D, r27	; 0x80013d <timestamp+0x3>
     f7c:	b0 9b       	sbis	0x16, 0	; 22
     f7e:	1b c0       	rjmp	.+54     	; 0xfb6 <__vector_10+0x98>
     f80:	40 91 84 00 	lds	r20, 0x0084	; 0x800084 <__TEXT_REGION_LENGTH__+0x7fc084>
     f84:	50 91 85 00 	lds	r21, 0x0085	; 0x800085 <__TEXT_REGION_LENGTH__+0x7fc085>
     f88:	c9 01       	movw	r24, r18
     f8a:	01 96       	adiw	r24, 0x01	; 1
     f8c:	09 2e       	mov	r0, r25
     f8e:	00 0c       	add	r0, r0
     f90:	aa 0b       	sbc	r26, r26
     f92:	bb 0b       	sbc	r27, r27
     f94:	dc 01       	movw	r26, r24
     f96:	99 27       	eor	r25, r25
     f98:	88 27       	eor	r24, r24
     f9a:	60 e0       	ldi	r22, 0x00	; 0
     f9c:	70 e0       	ldi	r23, 0x00	; 0
     f9e:	84 2b       	or	r24, r20
     fa0:	95 2b       	or	r25, r21
     fa2:	a6 2b       	or	r26, r22
     fa4:	b7 2b       	or	r27, r23
     fa6:	80 93 3a 01 	sts	0x013A, r24	; 0x80013a <timestamp>
     faa:	90 93 3b 01 	sts	0x013B, r25	; 0x80013b <timestamp+0x1>
     fae:	a0 93 3c 01 	sts	0x013C, r26	; 0x80013c <timestamp+0x2>
     fb2:	b0 93 3d 01 	sts	0x013D, r27	; 0x80013d <timestamp+0x3>
     fb6:	e0 91 e4 01 	lds	r30, 0x01E4	; 0x8001e4 <mtable+0xa>
     fba:	f0 91 e5 01 	lds	r31, 0x01E5	; 0x8001e5 <mtable+0xb>
     fbe:	30 97       	sbiw	r30, 0x00	; 0
     fc0:	39 f0       	breq	.+14     	; 0xfd0 <__vector_10+0xb2>
     fc2:	65 e0       	ldi	r22, 0x05	; 5
     fc4:	70 e0       	ldi	r23, 0x00	; 0
     fc6:	80 91 4c 01 	lds	r24, 0x014C	; 0x80014c <otable+0xa>
     fca:	90 91 4d 01 	lds	r25, 0x014D	; 0x80014d <otable+0xb>
     fce:	09 95       	icall
     fd0:	0e 94 28 05 	call	0xa50	; 0xa50 <schedule>
     fd4:	ff 91       	pop	r31
     fd6:	ef 91       	pop	r30
     fd8:	bf 91       	pop	r27
     fda:	af 91       	pop	r26
     fdc:	9f 91       	pop	r25
     fde:	8f 91       	pop	r24
     fe0:	7f 91       	pop	r23
     fe2:	6f 91       	pop	r22
     fe4:	5f 91       	pop	r21
     fe6:	4f 91       	pop	r20
     fe8:	3f 91       	pop	r19
     fea:	2f 91       	pop	r18
     fec:	0f 90       	pop	r0
     fee:	0f be       	out	0x3f, r0	; 63
     ff0:	0f 90       	pop	r0
     ff2:	1f 90       	pop	r1
     ff4:	18 95       	reti

00000ff6 <__vector_11>:
     ff6:	1f 92       	push	r1
     ff8:	0f 92       	push	r0
     ffa:	0f b6       	in	r0, 0x3f	; 63
     ffc:	0f 92       	push	r0
     ffe:	11 24       	eor	r1, r1
    1000:	2f 93       	push	r18
    1002:	3f 93       	push	r19
    1004:	4f 93       	push	r20
    1006:	5f 93       	push	r21
    1008:	6f 93       	push	r22
    100a:	7f 93       	push	r23
    100c:	8f 93       	push	r24
    100e:	9f 93       	push	r25
    1010:	af 93       	push	r26
    1012:	bf 93       	push	r27
    1014:	ef 93       	push	r30
    1016:	ff 93       	push	r31
    1018:	20 91 38 01 	lds	r18, 0x0138	; 0x800138 <__data_end>
    101c:	30 91 39 01 	lds	r19, 0x0139	; 0x800139 <__data_end+0x1>
    1020:	40 91 84 00 	lds	r20, 0x0084	; 0x800084 <__TEXT_REGION_LENGTH__+0x7fc084>
    1024:	50 91 85 00 	lds	r21, 0x0085	; 0x800085 <__TEXT_REGION_LENGTH__+0x7fc085>
    1028:	c9 01       	movw	r24, r18
    102a:	03 2e       	mov	r0, r19
    102c:	00 0c       	add	r0, r0
    102e:	aa 0b       	sbc	r26, r26
    1030:	bb 0b       	sbc	r27, r27
    1032:	dc 01       	movw	r26, r24
    1034:	99 27       	eor	r25, r25
    1036:	88 27       	eor	r24, r24
    1038:	60 e0       	ldi	r22, 0x00	; 0
    103a:	70 e0       	ldi	r23, 0x00	; 0
    103c:	84 2b       	or	r24, r20
    103e:	95 2b       	or	r25, r21
    1040:	a6 2b       	or	r26, r22
    1042:	b7 2b       	or	r27, r23
    1044:	80 93 3a 01 	sts	0x013A, r24	; 0x80013a <timestamp>
    1048:	90 93 3b 01 	sts	0x013B, r25	; 0x80013b <timestamp+0x1>
    104c:	a0 93 3c 01 	sts	0x013C, r26	; 0x80013c <timestamp+0x2>
    1050:	b0 93 3d 01 	sts	0x013D, r27	; 0x80013d <timestamp+0x3>
    1054:	b0 9b       	sbis	0x16, 0	; 22
    1056:	1b c0       	rjmp	.+54     	; 0x108e <__vector_11+0x98>
    1058:	40 91 84 00 	lds	r20, 0x0084	; 0x800084 <__TEXT_REGION_LENGTH__+0x7fc084>
    105c:	50 91 85 00 	lds	r21, 0x0085	; 0x800085 <__TEXT_REGION_LENGTH__+0x7fc085>
    1060:	c9 01       	movw	r24, r18
    1062:	01 96       	adiw	r24, 0x01	; 1
    1064:	09 2e       	mov	r0, r25
    1066:	00 0c       	add	r0, r0
    1068:	aa 0b       	sbc	r26, r26
    106a:	bb 0b       	sbc	r27, r27
    106c:	dc 01       	movw	r26, r24
    106e:	99 27       	eor	r25, r25
    1070:	88 27       	eor	r24, r24
    1072:	60 e0       	ldi	r22, 0x00	; 0
    1074:	70 e0       	ldi	r23, 0x00	; 0
    1076:	84 2b       	or	r24, r20
    1078:	95 2b       	or	r25, r21
    107a:	a6 2b       	or	r26, r22
    107c:	b7 2b       	or	r27, r23
    107e:	80 93 3a 01 	sts	0x013A, r24	; 0x80013a <timestamp>
    1082:	90 93 3b 01 	sts	0x013B, r25	; 0x80013b <timestamp+0x1>
    1086:	a0 93 3c 01 	sts	0x013C, r26	; 0x80013c <timestamp+0x2>
    108a:	b0 93 3d 01 	sts	0x013D, r27	; 0x80013d <timestamp+0x3>
    108e:	e0 91 e6 01 	lds	r30, 0x01E6	; 0x8001e6 <mtable+0xc>
    1092:	f0 91 e7 01 	lds	r31, 0x01E7	; 0x8001e7 <mtable+0xd>
    1096:	30 97       	sbiw	r30, 0x00	; 0
    1098:	39 f0       	breq	.+14     	; 0x10a8 <__vector_11+0xb2>
    109a:	66 e0       	ldi	r22, 0x06	; 6
    109c:	70 e0       	ldi	r23, 0x00	; 0
    109e:	80 91 4e 01 	lds	r24, 0x014E	; 0x80014e <otable+0xc>
    10a2:	90 91 4f 01 	lds	r25, 0x014F	; 0x80014f <otable+0xd>
    10a6:	09 95       	icall
    10a8:	0e 94 28 05 	call	0xa50	; 0xa50 <schedule>
    10ac:	ff 91       	pop	r31
    10ae:	ef 91       	pop	r30
    10b0:	bf 91       	pop	r27
    10b2:	af 91       	pop	r26
    10b4:	9f 91       	pop	r25
    10b6:	8f 91       	pop	r24
    10b8:	7f 91       	pop	r23
    10ba:	6f 91       	pop	r22
    10bc:	5f 91       	pop	r21
    10be:	4f 91       	pop	r20
    10c0:	3f 91       	pop	r19
    10c2:	2f 91       	pop	r18
    10c4:	0f 90       	pop	r0
    10c6:	0f be       	out	0x3f, r0	; 63
    10c8:	0f 90       	pop	r0
    10ca:	1f 90       	pop	r1
    10cc:	18 95       	reti

000010ce <__vector_12>:
    10ce:	1f 92       	push	r1
    10d0:	0f 92       	push	r0
    10d2:	0f b6       	in	r0, 0x3f	; 63
    10d4:	0f 92       	push	r0
    10d6:	11 24       	eor	r1, r1
    10d8:	2f 93       	push	r18
    10da:	3f 93       	push	r19
    10dc:	4f 93       	push	r20
    10de:	5f 93       	push	r21
    10e0:	6f 93       	push	r22
    10e2:	7f 93       	push	r23
    10e4:	8f 93       	push	r24
    10e6:	9f 93       	push	r25
    10e8:	af 93       	push	r26
    10ea:	bf 93       	push	r27
    10ec:	ef 93       	push	r30
    10ee:	ff 93       	push	r31
    10f0:	20 91 38 01 	lds	r18, 0x0138	; 0x800138 <__data_end>
    10f4:	30 91 39 01 	lds	r19, 0x0139	; 0x800139 <__data_end+0x1>
    10f8:	40 91 84 00 	lds	r20, 0x0084	; 0x800084 <__TEXT_REGION_LENGTH__+0x7fc084>
    10fc:	50 91 85 00 	lds	r21, 0x0085	; 0x800085 <__TEXT_REGION_LENGTH__+0x7fc085>
    1100:	c9 01       	movw	r24, r18
    1102:	03 2e       	mov	r0, r19
    1104:	00 0c       	add	r0, r0
    1106:	aa 0b       	sbc	r26, r26
    1108:	bb 0b       	sbc	r27, r27
    110a:	dc 01       	movw	r26, r24
    110c:	99 27       	eor	r25, r25
    110e:	88 27       	eor	r24, r24
    1110:	60 e0       	ldi	r22, 0x00	; 0
    1112:	70 e0       	ldi	r23, 0x00	; 0
    1114:	84 2b       	or	r24, r20
    1116:	95 2b       	or	r25, r21
    1118:	a6 2b       	or	r26, r22
    111a:	b7 2b       	or	r27, r23
    111c:	80 93 3a 01 	sts	0x013A, r24	; 0x80013a <timestamp>
    1120:	90 93 3b 01 	sts	0x013B, r25	; 0x80013b <timestamp+0x1>
    1124:	a0 93 3c 01 	sts	0x013C, r26	; 0x80013c <timestamp+0x2>
    1128:	b0 93 3d 01 	sts	0x013D, r27	; 0x80013d <timestamp+0x3>
    112c:	b0 9b       	sbis	0x16, 0	; 22
    112e:	1b c0       	rjmp	.+54     	; 0x1166 <__vector_12+0x98>
    1130:	40 91 84 00 	lds	r20, 0x0084	; 0x800084 <__TEXT_REGION_LENGTH__+0x7fc084>
    1134:	50 91 85 00 	lds	r21, 0x0085	; 0x800085 <__TEXT_REGION_LENGTH__+0x7fc085>
    1138:	c9 01       	movw	r24, r18
    113a:	01 96       	adiw	r24, 0x01	; 1
    113c:	09 2e       	mov	r0, r25
    113e:	00 0c       	add	r0, r0
    1140:	aa 0b       	sbc	r26, r26
    1142:	bb 0b       	sbc	r27, r27
    1144:	dc 01       	movw	r26, r24
    1146:	99 27       	eor	r25, r25
    1148:	88 27       	eor	r24, r24
    114a:	60 e0       	ldi	r22, 0x00	; 0
    114c:	70 e0       	ldi	r23, 0x00	; 0
    114e:	84 2b       	or	r24, r20
    1150:	95 2b       	or	r25, r21
    1152:	a6 2b       	or	r26, r22
    1154:	b7 2b       	or	r27, r23
    1156:	80 93 3a 01 	sts	0x013A, r24	; 0x80013a <timestamp>
    115a:	90 93 3b 01 	sts	0x013B, r25	; 0x80013b <timestamp+0x1>
    115e:	a0 93 3c 01 	sts	0x013C, r26	; 0x80013c <timestamp+0x2>
    1162:	b0 93 3d 01 	sts	0x013D, r27	; 0x80013d <timestamp+0x3>
    1166:	e0 91 e8 01 	lds	r30, 0x01E8	; 0x8001e8 <mtable+0xe>
    116a:	f0 91 e9 01 	lds	r31, 0x01E9	; 0x8001e9 <mtable+0xf>
    116e:	30 97       	sbiw	r30, 0x00	; 0
    1170:	39 f0       	breq	.+14     	; 0x1180 <__vector_12+0xb2>
    1172:	67 e0       	ldi	r22, 0x07	; 7
    1174:	70 e0       	ldi	r23, 0x00	; 0
    1176:	80 91 50 01 	lds	r24, 0x0150	; 0x800150 <otable+0xe>
    117a:	90 91 51 01 	lds	r25, 0x0151	; 0x800151 <otable+0xf>
    117e:	09 95       	icall
    1180:	0e 94 28 05 	call	0xa50	; 0xa50 <schedule>
    1184:	ff 91       	pop	r31
    1186:	ef 91       	pop	r30
    1188:	bf 91       	pop	r27
    118a:	af 91       	pop	r26
    118c:	9f 91       	pop	r25
    118e:	8f 91       	pop	r24
    1190:	7f 91       	pop	r23
    1192:	6f 91       	pop	r22
    1194:	5f 91       	pop	r21
    1196:	4f 91       	pop	r20
    1198:	3f 91       	pop	r19
    119a:	2f 91       	pop	r18
    119c:	0f 90       	pop	r0
    119e:	0f be       	out	0x3f, r0	; 63
    11a0:	0f 90       	pop	r0
    11a2:	1f 90       	pop	r1
    11a4:	18 95       	reti

000011a6 <__vector_13>:
    11a6:	1f 92       	push	r1
    11a8:	0f 92       	push	r0
    11aa:	0f b6       	in	r0, 0x3f	; 63
    11ac:	0f 92       	push	r0
    11ae:	11 24       	eor	r1, r1
    11b0:	2f 93       	push	r18
    11b2:	3f 93       	push	r19
    11b4:	4f 93       	push	r20
    11b6:	5f 93       	push	r21
    11b8:	6f 93       	push	r22
    11ba:	7f 93       	push	r23
    11bc:	8f 93       	push	r24
    11be:	9f 93       	push	r25
    11c0:	af 93       	push	r26
    11c2:	bf 93       	push	r27
    11c4:	ef 93       	push	r30
    11c6:	ff 93       	push	r31
    11c8:	20 91 38 01 	lds	r18, 0x0138	; 0x800138 <__data_end>
    11cc:	30 91 39 01 	lds	r19, 0x0139	; 0x800139 <__data_end+0x1>
    11d0:	40 91 84 00 	lds	r20, 0x0084	; 0x800084 <__TEXT_REGION_LENGTH__+0x7fc084>
    11d4:	50 91 85 00 	lds	r21, 0x0085	; 0x800085 <__TEXT_REGION_LENGTH__+0x7fc085>
    11d8:	c9 01       	movw	r24, r18
    11da:	03 2e       	mov	r0, r19
    11dc:	00 0c       	add	r0, r0
    11de:	aa 0b       	sbc	r26, r26
    11e0:	bb 0b       	sbc	r27, r27
    11e2:	dc 01       	movw	r26, r24
    11e4:	99 27       	eor	r25, r25
    11e6:	88 27       	eor	r24, r24
    11e8:	60 e0       	ldi	r22, 0x00	; 0
    11ea:	70 e0       	ldi	r23, 0x00	; 0
    11ec:	84 2b       	or	r24, r20
    11ee:	95 2b       	or	r25, r21
    11f0:	a6 2b       	or	r26, r22
    11f2:	b7 2b       	or	r27, r23
    11f4:	80 93 3a 01 	sts	0x013A, r24	; 0x80013a <timestamp>
    11f8:	90 93 3b 01 	sts	0x013B, r25	; 0x80013b <timestamp+0x1>
    11fc:	a0 93 3c 01 	sts	0x013C, r26	; 0x80013c <timestamp+0x2>
    1200:	b0 93 3d 01 	sts	0x013D, r27	; 0x80013d <timestamp+0x3>
    1204:	b0 9b       	sbis	0x16, 0	; 22
    1206:	1b c0       	rjmp	.+54     	; 0x123e <__vector_13+0x98>
    1208:	40 91 84 00 	lds	r20, 0x0084	; 0x800084 <__TEXT_REGION_LENGTH__+0x7fc084>
    120c:	50 91 85 00 	lds	r21, 0x0085	; 0x800085 <__TEXT_REGION_LENGTH__+0x7fc085>
    1210:	c9 01       	movw	r24, r18
    1212:	01 96       	adiw	r24, 0x01	; 1
    1214:	09 2e       	mov	r0, r25
    1216:	00 0c       	add	r0, r0
    1218:	aa 0b       	sbc	r26, r26
    121a:	bb 0b       	sbc	r27, r27
    121c:	dc 01       	movw	r26, r24
    121e:	99 27       	eor	r25, r25
    1220:	88 27       	eor	r24, r24
    1222:	60 e0       	ldi	r22, 0x00	; 0
    1224:	70 e0       	ldi	r23, 0x00	; 0
    1226:	84 2b       	or	r24, r20
    1228:	95 2b       	or	r25, r21
    122a:	a6 2b       	or	r26, r22
    122c:	b7 2b       	or	r27, r23
    122e:	80 93 3a 01 	sts	0x013A, r24	; 0x80013a <timestamp>
    1232:	90 93 3b 01 	sts	0x013B, r25	; 0x80013b <timestamp+0x1>
    1236:	a0 93 3c 01 	sts	0x013C, r26	; 0x80013c <timestamp+0x2>
    123a:	b0 93 3d 01 	sts	0x013D, r27	; 0x80013d <timestamp+0x3>
    123e:	e0 91 ea 01 	lds	r30, 0x01EA	; 0x8001ea <mtable+0x10>
    1242:	f0 91 eb 01 	lds	r31, 0x01EB	; 0x8001eb <mtable+0x11>
    1246:	30 97       	sbiw	r30, 0x00	; 0
    1248:	39 f0       	breq	.+14     	; 0x1258 <__vector_13+0xb2>
    124a:	68 e0       	ldi	r22, 0x08	; 8
    124c:	70 e0       	ldi	r23, 0x00	; 0
    124e:	80 91 52 01 	lds	r24, 0x0152	; 0x800152 <otable+0x10>
    1252:	90 91 53 01 	lds	r25, 0x0153	; 0x800153 <otable+0x11>
    1256:	09 95       	icall
    1258:	0e 94 28 05 	call	0xa50	; 0xa50 <schedule>
    125c:	ff 91       	pop	r31
    125e:	ef 91       	pop	r30
    1260:	bf 91       	pop	r27
    1262:	af 91       	pop	r26
    1264:	9f 91       	pop	r25
    1266:	8f 91       	pop	r24
    1268:	7f 91       	pop	r23
    126a:	6f 91       	pop	r22
    126c:	5f 91       	pop	r21
    126e:	4f 91       	pop	r20
    1270:	3f 91       	pop	r19
    1272:	2f 91       	pop	r18
    1274:	0f 90       	pop	r0
    1276:	0f be       	out	0x3f, r0	; 63
    1278:	0f 90       	pop	r0
    127a:	1f 90       	pop	r1
    127c:	18 95       	reti

0000127e <__vector_14>:
    127e:	1f 92       	push	r1
    1280:	0f 92       	push	r0
    1282:	0f b6       	in	r0, 0x3f	; 63
    1284:	0f 92       	push	r0
    1286:	11 24       	eor	r1, r1
    1288:	2f 93       	push	r18
    128a:	3f 93       	push	r19
    128c:	4f 93       	push	r20
    128e:	5f 93       	push	r21
    1290:	6f 93       	push	r22
    1292:	7f 93       	push	r23
    1294:	8f 93       	push	r24
    1296:	9f 93       	push	r25
    1298:	af 93       	push	r26
    129a:	bf 93       	push	r27
    129c:	ef 93       	push	r30
    129e:	ff 93       	push	r31
    12a0:	20 91 38 01 	lds	r18, 0x0138	; 0x800138 <__data_end>
    12a4:	30 91 39 01 	lds	r19, 0x0139	; 0x800139 <__data_end+0x1>
    12a8:	40 91 84 00 	lds	r20, 0x0084	; 0x800084 <__TEXT_REGION_LENGTH__+0x7fc084>
    12ac:	50 91 85 00 	lds	r21, 0x0085	; 0x800085 <__TEXT_REGION_LENGTH__+0x7fc085>
    12b0:	c9 01       	movw	r24, r18
    12b2:	03 2e       	mov	r0, r19
    12b4:	00 0c       	add	r0, r0
    12b6:	aa 0b       	sbc	r26, r26
    12b8:	bb 0b       	sbc	r27, r27
    12ba:	dc 01       	movw	r26, r24
    12bc:	99 27       	eor	r25, r25
    12be:	88 27       	eor	r24, r24
    12c0:	60 e0       	ldi	r22, 0x00	; 0
    12c2:	70 e0       	ldi	r23, 0x00	; 0
    12c4:	84 2b       	or	r24, r20
    12c6:	95 2b       	or	r25, r21
    12c8:	a6 2b       	or	r26, r22
    12ca:	b7 2b       	or	r27, r23
    12cc:	80 93 3a 01 	sts	0x013A, r24	; 0x80013a <timestamp>
    12d0:	90 93 3b 01 	sts	0x013B, r25	; 0x80013b <timestamp+0x1>
    12d4:	a0 93 3c 01 	sts	0x013C, r26	; 0x80013c <timestamp+0x2>
    12d8:	b0 93 3d 01 	sts	0x013D, r27	; 0x80013d <timestamp+0x3>
    12dc:	b0 9b       	sbis	0x16, 0	; 22
    12de:	1b c0       	rjmp	.+54     	; 0x1316 <__vector_14+0x98>
    12e0:	40 91 84 00 	lds	r20, 0x0084	; 0x800084 <__TEXT_REGION_LENGTH__+0x7fc084>
    12e4:	50 91 85 00 	lds	r21, 0x0085	; 0x800085 <__TEXT_REGION_LENGTH__+0x7fc085>
    12e8:	c9 01       	movw	r24, r18
    12ea:	01 96       	adiw	r24, 0x01	; 1
    12ec:	09 2e       	mov	r0, r25
    12ee:	00 0c       	add	r0, r0
    12f0:	aa 0b       	sbc	r26, r26
    12f2:	bb 0b       	sbc	r27, r27
    12f4:	dc 01       	movw	r26, r24
    12f6:	99 27       	eor	r25, r25
    12f8:	88 27       	eor	r24, r24
    12fa:	60 e0       	ldi	r22, 0x00	; 0
    12fc:	70 e0       	ldi	r23, 0x00	; 0
    12fe:	84 2b       	or	r24, r20
    1300:	95 2b       	or	r25, r21
    1302:	a6 2b       	or	r26, r22
    1304:	b7 2b       	or	r27, r23
    1306:	80 93 3a 01 	sts	0x013A, r24	; 0x80013a <timestamp>
    130a:	90 93 3b 01 	sts	0x013B, r25	; 0x80013b <timestamp+0x1>
    130e:	a0 93 3c 01 	sts	0x013C, r26	; 0x80013c <timestamp+0x2>
    1312:	b0 93 3d 01 	sts	0x013D, r27	; 0x80013d <timestamp+0x3>
    1316:	e0 91 ec 01 	lds	r30, 0x01EC	; 0x8001ec <mtable+0x12>
    131a:	f0 91 ed 01 	lds	r31, 0x01ED	; 0x8001ed <mtable+0x13>
    131e:	30 97       	sbiw	r30, 0x00	; 0
    1320:	39 f0       	breq	.+14     	; 0x1330 <__vector_14+0xb2>
    1322:	69 e0       	ldi	r22, 0x09	; 9
    1324:	70 e0       	ldi	r23, 0x00	; 0
    1326:	80 91 54 01 	lds	r24, 0x0154	; 0x800154 <otable+0x12>
    132a:	90 91 55 01 	lds	r25, 0x0155	; 0x800155 <otable+0x13>
    132e:	09 95       	icall
    1330:	0e 94 28 05 	call	0xa50	; 0xa50 <schedule>
    1334:	ff 91       	pop	r31
    1336:	ef 91       	pop	r30
    1338:	bf 91       	pop	r27
    133a:	af 91       	pop	r26
    133c:	9f 91       	pop	r25
    133e:	8f 91       	pop	r24
    1340:	7f 91       	pop	r23
    1342:	6f 91       	pop	r22
    1344:	5f 91       	pop	r21
    1346:	4f 91       	pop	r20
    1348:	3f 91       	pop	r19
    134a:	2f 91       	pop	r18
    134c:	0f 90       	pop	r0
    134e:	0f be       	out	0x3f, r0	; 63
    1350:	0f 90       	pop	r0
    1352:	1f 90       	pop	r1
    1354:	18 95       	reti

00001356 <__vector_15>:
    1356:	1f 92       	push	r1
    1358:	0f 92       	push	r0
    135a:	0f b6       	in	r0, 0x3f	; 63
    135c:	0f 92       	push	r0
    135e:	11 24       	eor	r1, r1
    1360:	2f 93       	push	r18
    1362:	3f 93       	push	r19
    1364:	4f 93       	push	r20
    1366:	5f 93       	push	r21
    1368:	6f 93       	push	r22
    136a:	7f 93       	push	r23
    136c:	8f 93       	push	r24
    136e:	9f 93       	push	r25
    1370:	af 93       	push	r26
    1372:	bf 93       	push	r27
    1374:	ef 93       	push	r30
    1376:	ff 93       	push	r31
    1378:	20 91 38 01 	lds	r18, 0x0138	; 0x800138 <__data_end>
    137c:	30 91 39 01 	lds	r19, 0x0139	; 0x800139 <__data_end+0x1>
    1380:	40 91 84 00 	lds	r20, 0x0084	; 0x800084 <__TEXT_REGION_LENGTH__+0x7fc084>
    1384:	50 91 85 00 	lds	r21, 0x0085	; 0x800085 <__TEXT_REGION_LENGTH__+0x7fc085>
    1388:	c9 01       	movw	r24, r18
    138a:	03 2e       	mov	r0, r19
    138c:	00 0c       	add	r0, r0
    138e:	aa 0b       	sbc	r26, r26
    1390:	bb 0b       	sbc	r27, r27
    1392:	dc 01       	movw	r26, r24
    1394:	99 27       	eor	r25, r25
    1396:	88 27       	eor	r24, r24
    1398:	60 e0       	ldi	r22, 0x00	; 0
    139a:	70 e0       	ldi	r23, 0x00	; 0
    139c:	84 2b       	or	r24, r20
    139e:	95 2b       	or	r25, r21
    13a0:	a6 2b       	or	r26, r22
    13a2:	b7 2b       	or	r27, r23
    13a4:	80 93 3a 01 	sts	0x013A, r24	; 0x80013a <timestamp>
    13a8:	90 93 3b 01 	sts	0x013B, r25	; 0x80013b <timestamp+0x1>
    13ac:	a0 93 3c 01 	sts	0x013C, r26	; 0x80013c <timestamp+0x2>
    13b0:	b0 93 3d 01 	sts	0x013D, r27	; 0x80013d <timestamp+0x3>
    13b4:	b0 9b       	sbis	0x16, 0	; 22
    13b6:	1b c0       	rjmp	.+54     	; 0x13ee <__vector_15+0x98>
    13b8:	40 91 84 00 	lds	r20, 0x0084	; 0x800084 <__TEXT_REGION_LENGTH__+0x7fc084>
    13bc:	50 91 85 00 	lds	r21, 0x0085	; 0x800085 <__TEXT_REGION_LENGTH__+0x7fc085>
    13c0:	c9 01       	movw	r24, r18
    13c2:	01 96       	adiw	r24, 0x01	; 1
    13c4:	09 2e       	mov	r0, r25
    13c6:	00 0c       	add	r0, r0
    13c8:	aa 0b       	sbc	r26, r26
    13ca:	bb 0b       	sbc	r27, r27
    13cc:	dc 01       	movw	r26, r24
    13ce:	99 27       	eor	r25, r25
    13d0:	88 27       	eor	r24, r24
    13d2:	60 e0       	ldi	r22, 0x00	; 0
    13d4:	70 e0       	ldi	r23, 0x00	; 0
    13d6:	84 2b       	or	r24, r20
    13d8:	95 2b       	or	r25, r21
    13da:	a6 2b       	or	r26, r22
    13dc:	b7 2b       	or	r27, r23
    13de:	80 93 3a 01 	sts	0x013A, r24	; 0x80013a <timestamp>
    13e2:	90 93 3b 01 	sts	0x013B, r25	; 0x80013b <timestamp+0x1>
    13e6:	a0 93 3c 01 	sts	0x013C, r26	; 0x80013c <timestamp+0x2>
    13ea:	b0 93 3d 01 	sts	0x013D, r27	; 0x80013d <timestamp+0x3>
    13ee:	e0 91 ee 01 	lds	r30, 0x01EE	; 0x8001ee <mtable+0x14>
    13f2:	f0 91 ef 01 	lds	r31, 0x01EF	; 0x8001ef <mtable+0x15>
    13f6:	30 97       	sbiw	r30, 0x00	; 0
    13f8:	39 f0       	breq	.+14     	; 0x1408 <__vector_15+0xb2>
    13fa:	6a e0       	ldi	r22, 0x0A	; 10
    13fc:	70 e0       	ldi	r23, 0x00	; 0
    13fe:	80 91 56 01 	lds	r24, 0x0156	; 0x800156 <otable+0x14>
    1402:	90 91 57 01 	lds	r25, 0x0157	; 0x800157 <otable+0x15>
    1406:	09 95       	icall
    1408:	0e 94 28 05 	call	0xa50	; 0xa50 <schedule>
    140c:	ff 91       	pop	r31
    140e:	ef 91       	pop	r30
    1410:	bf 91       	pop	r27
    1412:	af 91       	pop	r26
    1414:	9f 91       	pop	r25
    1416:	8f 91       	pop	r24
    1418:	7f 91       	pop	r23
    141a:	6f 91       	pop	r22
    141c:	5f 91       	pop	r21
    141e:	4f 91       	pop	r20
    1420:	3f 91       	pop	r19
    1422:	2f 91       	pop	r18
    1424:	0f 90       	pop	r0
    1426:	0f be       	out	0x3f, r0	; 63
    1428:	0f 90       	pop	r0
    142a:	1f 90       	pop	r1
    142c:	18 95       	reti

0000142e <__vector_16>:
    142e:	1f 92       	push	r1
    1430:	0f 92       	push	r0
    1432:	0f b6       	in	r0, 0x3f	; 63
    1434:	0f 92       	push	r0
    1436:	11 24       	eor	r1, r1
    1438:	2f 93       	push	r18
    143a:	3f 93       	push	r19
    143c:	4f 93       	push	r20
    143e:	5f 93       	push	r21
    1440:	6f 93       	push	r22
    1442:	7f 93       	push	r23
    1444:	8f 93       	push	r24
    1446:	9f 93       	push	r25
    1448:	af 93       	push	r26
    144a:	bf 93       	push	r27
    144c:	ef 93       	push	r30
    144e:	ff 93       	push	r31
    1450:	20 91 38 01 	lds	r18, 0x0138	; 0x800138 <__data_end>
    1454:	30 91 39 01 	lds	r19, 0x0139	; 0x800139 <__data_end+0x1>
    1458:	40 91 84 00 	lds	r20, 0x0084	; 0x800084 <__TEXT_REGION_LENGTH__+0x7fc084>
    145c:	50 91 85 00 	lds	r21, 0x0085	; 0x800085 <__TEXT_REGION_LENGTH__+0x7fc085>
    1460:	c9 01       	movw	r24, r18
    1462:	03 2e       	mov	r0, r19
    1464:	00 0c       	add	r0, r0
    1466:	aa 0b       	sbc	r26, r26
    1468:	bb 0b       	sbc	r27, r27
    146a:	dc 01       	movw	r26, r24
    146c:	99 27       	eor	r25, r25
    146e:	88 27       	eor	r24, r24
    1470:	60 e0       	ldi	r22, 0x00	; 0
    1472:	70 e0       	ldi	r23, 0x00	; 0
    1474:	84 2b       	or	r24, r20
    1476:	95 2b       	or	r25, r21
    1478:	a6 2b       	or	r26, r22
    147a:	b7 2b       	or	r27, r23
    147c:	80 93 3a 01 	sts	0x013A, r24	; 0x80013a <timestamp>
    1480:	90 93 3b 01 	sts	0x013B, r25	; 0x80013b <timestamp+0x1>
    1484:	a0 93 3c 01 	sts	0x013C, r26	; 0x80013c <timestamp+0x2>
    1488:	b0 93 3d 01 	sts	0x013D, r27	; 0x80013d <timestamp+0x3>
    148c:	b0 9b       	sbis	0x16, 0	; 22
    148e:	1b c0       	rjmp	.+54     	; 0x14c6 <__vector_16+0x98>
    1490:	40 91 84 00 	lds	r20, 0x0084	; 0x800084 <__TEXT_REGION_LENGTH__+0x7fc084>
    1494:	50 91 85 00 	lds	r21, 0x0085	; 0x800085 <__TEXT_REGION_LENGTH__+0x7fc085>
    1498:	c9 01       	movw	r24, r18
    149a:	01 96       	adiw	r24, 0x01	; 1
    149c:	09 2e       	mov	r0, r25
    149e:	00 0c       	add	r0, r0
    14a0:	aa 0b       	sbc	r26, r26
    14a2:	bb 0b       	sbc	r27, r27
    14a4:	dc 01       	movw	r26, r24
    14a6:	99 27       	eor	r25, r25
    14a8:	88 27       	eor	r24, r24
    14aa:	60 e0       	ldi	r22, 0x00	; 0
    14ac:	70 e0       	ldi	r23, 0x00	; 0
    14ae:	84 2b       	or	r24, r20
    14b0:	95 2b       	or	r25, r21
    14b2:	a6 2b       	or	r26, r22
    14b4:	b7 2b       	or	r27, r23
    14b6:	80 93 3a 01 	sts	0x013A, r24	; 0x80013a <timestamp>
    14ba:	90 93 3b 01 	sts	0x013B, r25	; 0x80013b <timestamp+0x1>
    14be:	a0 93 3c 01 	sts	0x013C, r26	; 0x80013c <timestamp+0x2>
    14c2:	b0 93 3d 01 	sts	0x013D, r27	; 0x80013d <timestamp+0x3>
    14c6:	e0 91 f0 01 	lds	r30, 0x01F0	; 0x8001f0 <mtable+0x16>
    14ca:	f0 91 f1 01 	lds	r31, 0x01F1	; 0x8001f1 <mtable+0x17>
    14ce:	30 97       	sbiw	r30, 0x00	; 0
    14d0:	39 f0       	breq	.+14     	; 0x14e0 <__vector_16+0xb2>
    14d2:	6b e0       	ldi	r22, 0x0B	; 11
    14d4:	70 e0       	ldi	r23, 0x00	; 0
    14d6:	80 91 58 01 	lds	r24, 0x0158	; 0x800158 <otable+0x16>
    14da:	90 91 59 01 	lds	r25, 0x0159	; 0x800159 <otable+0x17>
    14de:	09 95       	icall
    14e0:	0e 94 28 05 	call	0xa50	; 0xa50 <schedule>
    14e4:	ff 91       	pop	r31
    14e6:	ef 91       	pop	r30
    14e8:	bf 91       	pop	r27
    14ea:	af 91       	pop	r26
    14ec:	9f 91       	pop	r25
    14ee:	8f 91       	pop	r24
    14f0:	7f 91       	pop	r23
    14f2:	6f 91       	pop	r22
    14f4:	5f 91       	pop	r21
    14f6:	4f 91       	pop	r20
    14f8:	3f 91       	pop	r19
    14fa:	2f 91       	pop	r18
    14fc:	0f 90       	pop	r0
    14fe:	0f be       	out	0x3f, r0	; 63
    1500:	0f 90       	pop	r0
    1502:	1f 90       	pop	r1
    1504:	18 95       	reti

00001506 <__vector_17>:
    1506:	1f 92       	push	r1
    1508:	0f 92       	push	r0
    150a:	0f b6       	in	r0, 0x3f	; 63
    150c:	0f 92       	push	r0
    150e:	11 24       	eor	r1, r1
    1510:	2f 93       	push	r18
    1512:	3f 93       	push	r19
    1514:	4f 93       	push	r20
    1516:	5f 93       	push	r21
    1518:	6f 93       	push	r22
    151a:	7f 93       	push	r23
    151c:	8f 93       	push	r24
    151e:	9f 93       	push	r25
    1520:	af 93       	push	r26
    1522:	bf 93       	push	r27
    1524:	ef 93       	push	r30
    1526:	ff 93       	push	r31
    1528:	20 91 38 01 	lds	r18, 0x0138	; 0x800138 <__data_end>
    152c:	30 91 39 01 	lds	r19, 0x0139	; 0x800139 <__data_end+0x1>
    1530:	40 91 84 00 	lds	r20, 0x0084	; 0x800084 <__TEXT_REGION_LENGTH__+0x7fc084>
    1534:	50 91 85 00 	lds	r21, 0x0085	; 0x800085 <__TEXT_REGION_LENGTH__+0x7fc085>
    1538:	c9 01       	movw	r24, r18
    153a:	03 2e       	mov	r0, r19
    153c:	00 0c       	add	r0, r0
    153e:	aa 0b       	sbc	r26, r26
    1540:	bb 0b       	sbc	r27, r27
    1542:	dc 01       	movw	r26, r24
    1544:	99 27       	eor	r25, r25
    1546:	88 27       	eor	r24, r24
    1548:	60 e0       	ldi	r22, 0x00	; 0
    154a:	70 e0       	ldi	r23, 0x00	; 0
    154c:	84 2b       	or	r24, r20
    154e:	95 2b       	or	r25, r21
    1550:	a6 2b       	or	r26, r22
    1552:	b7 2b       	or	r27, r23
    1554:	80 93 3a 01 	sts	0x013A, r24	; 0x80013a <timestamp>
    1558:	90 93 3b 01 	sts	0x013B, r25	; 0x80013b <timestamp+0x1>
    155c:	a0 93 3c 01 	sts	0x013C, r26	; 0x80013c <timestamp+0x2>
    1560:	b0 93 3d 01 	sts	0x013D, r27	; 0x80013d <timestamp+0x3>
    1564:	b0 9b       	sbis	0x16, 0	; 22
    1566:	1b c0       	rjmp	.+54     	; 0x159e <__vector_17+0x98>
    1568:	40 91 84 00 	lds	r20, 0x0084	; 0x800084 <__TEXT_REGION_LENGTH__+0x7fc084>
    156c:	50 91 85 00 	lds	r21, 0x0085	; 0x800085 <__TEXT_REGION_LENGTH__+0x7fc085>
    1570:	c9 01       	movw	r24, r18
    1572:	01 96       	adiw	r24, 0x01	; 1
    1574:	09 2e       	mov	r0, r25
    1576:	00 0c       	add	r0, r0
    1578:	aa 0b       	sbc	r26, r26
    157a:	bb 0b       	sbc	r27, r27
    157c:	dc 01       	movw	r26, r24
    157e:	99 27       	eor	r25, r25
    1580:	88 27       	eor	r24, r24
    1582:	60 e0       	ldi	r22, 0x00	; 0
    1584:	70 e0       	ldi	r23, 0x00	; 0
    1586:	84 2b       	or	r24, r20
    1588:	95 2b       	or	r25, r21
    158a:	a6 2b       	or	r26, r22
    158c:	b7 2b       	or	r27, r23
    158e:	80 93 3a 01 	sts	0x013A, r24	; 0x80013a <timestamp>
    1592:	90 93 3b 01 	sts	0x013B, r25	; 0x80013b <timestamp+0x1>
    1596:	a0 93 3c 01 	sts	0x013C, r26	; 0x80013c <timestamp+0x2>
    159a:	b0 93 3d 01 	sts	0x013D, r27	; 0x80013d <timestamp+0x3>
    159e:	e0 91 f2 01 	lds	r30, 0x01F2	; 0x8001f2 <mtable+0x18>
    15a2:	f0 91 f3 01 	lds	r31, 0x01F3	; 0x8001f3 <mtable+0x19>
    15a6:	30 97       	sbiw	r30, 0x00	; 0
    15a8:	39 f0       	breq	.+14     	; 0x15b8 <__vector_17+0xb2>
    15aa:	6c e0       	ldi	r22, 0x0C	; 12
    15ac:	70 e0       	ldi	r23, 0x00	; 0
    15ae:	80 91 5a 01 	lds	r24, 0x015A	; 0x80015a <otable+0x18>
    15b2:	90 91 5b 01 	lds	r25, 0x015B	; 0x80015b <otable+0x19>
    15b6:	09 95       	icall
    15b8:	0e 94 28 05 	call	0xa50	; 0xa50 <schedule>
    15bc:	ff 91       	pop	r31
    15be:	ef 91       	pop	r30
    15c0:	bf 91       	pop	r27
    15c2:	af 91       	pop	r26
    15c4:	9f 91       	pop	r25
    15c6:	8f 91       	pop	r24
    15c8:	7f 91       	pop	r23
    15ca:	6f 91       	pop	r22
    15cc:	5f 91       	pop	r21
    15ce:	4f 91       	pop	r20
    15d0:	3f 91       	pop	r19
    15d2:	2f 91       	pop	r18
    15d4:	0f 90       	pop	r0
    15d6:	0f be       	out	0x3f, r0	; 63
    15d8:	0f 90       	pop	r0
    15da:	1f 90       	pop	r1
    15dc:	18 95       	reti

000015de <__vector_18>:
    15de:	1f 92       	push	r1
    15e0:	0f 92       	push	r0
    15e2:	0f b6       	in	r0, 0x3f	; 63
    15e4:	0f 92       	push	r0
    15e6:	11 24       	eor	r1, r1
    15e8:	2f 93       	push	r18
    15ea:	3f 93       	push	r19
    15ec:	4f 93       	push	r20
    15ee:	5f 93       	push	r21
    15f0:	6f 93       	push	r22
    15f2:	7f 93       	push	r23
    15f4:	8f 93       	push	r24
    15f6:	9f 93       	push	r25
    15f8:	af 93       	push	r26
    15fa:	bf 93       	push	r27
    15fc:	ef 93       	push	r30
    15fe:	ff 93       	push	r31
    1600:	20 91 38 01 	lds	r18, 0x0138	; 0x800138 <__data_end>
    1604:	30 91 39 01 	lds	r19, 0x0139	; 0x800139 <__data_end+0x1>
    1608:	40 91 84 00 	lds	r20, 0x0084	; 0x800084 <__TEXT_REGION_LENGTH__+0x7fc084>
    160c:	50 91 85 00 	lds	r21, 0x0085	; 0x800085 <__TEXT_REGION_LENGTH__+0x7fc085>
    1610:	c9 01       	movw	r24, r18
    1612:	03 2e       	mov	r0, r19
    1614:	00 0c       	add	r0, r0
    1616:	aa 0b       	sbc	r26, r26
    1618:	bb 0b       	sbc	r27, r27
    161a:	dc 01       	movw	r26, r24
    161c:	99 27       	eor	r25, r25
    161e:	88 27       	eor	r24, r24
    1620:	60 e0       	ldi	r22, 0x00	; 0
    1622:	70 e0       	ldi	r23, 0x00	; 0
    1624:	84 2b       	or	r24, r20
    1626:	95 2b       	or	r25, r21
    1628:	a6 2b       	or	r26, r22
    162a:	b7 2b       	or	r27, r23
    162c:	80 93 3a 01 	sts	0x013A, r24	; 0x80013a <timestamp>
    1630:	90 93 3b 01 	sts	0x013B, r25	; 0x80013b <timestamp+0x1>
    1634:	a0 93 3c 01 	sts	0x013C, r26	; 0x80013c <timestamp+0x2>
    1638:	b0 93 3d 01 	sts	0x013D, r27	; 0x80013d <timestamp+0x3>
    163c:	b0 9b       	sbis	0x16, 0	; 22
    163e:	1b c0       	rjmp	.+54     	; 0x1676 <__vector_18+0x98>
    1640:	40 91 84 00 	lds	r20, 0x0084	; 0x800084 <__TEXT_REGION_LENGTH__+0x7fc084>
    1644:	50 91 85 00 	lds	r21, 0x0085	; 0x800085 <__TEXT_REGION_LENGTH__+0x7fc085>
    1648:	c9 01       	movw	r24, r18
    164a:	01 96       	adiw	r24, 0x01	; 1
    164c:	09 2e       	mov	r0, r25
    164e:	00 0c       	add	r0, r0
    1650:	aa 0b       	sbc	r26, r26
    1652:	bb 0b       	sbc	r27, r27
    1654:	dc 01       	movw	r26, r24
    1656:	99 27       	eor	r25, r25
    1658:	88 27       	eor	r24, r24
    165a:	60 e0       	ldi	r22, 0x00	; 0
    165c:	70 e0       	ldi	r23, 0x00	; 0
    165e:	84 2b       	or	r24, r20
    1660:	95 2b       	or	r25, r21
    1662:	a6 2b       	or	r26, r22
    1664:	b7 2b       	or	r27, r23
    1666:	80 93 3a 01 	sts	0x013A, r24	; 0x80013a <timestamp>
    166a:	90 93 3b 01 	sts	0x013B, r25	; 0x80013b <timestamp+0x1>
    166e:	a0 93 3c 01 	sts	0x013C, r26	; 0x80013c <timestamp+0x2>
    1672:	b0 93 3d 01 	sts	0x013D, r27	; 0x80013d <timestamp+0x3>
    1676:	e0 91 f4 01 	lds	r30, 0x01F4	; 0x8001f4 <mtable+0x1a>
    167a:	f0 91 f5 01 	lds	r31, 0x01F5	; 0x8001f5 <mtable+0x1b>
    167e:	30 97       	sbiw	r30, 0x00	; 0
    1680:	39 f0       	breq	.+14     	; 0x1690 <__vector_18+0xb2>
    1682:	6d e0       	ldi	r22, 0x0D	; 13
    1684:	70 e0       	ldi	r23, 0x00	; 0
    1686:	80 91 5c 01 	lds	r24, 0x015C	; 0x80015c <otable+0x1a>
    168a:	90 91 5d 01 	lds	r25, 0x015D	; 0x80015d <otable+0x1b>
    168e:	09 95       	icall
    1690:	0e 94 28 05 	call	0xa50	; 0xa50 <schedule>
    1694:	ff 91       	pop	r31
    1696:	ef 91       	pop	r30
    1698:	bf 91       	pop	r27
    169a:	af 91       	pop	r26
    169c:	9f 91       	pop	r25
    169e:	8f 91       	pop	r24
    16a0:	7f 91       	pop	r23
    16a2:	6f 91       	pop	r22
    16a4:	5f 91       	pop	r21
    16a6:	4f 91       	pop	r20
    16a8:	3f 91       	pop	r19
    16aa:	2f 91       	pop	r18
    16ac:	0f 90       	pop	r0
    16ae:	0f be       	out	0x3f, r0	; 63
    16b0:	0f 90       	pop	r0
    16b2:	1f 90       	pop	r1
    16b4:	18 95       	reti

000016b6 <__vector_19>:
    16b6:	1f 92       	push	r1
    16b8:	0f 92       	push	r0
    16ba:	0f b6       	in	r0, 0x3f	; 63
    16bc:	0f 92       	push	r0
    16be:	11 24       	eor	r1, r1
    16c0:	2f 93       	push	r18
    16c2:	3f 93       	push	r19
    16c4:	4f 93       	push	r20
    16c6:	5f 93       	push	r21
    16c8:	6f 93       	push	r22
    16ca:	7f 93       	push	r23
    16cc:	8f 93       	push	r24
    16ce:	9f 93       	push	r25
    16d0:	af 93       	push	r26
    16d2:	bf 93       	push	r27
    16d4:	ef 93       	push	r30
    16d6:	ff 93       	push	r31
    16d8:	20 91 38 01 	lds	r18, 0x0138	; 0x800138 <__data_end>
    16dc:	30 91 39 01 	lds	r19, 0x0139	; 0x800139 <__data_end+0x1>
    16e0:	40 91 84 00 	lds	r20, 0x0084	; 0x800084 <__TEXT_REGION_LENGTH__+0x7fc084>
    16e4:	50 91 85 00 	lds	r21, 0x0085	; 0x800085 <__TEXT_REGION_LENGTH__+0x7fc085>
    16e8:	c9 01       	movw	r24, r18
    16ea:	03 2e       	mov	r0, r19
    16ec:	00 0c       	add	r0, r0
    16ee:	aa 0b       	sbc	r26, r26
    16f0:	bb 0b       	sbc	r27, r27
    16f2:	dc 01       	movw	r26, r24
    16f4:	99 27       	eor	r25, r25
    16f6:	88 27       	eor	r24, r24
    16f8:	60 e0       	ldi	r22, 0x00	; 0
    16fa:	70 e0       	ldi	r23, 0x00	; 0
    16fc:	84 2b       	or	r24, r20
    16fe:	95 2b       	or	r25, r21
    1700:	a6 2b       	or	r26, r22
    1702:	b7 2b       	or	r27, r23
    1704:	80 93 3a 01 	sts	0x013A, r24	; 0x80013a <timestamp>
    1708:	90 93 3b 01 	sts	0x013B, r25	; 0x80013b <timestamp+0x1>
    170c:	a0 93 3c 01 	sts	0x013C, r26	; 0x80013c <timestamp+0x2>
    1710:	b0 93 3d 01 	sts	0x013D, r27	; 0x80013d <timestamp+0x3>
    1714:	b0 9b       	sbis	0x16, 0	; 22
    1716:	1b c0       	rjmp	.+54     	; 0x174e <__vector_19+0x98>
    1718:	40 91 84 00 	lds	r20, 0x0084	; 0x800084 <__TEXT_REGION_LENGTH__+0x7fc084>
    171c:	50 91 85 00 	lds	r21, 0x0085	; 0x800085 <__TEXT_REGION_LENGTH__+0x7fc085>
    1720:	c9 01       	movw	r24, r18
    1722:	01 96       	adiw	r24, 0x01	; 1
    1724:	09 2e       	mov	r0, r25
    1726:	00 0c       	add	r0, r0
    1728:	aa 0b       	sbc	r26, r26
    172a:	bb 0b       	sbc	r27, r27
    172c:	dc 01       	movw	r26, r24
    172e:	99 27       	eor	r25, r25
    1730:	88 27       	eor	r24, r24
    1732:	60 e0       	ldi	r22, 0x00	; 0
    1734:	70 e0       	ldi	r23, 0x00	; 0
    1736:	84 2b       	or	r24, r20
    1738:	95 2b       	or	r25, r21
    173a:	a6 2b       	or	r26, r22
    173c:	b7 2b       	or	r27, r23
    173e:	80 93 3a 01 	sts	0x013A, r24	; 0x80013a <timestamp>
    1742:	90 93 3b 01 	sts	0x013B, r25	; 0x80013b <timestamp+0x1>
    1746:	a0 93 3c 01 	sts	0x013C, r26	; 0x80013c <timestamp+0x2>
    174a:	b0 93 3d 01 	sts	0x013D, r27	; 0x80013d <timestamp+0x3>
    174e:	e0 91 f6 01 	lds	r30, 0x01F6	; 0x8001f6 <mtable+0x1c>
    1752:	f0 91 f7 01 	lds	r31, 0x01F7	; 0x8001f7 <mtable+0x1d>
    1756:	30 97       	sbiw	r30, 0x00	; 0
    1758:	39 f0       	breq	.+14     	; 0x1768 <__vector_19+0xb2>
    175a:	6e e0       	ldi	r22, 0x0E	; 14
    175c:	70 e0       	ldi	r23, 0x00	; 0
    175e:	80 91 5e 01 	lds	r24, 0x015E	; 0x80015e <otable+0x1c>
    1762:	90 91 5f 01 	lds	r25, 0x015F	; 0x80015f <otable+0x1d>
    1766:	09 95       	icall
    1768:	0e 94 28 05 	call	0xa50	; 0xa50 <schedule>
    176c:	ff 91       	pop	r31
    176e:	ef 91       	pop	r30
    1770:	bf 91       	pop	r27
    1772:	af 91       	pop	r26
    1774:	9f 91       	pop	r25
    1776:	8f 91       	pop	r24
    1778:	7f 91       	pop	r23
    177a:	6f 91       	pop	r22
    177c:	5f 91       	pop	r21
    177e:	4f 91       	pop	r20
    1780:	3f 91       	pop	r19
    1782:	2f 91       	pop	r18
    1784:	0f 90       	pop	r0
    1786:	0f be       	out	0x3f, r0	; 63
    1788:	0f 90       	pop	r0
    178a:	1f 90       	pop	r1
    178c:	18 95       	reti

0000178e <__vector_20>:
    178e:	1f 92       	push	r1
    1790:	0f 92       	push	r0
    1792:	0f b6       	in	r0, 0x3f	; 63
    1794:	0f 92       	push	r0
    1796:	11 24       	eor	r1, r1
    1798:	2f 93       	push	r18
    179a:	3f 93       	push	r19
    179c:	4f 93       	push	r20
    179e:	5f 93       	push	r21
    17a0:	6f 93       	push	r22
    17a2:	7f 93       	push	r23
    17a4:	8f 93       	push	r24
    17a6:	9f 93       	push	r25
    17a8:	af 93       	push	r26
    17aa:	bf 93       	push	r27
    17ac:	ef 93       	push	r30
    17ae:	ff 93       	push	r31
    17b0:	20 91 38 01 	lds	r18, 0x0138	; 0x800138 <__data_end>
    17b4:	30 91 39 01 	lds	r19, 0x0139	; 0x800139 <__data_end+0x1>
    17b8:	40 91 84 00 	lds	r20, 0x0084	; 0x800084 <__TEXT_REGION_LENGTH__+0x7fc084>
    17bc:	50 91 85 00 	lds	r21, 0x0085	; 0x800085 <__TEXT_REGION_LENGTH__+0x7fc085>
    17c0:	c9 01       	movw	r24, r18
    17c2:	03 2e       	mov	r0, r19
    17c4:	00 0c       	add	r0, r0
    17c6:	aa 0b       	sbc	r26, r26
    17c8:	bb 0b       	sbc	r27, r27
    17ca:	dc 01       	movw	r26, r24
    17cc:	99 27       	eor	r25, r25
    17ce:	88 27       	eor	r24, r24
    17d0:	60 e0       	ldi	r22, 0x00	; 0
    17d2:	70 e0       	ldi	r23, 0x00	; 0
    17d4:	84 2b       	or	r24, r20
    17d6:	95 2b       	or	r25, r21
    17d8:	a6 2b       	or	r26, r22
    17da:	b7 2b       	or	r27, r23
    17dc:	80 93 3a 01 	sts	0x013A, r24	; 0x80013a <timestamp>
    17e0:	90 93 3b 01 	sts	0x013B, r25	; 0x80013b <timestamp+0x1>
    17e4:	a0 93 3c 01 	sts	0x013C, r26	; 0x80013c <timestamp+0x2>
    17e8:	b0 93 3d 01 	sts	0x013D, r27	; 0x80013d <timestamp+0x3>
    17ec:	b0 9b       	sbis	0x16, 0	; 22
    17ee:	1b c0       	rjmp	.+54     	; 0x1826 <__vector_20+0x98>
    17f0:	40 91 84 00 	lds	r20, 0x0084	; 0x800084 <__TEXT_REGION_LENGTH__+0x7fc084>
    17f4:	50 91 85 00 	lds	r21, 0x0085	; 0x800085 <__TEXT_REGION_LENGTH__+0x7fc085>
    17f8:	c9 01       	movw	r24, r18
    17fa:	01 96       	adiw	r24, 0x01	; 1
    17fc:	09 2e       	mov	r0, r25
    17fe:	00 0c       	add	r0, r0
    1800:	aa 0b       	sbc	r26, r26
    1802:	bb 0b       	sbc	r27, r27
    1804:	dc 01       	movw	r26, r24
    1806:	99 27       	eor	r25, r25
    1808:	88 27       	eor	r24, r24
    180a:	60 e0       	ldi	r22, 0x00	; 0
    180c:	70 e0       	ldi	r23, 0x00	; 0
    180e:	84 2b       	or	r24, r20
    1810:	95 2b       	or	r25, r21
    1812:	a6 2b       	or	r26, r22
    1814:	b7 2b       	or	r27, r23
    1816:	80 93 3a 01 	sts	0x013A, r24	; 0x80013a <timestamp>
    181a:	90 93 3b 01 	sts	0x013B, r25	; 0x80013b <timestamp+0x1>
    181e:	a0 93 3c 01 	sts	0x013C, r26	; 0x80013c <timestamp+0x2>
    1822:	b0 93 3d 01 	sts	0x013D, r27	; 0x80013d <timestamp+0x3>
    1826:	e0 91 f8 01 	lds	r30, 0x01F8	; 0x8001f8 <mtable+0x1e>
    182a:	f0 91 f9 01 	lds	r31, 0x01F9	; 0x8001f9 <mtable+0x1f>
    182e:	30 97       	sbiw	r30, 0x00	; 0
    1830:	39 f0       	breq	.+14     	; 0x1840 <__vector_20+0xb2>
    1832:	6f e0       	ldi	r22, 0x0F	; 15
    1834:	70 e0       	ldi	r23, 0x00	; 0
    1836:	80 91 60 01 	lds	r24, 0x0160	; 0x800160 <otable+0x1e>
    183a:	90 91 61 01 	lds	r25, 0x0161	; 0x800161 <otable+0x1f>
    183e:	09 95       	icall
    1840:	0e 94 28 05 	call	0xa50	; 0xa50 <schedule>
    1844:	ff 91       	pop	r31
    1846:	ef 91       	pop	r30
    1848:	bf 91       	pop	r27
    184a:	af 91       	pop	r26
    184c:	9f 91       	pop	r25
    184e:	8f 91       	pop	r24
    1850:	7f 91       	pop	r23
    1852:	6f 91       	pop	r22
    1854:	5f 91       	pop	r21
    1856:	4f 91       	pop	r20
    1858:	3f 91       	pop	r19
    185a:	2f 91       	pop	r18
    185c:	0f 90       	pop	r0
    185e:	0f be       	out	0x3f, r0	; 63
    1860:	0f 90       	pop	r0
    1862:	1f 90       	pop	r1
    1864:	18 95       	reti

00001866 <__vector_21>:
    1866:	1f 92       	push	r1
    1868:	0f 92       	push	r0
    186a:	0f b6       	in	r0, 0x3f	; 63
    186c:	0f 92       	push	r0
    186e:	11 24       	eor	r1, r1
    1870:	2f 93       	push	r18
    1872:	3f 93       	push	r19
    1874:	4f 93       	push	r20
    1876:	5f 93       	push	r21
    1878:	6f 93       	push	r22
    187a:	7f 93       	push	r23
    187c:	8f 93       	push	r24
    187e:	9f 93       	push	r25
    1880:	af 93       	push	r26
    1882:	bf 93       	push	r27
    1884:	ef 93       	push	r30
    1886:	ff 93       	push	r31
    1888:	20 91 38 01 	lds	r18, 0x0138	; 0x800138 <__data_end>
    188c:	30 91 39 01 	lds	r19, 0x0139	; 0x800139 <__data_end+0x1>
    1890:	40 91 84 00 	lds	r20, 0x0084	; 0x800084 <__TEXT_REGION_LENGTH__+0x7fc084>
    1894:	50 91 85 00 	lds	r21, 0x0085	; 0x800085 <__TEXT_REGION_LENGTH__+0x7fc085>
    1898:	c9 01       	movw	r24, r18
    189a:	03 2e       	mov	r0, r19
    189c:	00 0c       	add	r0, r0
    189e:	aa 0b       	sbc	r26, r26
    18a0:	bb 0b       	sbc	r27, r27
    18a2:	dc 01       	movw	r26, r24
    18a4:	99 27       	eor	r25, r25
    18a6:	88 27       	eor	r24, r24
    18a8:	60 e0       	ldi	r22, 0x00	; 0
    18aa:	70 e0       	ldi	r23, 0x00	; 0
    18ac:	84 2b       	or	r24, r20
    18ae:	95 2b       	or	r25, r21
    18b0:	a6 2b       	or	r26, r22
    18b2:	b7 2b       	or	r27, r23
    18b4:	80 93 3a 01 	sts	0x013A, r24	; 0x80013a <timestamp>
    18b8:	90 93 3b 01 	sts	0x013B, r25	; 0x80013b <timestamp+0x1>
    18bc:	a0 93 3c 01 	sts	0x013C, r26	; 0x80013c <timestamp+0x2>
    18c0:	b0 93 3d 01 	sts	0x013D, r27	; 0x80013d <timestamp+0x3>
    18c4:	b0 9b       	sbis	0x16, 0	; 22
    18c6:	1b c0       	rjmp	.+54     	; 0x18fe <__vector_21+0x98>
    18c8:	40 91 84 00 	lds	r20, 0x0084	; 0x800084 <__TEXT_REGION_LENGTH__+0x7fc084>
    18cc:	50 91 85 00 	lds	r21, 0x0085	; 0x800085 <__TEXT_REGION_LENGTH__+0x7fc085>
    18d0:	c9 01       	movw	r24, r18
    18d2:	01 96       	adiw	r24, 0x01	; 1
    18d4:	09 2e       	mov	r0, r25
    18d6:	00 0c       	add	r0, r0
    18d8:	aa 0b       	sbc	r26, r26
    18da:	bb 0b       	sbc	r27, r27
    18dc:	dc 01       	movw	r26, r24
    18de:	99 27       	eor	r25, r25
    18e0:	88 27       	eor	r24, r24
    18e2:	60 e0       	ldi	r22, 0x00	; 0
    18e4:	70 e0       	ldi	r23, 0x00	; 0
    18e6:	84 2b       	or	r24, r20
    18e8:	95 2b       	or	r25, r21
    18ea:	a6 2b       	or	r26, r22
    18ec:	b7 2b       	or	r27, r23
    18ee:	80 93 3a 01 	sts	0x013A, r24	; 0x80013a <timestamp>
    18f2:	90 93 3b 01 	sts	0x013B, r25	; 0x80013b <timestamp+0x1>
    18f6:	a0 93 3c 01 	sts	0x013C, r26	; 0x80013c <timestamp+0x2>
    18fa:	b0 93 3d 01 	sts	0x013D, r27	; 0x80013d <timestamp+0x3>
    18fe:	e0 91 fa 01 	lds	r30, 0x01FA	; 0x8001fa <mtable+0x20>
    1902:	f0 91 fb 01 	lds	r31, 0x01FB	; 0x8001fb <mtable+0x21>
    1906:	30 97       	sbiw	r30, 0x00	; 0
    1908:	39 f0       	breq	.+14     	; 0x1918 <__vector_21+0xb2>
    190a:	60 e1       	ldi	r22, 0x10	; 16
    190c:	70 e0       	ldi	r23, 0x00	; 0
    190e:	80 91 62 01 	lds	r24, 0x0162	; 0x800162 <otable+0x20>
    1912:	90 91 63 01 	lds	r25, 0x0163	; 0x800163 <otable+0x21>
    1916:	09 95       	icall
    1918:	0e 94 28 05 	call	0xa50	; 0xa50 <schedule>
    191c:	ff 91       	pop	r31
    191e:	ef 91       	pop	r30
    1920:	bf 91       	pop	r27
    1922:	af 91       	pop	r26
    1924:	9f 91       	pop	r25
    1926:	8f 91       	pop	r24
    1928:	7f 91       	pop	r23
    192a:	6f 91       	pop	r22
    192c:	5f 91       	pop	r21
    192e:	4f 91       	pop	r20
    1930:	3f 91       	pop	r19
    1932:	2f 91       	pop	r18
    1934:	0f 90       	pop	r0
    1936:	0f be       	out	0x3f, r0	; 63
    1938:	0f 90       	pop	r0
    193a:	1f 90       	pop	r1
    193c:	18 95       	reti

0000193e <__vector_22>:
    193e:	1f 92       	push	r1
    1940:	0f 92       	push	r0
    1942:	0f b6       	in	r0, 0x3f	; 63
    1944:	0f 92       	push	r0
    1946:	11 24       	eor	r1, r1
    1948:	2f 93       	push	r18
    194a:	3f 93       	push	r19
    194c:	4f 93       	push	r20
    194e:	5f 93       	push	r21
    1950:	6f 93       	push	r22
    1952:	7f 93       	push	r23
    1954:	8f 93       	push	r24
    1956:	9f 93       	push	r25
    1958:	af 93       	push	r26
    195a:	bf 93       	push	r27
    195c:	ef 93       	push	r30
    195e:	ff 93       	push	r31
    1960:	20 91 38 01 	lds	r18, 0x0138	; 0x800138 <__data_end>
    1964:	30 91 39 01 	lds	r19, 0x0139	; 0x800139 <__data_end+0x1>
    1968:	40 91 84 00 	lds	r20, 0x0084	; 0x800084 <__TEXT_REGION_LENGTH__+0x7fc084>
    196c:	50 91 85 00 	lds	r21, 0x0085	; 0x800085 <__TEXT_REGION_LENGTH__+0x7fc085>
    1970:	c9 01       	movw	r24, r18
    1972:	03 2e       	mov	r0, r19
    1974:	00 0c       	add	r0, r0
    1976:	aa 0b       	sbc	r26, r26
    1978:	bb 0b       	sbc	r27, r27
    197a:	dc 01       	movw	r26, r24
    197c:	99 27       	eor	r25, r25
    197e:	88 27       	eor	r24, r24
    1980:	60 e0       	ldi	r22, 0x00	; 0
    1982:	70 e0       	ldi	r23, 0x00	; 0
    1984:	84 2b       	or	r24, r20
    1986:	95 2b       	or	r25, r21
    1988:	a6 2b       	or	r26, r22
    198a:	b7 2b       	or	r27, r23
    198c:	80 93 3a 01 	sts	0x013A, r24	; 0x80013a <timestamp>
    1990:	90 93 3b 01 	sts	0x013B, r25	; 0x80013b <timestamp+0x1>
    1994:	a0 93 3c 01 	sts	0x013C, r26	; 0x80013c <timestamp+0x2>
    1998:	b0 93 3d 01 	sts	0x013D, r27	; 0x80013d <timestamp+0x3>
    199c:	b0 9b       	sbis	0x16, 0	; 22
    199e:	1b c0       	rjmp	.+54     	; 0x19d6 <__vector_22+0x98>
    19a0:	40 91 84 00 	lds	r20, 0x0084	; 0x800084 <__TEXT_REGION_LENGTH__+0x7fc084>
    19a4:	50 91 85 00 	lds	r21, 0x0085	; 0x800085 <__TEXT_REGION_LENGTH__+0x7fc085>
    19a8:	c9 01       	movw	r24, r18
    19aa:	01 96       	adiw	r24, 0x01	; 1
    19ac:	09 2e       	mov	r0, r25
    19ae:	00 0c       	add	r0, r0
    19b0:	aa 0b       	sbc	r26, r26
    19b2:	bb 0b       	sbc	r27, r27
    19b4:	dc 01       	movw	r26, r24
    19b6:	99 27       	eor	r25, r25
    19b8:	88 27       	eor	r24, r24
    19ba:	60 e0       	ldi	r22, 0x00	; 0
    19bc:	70 e0       	ldi	r23, 0x00	; 0
    19be:	84 2b       	or	r24, r20
    19c0:	95 2b       	or	r25, r21
    19c2:	a6 2b       	or	r26, r22
    19c4:	b7 2b       	or	r27, r23
    19c6:	80 93 3a 01 	sts	0x013A, r24	; 0x80013a <timestamp>
    19ca:	90 93 3b 01 	sts	0x013B, r25	; 0x80013b <timestamp+0x1>
    19ce:	a0 93 3c 01 	sts	0x013C, r26	; 0x80013c <timestamp+0x2>
    19d2:	b0 93 3d 01 	sts	0x013D, r27	; 0x80013d <timestamp+0x3>
    19d6:	e0 91 fc 01 	lds	r30, 0x01FC	; 0x8001fc <mtable+0x22>
    19da:	f0 91 fd 01 	lds	r31, 0x01FD	; 0x8001fd <mtable+0x23>
    19de:	30 97       	sbiw	r30, 0x00	; 0
    19e0:	39 f0       	breq	.+14     	; 0x19f0 <__vector_22+0xb2>
    19e2:	61 e1       	ldi	r22, 0x11	; 17
    19e4:	70 e0       	ldi	r23, 0x00	; 0
    19e6:	80 91 64 01 	lds	r24, 0x0164	; 0x800164 <otable+0x22>
    19ea:	90 91 65 01 	lds	r25, 0x0165	; 0x800165 <otable+0x23>
    19ee:	09 95       	icall
    19f0:	0e 94 28 05 	call	0xa50	; 0xa50 <schedule>
    19f4:	ff 91       	pop	r31
    19f6:	ef 91       	pop	r30
    19f8:	bf 91       	pop	r27
    19fa:	af 91       	pop	r26
    19fc:	9f 91       	pop	r25
    19fe:	8f 91       	pop	r24
    1a00:	7f 91       	pop	r23
    1a02:	6f 91       	pop	r22
    1a04:	5f 91       	pop	r21
    1a06:	4f 91       	pop	r20
    1a08:	3f 91       	pop	r19
    1a0a:	2f 91       	pop	r18
    1a0c:	0f 90       	pop	r0
    1a0e:	0f be       	out	0x3f, r0	; 63
    1a10:	0f 90       	pop	r0
    1a12:	1f 90       	pop	r1
    1a14:	18 95       	reti

00001a16 <__vector_9>:
    1a16:	1f 92       	push	r1
    1a18:	0f 92       	push	r0
    1a1a:	0f b6       	in	r0, 0x3f	; 63
    1a1c:	0f 92       	push	r0
    1a1e:	11 24       	eor	r1, r1
    1a20:	2f 93       	push	r18
    1a22:	3f 93       	push	r19
    1a24:	4f 93       	push	r20
    1a26:	5f 93       	push	r21
    1a28:	6f 93       	push	r22
    1a2a:	7f 93       	push	r23
    1a2c:	8f 93       	push	r24
    1a2e:	9f 93       	push	r25
    1a30:	ef 93       	push	r30
    1a32:	ff 93       	push	r31
    1a34:	80 91 38 01 	lds	r24, 0x0138	; 0x800138 <__data_end>
    1a38:	90 91 39 01 	lds	r25, 0x0139	; 0x800139 <__data_end+0x1>
    1a3c:	01 96       	adiw	r24, 0x01	; 1
    1a3e:	90 93 39 01 	sts	0x0139, r25	; 0x800139 <__data_end+0x1>
    1a42:	80 93 38 01 	sts	0x0138, r24	; 0x800138 <__data_end>
    1a46:	e0 91 3e 01 	lds	r30, 0x013E	; 0x80013e <timerQ>
    1a4a:	f0 91 3f 01 	lds	r31, 0x013F	; 0x80013f <timerQ+0x1>
    1a4e:	30 97       	sbiw	r30, 0x00	; 0
    1a50:	39 f0       	breq	.+14     	; 0x1a60 <__vector_9+0x4a>
    1a52:	42 81       	ldd	r20, Z+2	; 0x02
    1a54:	53 81       	ldd	r21, Z+3	; 0x03
    1a56:	64 81       	ldd	r22, Z+4	; 0x04
    1a58:	75 81       	ldd	r23, Z+5	; 0x05
    1a5a:	86 17       	cp	r24, r22
    1a5c:	97 07       	cpc	r25, r23
    1a5e:	a1 f0       	breq	.+40     	; 0x1a88 <__vector_9+0x72>
    1a60:	80 91 6f 00 	lds	r24, 0x006F	; 0x80006f <__TEXT_REGION_LENGTH__+0x7fc06f>
    1a64:	8d 7f       	andi	r24, 0xFD	; 253
    1a66:	80 93 6f 00 	sts	0x006F, r24	; 0x80006f <__TEXT_REGION_LENGTH__+0x7fc06f>
    1a6a:	ff 91       	pop	r31
    1a6c:	ef 91       	pop	r30
    1a6e:	9f 91       	pop	r25
    1a70:	8f 91       	pop	r24
    1a72:	7f 91       	pop	r23
    1a74:	6f 91       	pop	r22
    1a76:	5f 91       	pop	r21
    1a78:	4f 91       	pop	r20
    1a7a:	3f 91       	pop	r19
    1a7c:	2f 91       	pop	r18
    1a7e:	0f 90       	pop	r0
    1a80:	0f be       	out	0x3f, r0	; 63
    1a82:	0f 90       	pop	r0
    1a84:	1f 90       	pop	r1
    1a86:	18 95       	reti
    1a88:	ca 01       	movw	r24, r20
    1a8a:	20 91 84 00 	lds	r18, 0x0084	; 0x800084 <__TEXT_REGION_LENGTH__+0x7fc084>
    1a8e:	30 91 85 00 	lds	r19, 0x0085	; 0x800085 <__TEXT_REGION_LENGTH__+0x7fc085>
    1a92:	42 1b       	sub	r20, r18
    1a94:	53 0b       	sbc	r21, r19
    1a96:	41 30       	cpi	r20, 0x01	; 1
    1a98:	51 05       	cpc	r21, r1
    1a9a:	51 f0       	breq	.+20     	; 0x1ab0 <__vector_9+0x9a>
    1a9c:	90 93 89 00 	sts	0x0089, r25	; 0x800089 <__TEXT_REGION_LENGTH__+0x7fc089>
    1aa0:	80 93 88 00 	sts	0x0088, r24	; 0x800088 <__TEXT_REGION_LENGTH__+0x7fc088>
    1aa4:	80 91 6f 00 	lds	r24, 0x006F	; 0x80006f <__TEXT_REGION_LENGTH__+0x7fc06f>
    1aa8:	82 60       	ori	r24, 0x02	; 2
    1aaa:	80 93 6f 00 	sts	0x006F, r24	; 0x80006f <__TEXT_REGION_LENGTH__+0x7fc06f>
    1aae:	dd cf       	rjmp	.-70     	; 0x1a6a <__vector_9+0x54>
    1ab0:	80 91 84 00 	lds	r24, 0x0084	; 0x800084 <__TEXT_REGION_LENGTH__+0x7fc084>
    1ab4:	90 91 85 00 	lds	r25, 0x0085	; 0x800085 <__TEXT_REGION_LENGTH__+0x7fc085>
    1ab8:	01 96       	adiw	r24, 0x01	; 1
    1aba:	f0 cf       	rjmp	.-32     	; 0x1a9c <__vector_9+0x86>

00001abc <__vector_7>:
    1abc:	1f 92       	push	r1
    1abe:	0f 92       	push	r0
    1ac0:	0f b6       	in	r0, 0x3f	; 63
    1ac2:	0f 92       	push	r0
    1ac4:	11 24       	eor	r1, r1
    1ac6:	8f 92       	push	r8
    1ac8:	9f 92       	push	r9
    1aca:	af 92       	push	r10
    1acc:	bf 92       	push	r11
    1ace:	cf 92       	push	r12
    1ad0:	df 92       	push	r13
    1ad2:	ef 92       	push	r14
    1ad4:	ff 92       	push	r15
    1ad6:	0f 93       	push	r16
    1ad8:	1f 93       	push	r17
    1ada:	2f 93       	push	r18
    1adc:	3f 93       	push	r19
    1ade:	4f 93       	push	r20
    1ae0:	5f 93       	push	r21
    1ae2:	6f 93       	push	r22
    1ae4:	7f 93       	push	r23
    1ae6:	8f 93       	push	r24
    1ae8:	9f 93       	push	r25
    1aea:	af 93       	push	r26
    1aec:	bf 93       	push	r27
    1aee:	cf 93       	push	r28
    1af0:	df 93       	push	r29
    1af2:	ef 93       	push	r30
    1af4:	ff 93       	push	r31
    1af6:	e0 90 38 01 	lds	r14, 0x0138	; 0x800138 <__data_end>
    1afa:	f0 90 39 01 	lds	r15, 0x0139	; 0x800139 <__data_end+0x1>
    1afe:	80 91 84 00 	lds	r24, 0x0084	; 0x800084 <__TEXT_REGION_LENGTH__+0x7fc084>
    1b02:	90 91 85 00 	lds	r25, 0x0085	; 0x800085 <__TEXT_REGION_LENGTH__+0x7fc085>
    1b06:	b0 99       	sbic	0x16, 0	; 22
    1b08:	98 c0       	rjmp	.+304    	; 0x1c3a <__vector_7+0x17e>
    1b0a:	47 01       	movw	r8, r14
    1b0c:	0f 2c       	mov	r0, r15
    1b0e:	00 0c       	add	r0, r0
    1b10:	aa 08       	sbc	r10, r10
    1b12:	bb 08       	sbc	r11, r11
    1b14:	54 01       	movw	r10, r8
    1b16:	99 24       	eor	r9, r9
    1b18:	88 24       	eor	r8, r8
    1b1a:	a0 e0       	ldi	r26, 0x00	; 0
    1b1c:	b0 e0       	ldi	r27, 0x00	; 0
    1b1e:	88 2a       	or	r8, r24
    1b20:	99 2a       	or	r9, r25
    1b22:	aa 2a       	or	r10, r26
    1b24:	bb 2a       	or	r11, r27
    1b26:	c0 91 3e 01 	lds	r28, 0x013E	; 0x80013e <timerQ>
    1b2a:	d0 91 3f 01 	lds	r29, 0x013F	; 0x80013f <timerQ+0x1>
    1b2e:	80 91 40 01 	lds	r24, 0x0140	; 0x800140 <msgQ>
    1b32:	90 91 41 01 	lds	r25, 0x0141	; 0x800141 <msgQ+0x1>
    1b36:	20 97       	sbiw	r28, 0x00	; 0
    1b38:	09 f4       	brne	.+2      	; 0x1b3c <__vector_7+0x80>
    1b3a:	3f c0       	rjmp	.+126    	; 0x1bba <__vector_7+0xfe>
    1b3c:	4a 81       	ldd	r20, Y+2	; 0x02
    1b3e:	5b 81       	ldd	r21, Y+3	; 0x03
    1b40:	6c 81       	ldd	r22, Y+4	; 0x04
    1b42:	7d 81       	ldd	r23, Y+5	; 0x05
    1b44:	8a 01       	movw	r16, r20
    1b46:	9b 01       	movw	r18, r22
    1b48:	08 19       	sub	r16, r8
    1b4a:	19 09       	sbc	r17, r9
    1b4c:	2a 09       	sbc	r18, r10
    1b4e:	3b 09       	sbc	r19, r11
    1b50:	10 16       	cp	r1, r16
    1b52:	11 06       	cpc	r1, r17
    1b54:	12 06       	cpc	r1, r18
    1b56:	13 06       	cpc	r1, r19
    1b58:	0c f4       	brge	.+2      	; 0x1b5c <__vector_7+0xa0>
    1b5a:	40 c0       	rjmp	.+128    	; 0x1bdc <__vector_7+0x120>
    1b5c:	d8 80       	ld	r13, Y
    1b5e:	c9 80       	ldd	r12, Y+1	; 0x01
    1b60:	00 97       	sbiw	r24, 0x00	; 0
    1b62:	b9 f1       	breq	.+110    	; 0x1bd2 <__vector_7+0x116>
    1b64:	0e 81       	ldd	r16, Y+6	; 0x06
    1b66:	1f 81       	ldd	r17, Y+7	; 0x07
    1b68:	28 85       	ldd	r18, Y+8	; 0x08
    1b6a:	39 85       	ldd	r19, Y+9	; 0x09
    1b6c:	fc 01       	movw	r30, r24
    1b6e:	46 81       	ldd	r20, Z+6	; 0x06
    1b70:	57 81       	ldd	r21, Z+7	; 0x07
    1b72:	60 85       	ldd	r22, Z+8	; 0x08
    1b74:	71 85       	ldd	r23, Z+9	; 0x09
    1b76:	04 17       	cp	r16, r20
    1b78:	15 07       	cpc	r17, r21
    1b7a:	26 07       	cpc	r18, r22
    1b7c:	37 07       	cpc	r19, r23
    1b7e:	4c f1       	brlt	.+82     	; 0x1bd2 <__vector_7+0x116>
    1b80:	dc 01       	movw	r26, r24
    1b82:	0a c0       	rjmp	.+20     	; 0x1b98 <__vector_7+0xdc>
    1b84:	46 81       	ldd	r20, Z+6	; 0x06
    1b86:	57 81       	ldd	r21, Z+7	; 0x07
    1b88:	60 85       	ldd	r22, Z+8	; 0x08
    1b8a:	71 85       	ldd	r23, Z+9	; 0x09
    1b8c:	04 17       	cp	r16, r20
    1b8e:	15 07       	cpc	r17, r21
    1b90:	26 07       	cpc	r18, r22
    1b92:	37 07       	cpc	r19, r23
    1b94:	dc f0       	brlt	.+54     	; 0x1bcc <__vector_7+0x110>
    1b96:	df 01       	movw	r26, r30
    1b98:	ed 91       	ld	r30, X+
    1b9a:	fc 91       	ld	r31, X
    1b9c:	11 97       	sbiw	r26, 0x01	; 1
    1b9e:	30 97       	sbiw	r30, 0x00	; 0
    1ba0:	89 f7       	brne	.-30     	; 0x1b84 <__vector_7+0xc8>
    1ba2:	19 82       	std	Y+1, r1	; 0x01
    1ba4:	18 82       	st	Y, r1
    1ba6:	cd 93       	st	X+, r28
    1ba8:	dc 93       	st	X, r29
    1baa:	38 2f       	mov	r19, r24
    1bac:	29 2f       	mov	r18, r25
    1bae:	cd 2d       	mov	r28, r13
    1bb0:	dc 2d       	mov	r29, r12
    1bb2:	83 2f       	mov	r24, r19
    1bb4:	92 2f       	mov	r25, r18
    1bb6:	20 97       	sbiw	r28, 0x00	; 0
    1bb8:	09 f6       	brne	.-126    	; 0x1b3c <__vector_7+0x80>
    1bba:	10 92 3f 01 	sts	0x013F, r1	; 0x80013f <timerQ+0x1>
    1bbe:	10 92 3e 01 	sts	0x013E, r1	; 0x80013e <timerQ>
    1bc2:	90 93 41 01 	sts	0x0141, r25	; 0x800141 <msgQ+0x1>
    1bc6:	80 93 40 01 	sts	0x0140, r24	; 0x800140 <msgQ>
    1bca:	13 c0       	rjmp	.+38     	; 0x1bf2 <__vector_7+0x136>
    1bcc:	f9 83       	std	Y+1, r31	; 0x01
    1bce:	e8 83       	st	Y, r30
    1bd0:	ea cf       	rjmp	.-44     	; 0x1ba6 <__vector_7+0xea>
    1bd2:	99 83       	std	Y+1, r25	; 0x01
    1bd4:	88 83       	st	Y, r24
    1bd6:	3c 2f       	mov	r19, r28
    1bd8:	2d 2f       	mov	r18, r29
    1bda:	e9 cf       	rjmp	.-46     	; 0x1bae <__vector_7+0xf2>
    1bdc:	d0 93 3f 01 	sts	0x013F, r29	; 0x80013f <timerQ+0x1>
    1be0:	c0 93 3e 01 	sts	0x013E, r28	; 0x80013e <timerQ>
    1be4:	90 93 41 01 	sts	0x0141, r25	; 0x800141 <msgQ+0x1>
    1be8:	80 93 40 01 	sts	0x0140, r24	; 0x800140 <msgQ>
    1bec:	e6 16       	cp	r14, r22
    1bee:	f7 06       	cpc	r15, r23
    1bf0:	d9 f1       	breq	.+118    	; 0x1c68 <__vector_7+0x1ac>
    1bf2:	80 91 6f 00 	lds	r24, 0x006F	; 0x80006f <__TEXT_REGION_LENGTH__+0x7fc06f>
    1bf6:	8d 7f       	andi	r24, 0xFD	; 253
    1bf8:	80 93 6f 00 	sts	0x006F, r24	; 0x80006f <__TEXT_REGION_LENGTH__+0x7fc06f>
    1bfc:	0e 94 28 05 	call	0xa50	; 0xa50 <schedule>
    1c00:	ff 91       	pop	r31
    1c02:	ef 91       	pop	r30
    1c04:	df 91       	pop	r29
    1c06:	cf 91       	pop	r28
    1c08:	bf 91       	pop	r27
    1c0a:	af 91       	pop	r26
    1c0c:	9f 91       	pop	r25
    1c0e:	8f 91       	pop	r24
    1c10:	7f 91       	pop	r23
    1c12:	6f 91       	pop	r22
    1c14:	5f 91       	pop	r21
    1c16:	4f 91       	pop	r20
    1c18:	3f 91       	pop	r19
    1c1a:	2f 91       	pop	r18
    1c1c:	1f 91       	pop	r17
    1c1e:	0f 91       	pop	r16
    1c20:	ff 90       	pop	r15
    1c22:	ef 90       	pop	r14
    1c24:	df 90       	pop	r13
    1c26:	cf 90       	pop	r12
    1c28:	bf 90       	pop	r11
    1c2a:	af 90       	pop	r10
    1c2c:	9f 90       	pop	r9
    1c2e:	8f 90       	pop	r8
    1c30:	0f 90       	pop	r0
    1c32:	0f be       	out	0x3f, r0	; 63
    1c34:	0f 90       	pop	r0
    1c36:	1f 90       	pop	r1
    1c38:	18 95       	reti
    1c3a:	20 91 84 00 	lds	r18, 0x0084	; 0x800084 <__TEXT_REGION_LENGTH__+0x7fc084>
    1c3e:	30 91 85 00 	lds	r19, 0x0085	; 0x800085 <__TEXT_REGION_LENGTH__+0x7fc085>
    1c42:	47 01       	movw	r8, r14
    1c44:	8f ef       	ldi	r24, 0xFF	; 255
    1c46:	88 1a       	sub	r8, r24
    1c48:	98 0a       	sbc	r9, r24
    1c4a:	09 2c       	mov	r0, r9
    1c4c:	00 0c       	add	r0, r0
    1c4e:	aa 08       	sbc	r10, r10
    1c50:	bb 08       	sbc	r11, r11
    1c52:	d4 01       	movw	r26, r8
    1c54:	99 27       	eor	r25, r25
    1c56:	88 27       	eor	r24, r24
    1c58:	49 01       	movw	r8, r18
    1c5a:	a1 2c       	mov	r10, r1
    1c5c:	b1 2c       	mov	r11, r1
    1c5e:	88 2a       	or	r8, r24
    1c60:	99 2a       	or	r9, r25
    1c62:	aa 2a       	or	r10, r26
    1c64:	bb 2a       	or	r11, r27
    1c66:	5f cf       	rjmp	.-322    	; 0x1b26 <__vector_7+0x6a>
    1c68:	ca 01       	movw	r24, r20
    1c6a:	20 91 84 00 	lds	r18, 0x0084	; 0x800084 <__TEXT_REGION_LENGTH__+0x7fc084>
    1c6e:	30 91 85 00 	lds	r19, 0x0085	; 0x800085 <__TEXT_REGION_LENGTH__+0x7fc085>
    1c72:	42 1b       	sub	r20, r18
    1c74:	53 0b       	sbc	r21, r19
    1c76:	41 30       	cpi	r20, 0x01	; 1
    1c78:	51 05       	cpc	r21, r1
    1c7a:	51 f0       	breq	.+20     	; 0x1c90 <__vector_7+0x1d4>
    1c7c:	90 93 89 00 	sts	0x0089, r25	; 0x800089 <__TEXT_REGION_LENGTH__+0x7fc089>
    1c80:	80 93 88 00 	sts	0x0088, r24	; 0x800088 <__TEXT_REGION_LENGTH__+0x7fc088>
    1c84:	80 91 6f 00 	lds	r24, 0x006F	; 0x80006f <__TEXT_REGION_LENGTH__+0x7fc06f>
    1c88:	82 60       	ori	r24, 0x02	; 2
    1c8a:	80 93 6f 00 	sts	0x006F, r24	; 0x80006f <__TEXT_REGION_LENGTH__+0x7fc06f>
    1c8e:	b6 cf       	rjmp	.-148    	; 0x1bfc <__vector_7+0x140>
    1c90:	80 91 84 00 	lds	r24, 0x0084	; 0x800084 <__TEXT_REGION_LENGTH__+0x7fc084>
    1c94:	90 91 85 00 	lds	r25, 0x0085	; 0x800085 <__TEXT_REGION_LENGTH__+0x7fc085>
    1c98:	01 96       	adiw	r24, 0x01	; 1
    1c9a:	f0 cf       	rjmp	.-32     	; 0x1c7c <__vector_7+0x1c0>

00001c9c <async>:
    1c9c:	3f 92       	push	r3
    1c9e:	4f 92       	push	r4
    1ca0:	5f 92       	push	r5
    1ca2:	6f 92       	push	r6
    1ca4:	7f 92       	push	r7
    1ca6:	8f 92       	push	r8
    1ca8:	9f 92       	push	r9
    1caa:	af 92       	push	r10
    1cac:	bf 92       	push	r11
    1cae:	cf 92       	push	r12
    1cb0:	df 92       	push	r13
    1cb2:	ef 92       	push	r14
    1cb4:	ff 92       	push	r15
    1cb6:	0f 93       	push	r16
    1cb8:	1f 93       	push	r17
    1cba:	cf 93       	push	r28
    1cbc:	df 93       	push	r29
    1cbe:	ef b7       	in	r30, 0x3f	; 63
    1cc0:	e0 78       	andi	r30, 0x80	; 128
    1cc2:	3e 2e       	mov	r3, r30
    1cc4:	f8 94       	cli
    1cc6:	c0 91 06 01 	lds	r28, 0x0106	; 0x800106 <msgPool>
    1cca:	d0 91 07 01 	lds	r29, 0x0107	; 0x800107 <msgPool+0x1>
    1cce:	20 97       	sbiw	r28, 0x00	; 0
    1cd0:	09 f4       	brne	.+2      	; 0x1cd4 <async+0x38>
    1cd2:	52 c1       	rjmp	.+676    	; 0x1f78 <async+0x2dc>
    1cd4:	e8 81       	ld	r30, Y
    1cd6:	f9 81       	ldd	r31, Y+1	; 0x01
    1cd8:	f0 93 07 01 	sts	0x0107, r31	; 0x800107 <msgPool+0x1>
    1cdc:	e0 93 06 01 	sts	0x0106, r30	; 0x800106 <msgPool>
    1ce0:	1b 87       	std	Y+11, r17	; 0x0b
    1ce2:	0a 87       	std	Y+10, r16	; 0x0a
    1ce4:	fd 86       	std	Y+13, r15	; 0x0d
    1ce6:	ec 86       	std	Y+12, r14	; 0x0c
    1ce8:	df 86       	std	Y+15, r13	; 0x0f
    1cea:	ce 86       	std	Y+14, r12	; 0x0e
    1cec:	33 20       	and	r3, r3
    1cee:	09 f4       	brne	.+2      	; 0x1cf2 <async+0x56>
    1cf0:	6f c0       	rjmp	.+222    	; 0x1dd0 <async+0x134>
    1cf2:	e0 91 00 01 	lds	r30, 0x0100	; 0x800100 <__DATA_REGION_ORIGIN__>
    1cf6:	f0 91 01 01 	lds	r31, 0x0101	; 0x800101 <__DATA_REGION_ORIGIN__+0x1>
    1cfa:	02 80       	ldd	r0, Z+2	; 0x02
    1cfc:	f3 81       	ldd	r31, Z+3	; 0x03
    1cfe:	e0 2d       	mov	r30, r0
    1d00:	c2 80       	ldd	r12, Z+2	; 0x02
    1d02:	d3 80       	ldd	r13, Z+3	; 0x03
    1d04:	e4 80       	ldd	r14, Z+4	; 0x04
    1d06:	f5 80       	ldd	r15, Z+5	; 0x05
    1d08:	c6 0e       	add	r12, r22
    1d0a:	d7 1e       	adc	r13, r23
    1d0c:	e8 1e       	adc	r14, r24
    1d0e:	f9 1e       	adc	r15, r25
    1d10:	ca 82       	std	Y+2, r12	; 0x02
    1d12:	db 82       	std	Y+3, r13	; 0x03
    1d14:	ec 82       	std	Y+4, r14	; 0x04
    1d16:	fd 82       	std	Y+5, r15	; 0x05
    1d18:	12 16       	cp	r1, r18
    1d1a:	13 06       	cpc	r1, r19
    1d1c:	14 06       	cpc	r1, r20
    1d1e:	15 06       	cpc	r1, r21
    1d20:	0c f0       	brlt	.+2      	; 0x1d24 <async+0x88>
    1d22:	f8 c0       	rjmp	.+496    	; 0x1f14 <async+0x278>
    1d24:	da 01       	movw	r26, r20
    1d26:	c9 01       	movw	r24, r18
    1d28:	8c 01       	movw	r16, r24
    1d2a:	9d 01       	movw	r18, r26
    1d2c:	0c 0d       	add	r16, r12
    1d2e:	1d 1d       	adc	r17, r13
    1d30:	2e 1d       	adc	r18, r14
    1d32:	3f 1d       	adc	r19, r15
    1d34:	0e 83       	std	Y+6, r16	; 0x06
    1d36:	1f 83       	std	Y+7, r17	; 0x07
    1d38:	28 87       	std	Y+8, r18	; 0x08
    1d3a:	39 87       	std	Y+9, r19	; 0x09
    1d3c:	80 91 38 01 	lds	r24, 0x0138	; 0x800138 <__data_end>
    1d40:	90 91 39 01 	lds	r25, 0x0139	; 0x800139 <__data_end+0x1>
    1d44:	60 91 84 00 	lds	r22, 0x0084	; 0x800084 <__TEXT_REGION_LENGTH__+0x7fc084>
    1d48:	70 91 85 00 	lds	r23, 0x0085	; 0x800085 <__TEXT_REGION_LENGTH__+0x7fc085>
    1d4c:	b0 99       	sbic	0x16, 0	; 22
    1d4e:	49 c0       	rjmp	.+146    	; 0x1de2 <async+0x146>
    1d50:	2c 01       	movw	r4, r24
    1d52:	09 2e       	mov	r0, r25
    1d54:	00 0c       	add	r0, r0
    1d56:	66 08       	sbc	r6, r6
    1d58:	77 08       	sbc	r7, r7
    1d5a:	52 01       	movw	r10, r4
    1d5c:	99 24       	eor	r9, r9
    1d5e:	88 24       	eor	r8, r8
    1d60:	2b 01       	movw	r4, r22
    1d62:	61 2c       	mov	r6, r1
    1d64:	71 2c       	mov	r7, r1
    1d66:	48 28       	or	r4, r8
    1d68:	59 28       	or	r5, r9
    1d6a:	6a 28       	or	r6, r10
    1d6c:	7b 28       	or	r7, r11
    1d6e:	b7 01       	movw	r22, r14
    1d70:	a6 01       	movw	r20, r12
    1d72:	44 19       	sub	r20, r4
    1d74:	55 09       	sbc	r21, r5
    1d76:	66 09       	sbc	r22, r6
    1d78:	77 09       	sbc	r23, r7
    1d7a:	14 16       	cp	r1, r20
    1d7c:	15 06       	cpc	r1, r21
    1d7e:	16 06       	cpc	r1, r22
    1d80:	17 06       	cpc	r1, r23
    1d82:	0c f0       	brlt	.+2      	; 0x1d86 <async+0xea>
    1d84:	68 c0       	rjmp	.+208    	; 0x1e56 <async+0x1ba>
    1d86:	a0 91 3e 01 	lds	r26, 0x013E	; 0x80013e <timerQ>
    1d8a:	b0 91 3f 01 	lds	r27, 0x013F	; 0x80013f <timerQ+0x1>
    1d8e:	10 97       	sbiw	r26, 0x00	; 0
    1d90:	09 f4       	brne	.+2      	; 0x1d94 <async+0xf8>
    1d92:	dc c0       	rjmp	.+440    	; 0x1f4c <async+0x2b0>
    1d94:	12 96       	adiw	r26, 0x02	; 2
    1d96:	0d 91       	ld	r16, X+
    1d98:	1d 91       	ld	r17, X+
    1d9a:	2d 91       	ld	r18, X+
    1d9c:	3c 91       	ld	r19, X
    1d9e:	15 97       	sbiw	r26, 0x05	; 5
    1da0:	c0 16       	cp	r12, r16
    1da2:	d1 06       	cpc	r13, r17
    1da4:	e2 06       	cpc	r14, r18
    1da6:	f3 06       	cpc	r15, r19
    1da8:	5c f4       	brge	.+22     	; 0x1dc0 <async+0x124>
    1daa:	d0 c0       	rjmp	.+416    	; 0x1f4c <async+0x2b0>
    1dac:	42 81       	ldd	r20, Z+2	; 0x02
    1dae:	53 81       	ldd	r21, Z+3	; 0x03
    1db0:	64 81       	ldd	r22, Z+4	; 0x04
    1db2:	75 81       	ldd	r23, Z+5	; 0x05
    1db4:	c4 16       	cp	r12, r20
    1db6:	d5 06       	cpc	r13, r21
    1db8:	e6 06       	cpc	r14, r22
    1dba:	f7 06       	cpc	r15, r23
    1dbc:	4c f1       	brlt	.+82     	; 0x1e10 <async+0x174>
    1dbe:	df 01       	movw	r26, r30
    1dc0:	ed 91       	ld	r30, X+
    1dc2:	fc 91       	ld	r31, X
    1dc4:	11 97       	sbiw	r26, 0x01	; 1
    1dc6:	30 97       	sbiw	r30, 0x00	; 0
    1dc8:	89 f7       	brne	.-30     	; 0x1dac <async+0x110>
    1dca:	19 82       	std	Y+1, r1	; 0x01
    1dcc:	18 82       	st	Y, r1
    1dce:	22 c0       	rjmp	.+68     	; 0x1e14 <async+0x178>
    1dd0:	c0 90 3a 01 	lds	r12, 0x013A	; 0x80013a <timestamp>
    1dd4:	d0 90 3b 01 	lds	r13, 0x013B	; 0x80013b <timestamp+0x1>
    1dd8:	e0 90 3c 01 	lds	r14, 0x013C	; 0x80013c <timestamp+0x2>
    1ddc:	f0 90 3d 01 	lds	r15, 0x013D	; 0x80013d <timestamp+0x3>
    1de0:	93 cf       	rjmp	.-218    	; 0x1d08 <async+0x6c>
    1de2:	e0 91 84 00 	lds	r30, 0x0084	; 0x800084 <__TEXT_REGION_LENGTH__+0x7fc084>
    1de6:	f0 91 85 00 	lds	r31, 0x0085	; 0x800085 <__TEXT_REGION_LENGTH__+0x7fc085>
    1dea:	2c 01       	movw	r4, r24
    1dec:	4f ef       	ldi	r20, 0xFF	; 255
    1dee:	44 1a       	sub	r4, r20
    1df0:	54 0a       	sbc	r5, r20
    1df2:	05 2c       	mov	r0, r5
    1df4:	00 0c       	add	r0, r0
    1df6:	66 08       	sbc	r6, r6
    1df8:	77 08       	sbc	r7, r7
    1dfa:	b2 01       	movw	r22, r4
    1dfc:	55 27       	eor	r21, r21
    1dfe:	44 27       	eor	r20, r20
    1e00:	2f 01       	movw	r4, r30
    1e02:	61 2c       	mov	r6, r1
    1e04:	71 2c       	mov	r7, r1
    1e06:	44 2a       	or	r4, r20
    1e08:	55 2a       	or	r5, r21
    1e0a:	66 2a       	or	r6, r22
    1e0c:	77 2a       	or	r7, r23
    1e0e:	af cf       	rjmp	.-162    	; 0x1d6e <async+0xd2>
    1e10:	f9 83       	std	Y+1, r31	; 0x01
    1e12:	e8 83       	st	Y, r30
    1e14:	cd 93       	st	X+, r28
    1e16:	dc 93       	st	X, r29
    1e18:	82 17       	cp	r24, r18
    1e1a:	93 07       	cpc	r25, r19
    1e1c:	09 f4       	brne	.+2      	; 0x1e20 <async+0x184>
    1e1e:	7f c0       	rjmp	.+254    	; 0x1f1e <async+0x282>
    1e20:	80 91 6f 00 	lds	r24, 0x006F	; 0x80006f <__TEXT_REGION_LENGTH__+0x7fc06f>
    1e24:	8d 7f       	andi	r24, 0xFD	; 253
    1e26:	80 93 6f 00 	sts	0x006F, r24	; 0x80006f <__TEXT_REGION_LENGTH__+0x7fc06f>
    1e2a:	33 20       	and	r3, r3
    1e2c:	09 f0       	breq	.+2      	; 0x1e30 <async+0x194>
    1e2e:	78 94       	sei
    1e30:	ce 01       	movw	r24, r28
    1e32:	df 91       	pop	r29
    1e34:	cf 91       	pop	r28
    1e36:	1f 91       	pop	r17
    1e38:	0f 91       	pop	r16
    1e3a:	ff 90       	pop	r15
    1e3c:	ef 90       	pop	r14
    1e3e:	df 90       	pop	r13
    1e40:	cf 90       	pop	r12
    1e42:	bf 90       	pop	r11
    1e44:	af 90       	pop	r10
    1e46:	9f 90       	pop	r9
    1e48:	8f 90       	pop	r8
    1e4a:	7f 90       	pop	r7
    1e4c:	6f 90       	pop	r6
    1e4e:	5f 90       	pop	r5
    1e50:	4f 90       	pop	r4
    1e52:	3f 90       	pop	r3
    1e54:	08 95       	ret
    1e56:	a0 91 40 01 	lds	r26, 0x0140	; 0x800140 <msgQ>
    1e5a:	b0 91 41 01 	lds	r27, 0x0141	; 0x800141 <msgQ+0x1>
    1e5e:	10 97       	sbiw	r26, 0x00	; 0
    1e60:	09 f4       	brne	.+2      	; 0x1e64 <async+0x1c8>
    1e62:	83 c0       	rjmp	.+262    	; 0x1f6a <async+0x2ce>
    1e64:	16 96       	adiw	r26, 0x06	; 6
    1e66:	cd 90       	ld	r12, X+
    1e68:	dd 90       	ld	r13, X+
    1e6a:	ed 90       	ld	r14, X+
    1e6c:	fc 90       	ld	r15, X
    1e6e:	19 97       	sbiw	r26, 0x09	; 9
    1e70:	0c 15       	cp	r16, r12
    1e72:	1d 05       	cpc	r17, r13
    1e74:	2e 05       	cpc	r18, r14
    1e76:	3f 05       	cpc	r19, r15
    1e78:	64 f4       	brge	.+24     	; 0x1e92 <async+0x1f6>
    1e7a:	77 c0       	rjmp	.+238    	; 0x1f6a <async+0x2ce>
    1e7c:	c6 80       	ldd	r12, Z+6	; 0x06
    1e7e:	d7 80       	ldd	r13, Z+7	; 0x07
    1e80:	e0 84       	ldd	r14, Z+8	; 0x08
    1e82:	f1 84       	ldd	r15, Z+9	; 0x09
    1e84:	0c 15       	cp	r16, r12
    1e86:	1d 05       	cpc	r17, r13
    1e88:	2e 05       	cpc	r18, r14
    1e8a:	3f 05       	cpc	r19, r15
    1e8c:	0c f4       	brge	.+2      	; 0x1e90 <async+0x1f4>
    1e8e:	5b c0       	rjmp	.+182    	; 0x1f46 <async+0x2aa>
    1e90:	df 01       	movw	r26, r30
    1e92:	ed 91       	ld	r30, X+
    1e94:	fc 91       	ld	r31, X
    1e96:	11 97       	sbiw	r26, 0x01	; 1
    1e98:	30 97       	sbiw	r30, 0x00	; 0
    1e9a:	81 f7       	brne	.-32     	; 0x1e7c <async+0x1e0>
    1e9c:	19 82       	std	Y+1, r1	; 0x01
    1e9e:	18 82       	st	Y, r1
    1ea0:	cd 93       	st	X+, r28
    1ea2:	dc 93       	st	X, r29
    1ea4:	33 20       	and	r3, r3
    1ea6:	21 f2       	breq	.-120    	; 0x1e30 <async+0x194>
    1ea8:	80 91 04 01 	lds	r24, 0x0104	; 0x800104 <threadPool>
    1eac:	90 91 05 01 	lds	r25, 0x0105	; 0x800105 <threadPool+0x1>
    1eb0:	00 97       	sbiw	r24, 0x00	; 0
    1eb2:	09 f4       	brne	.+2      	; 0x1eb6 <async+0x21a>
    1eb4:	bc cf       	rjmp	.-136    	; 0x1e2e <async+0x192>
    1eb6:	e0 91 02 01 	lds	r30, 0x0102	; 0x800102 <activeStack>
    1eba:	f0 91 03 01 	lds	r31, 0x0103	; 0x800103 <activeStack+0x1>
    1ebe:	20 91 40 01 	lds	r18, 0x0140	; 0x800140 <msgQ>
    1ec2:	30 91 41 01 	lds	r19, 0x0141	; 0x800141 <msgQ+0x1>
    1ec6:	02 81       	ldd	r16, Z+2	; 0x02
    1ec8:	13 81       	ldd	r17, Z+3	; 0x03
    1eca:	d9 01       	movw	r26, r18
    1ecc:	16 96       	adiw	r26, 0x06	; 6
    1ece:	4d 91       	ld	r20, X+
    1ed0:	5d 91       	ld	r21, X+
    1ed2:	6d 91       	ld	r22, X+
    1ed4:	7c 91       	ld	r23, X
    1ed6:	19 97       	sbiw	r26, 0x09	; 9
    1ed8:	d8 01       	movw	r26, r16
    1eda:	16 96       	adiw	r26, 0x06	; 6
    1edc:	0d 91       	ld	r16, X+
    1ede:	1d 91       	ld	r17, X+
    1ee0:	2d 91       	ld	r18, X+
    1ee2:	3c 91       	ld	r19, X
    1ee4:	19 97       	sbiw	r26, 0x09	; 9
    1ee6:	40 1b       	sub	r20, r16
    1ee8:	51 0b       	sbc	r21, r17
    1eea:	62 0b       	sbc	r22, r18
    1eec:	73 0b       	sbc	r23, r19
    1eee:	77 ff       	sbrs	r23, 7
    1ef0:	9e cf       	rjmp	.-196    	; 0x1e2e <async+0x192>
    1ef2:	dc 01       	movw	r26, r24
    1ef4:	2d 91       	ld	r18, X+
    1ef6:	3c 91       	ld	r19, X
    1ef8:	11 97       	sbiw	r26, 0x01	; 1
    1efa:	30 93 05 01 	sts	0x0105, r19	; 0x800105 <threadPool+0x1>
    1efe:	20 93 04 01 	sts	0x0104, r18	; 0x800104 <threadPool>
    1f02:	ed 93       	st	X+, r30
    1f04:	fc 93       	st	X, r31
    1f06:	90 93 03 01 	sts	0x0103, r25	; 0x800103 <activeStack+0x1>
    1f0a:	80 93 02 01 	sts	0x0102, r24	; 0x800102 <activeStack>
    1f0e:	0e 94 08 05 	call	0xa10	; 0xa10 <dispatch>
    1f12:	8d cf       	rjmp	.-230    	; 0x1e2e <async+0x192>
    1f14:	8f ef       	ldi	r24, 0xFF	; 255
    1f16:	9f ef       	ldi	r25, 0xFF	; 255
    1f18:	af ef       	ldi	r26, 0xFF	; 255
    1f1a:	bf e7       	ldi	r27, 0x7F	; 127
    1f1c:	05 cf       	rjmp	.-502    	; 0x1d28 <async+0x8c>
    1f1e:	c8 01       	movw	r24, r16
    1f20:	40 91 84 00 	lds	r20, 0x0084	; 0x800084 <__TEXT_REGION_LENGTH__+0x7fc084>
    1f24:	50 91 85 00 	lds	r21, 0x0085	; 0x800085 <__TEXT_REGION_LENGTH__+0x7fc085>
    1f28:	04 1b       	sub	r16, r20
    1f2a:	15 0b       	sbc	r17, r21
    1f2c:	01 30       	cpi	r16, 0x01	; 1
    1f2e:	11 05       	cpc	r17, r1
    1f30:	b1 f0       	breq	.+44     	; 0x1f5e <async+0x2c2>
    1f32:	90 93 89 00 	sts	0x0089, r25	; 0x800089 <__TEXT_REGION_LENGTH__+0x7fc089>
    1f36:	80 93 88 00 	sts	0x0088, r24	; 0x800088 <__TEXT_REGION_LENGTH__+0x7fc088>
    1f3a:	80 91 6f 00 	lds	r24, 0x006F	; 0x80006f <__TEXT_REGION_LENGTH__+0x7fc06f>
    1f3e:	82 60       	ori	r24, 0x02	; 2
    1f40:	80 93 6f 00 	sts	0x006F, r24	; 0x80006f <__TEXT_REGION_LENGTH__+0x7fc06f>
    1f44:	72 cf       	rjmp	.-284    	; 0x1e2a <async+0x18e>
    1f46:	f9 83       	std	Y+1, r31	; 0x01
    1f48:	e8 83       	st	Y, r30
    1f4a:	aa cf       	rjmp	.-172    	; 0x1ea0 <async+0x204>
    1f4c:	b9 83       	std	Y+1, r27	; 0x01
    1f4e:	a8 83       	st	Y, r26
    1f50:	d0 93 3f 01 	sts	0x013F, r29	; 0x80013f <timerQ+0x1>
    1f54:	c0 93 3e 01 	sts	0x013E, r28	; 0x80013e <timerQ>
    1f58:	97 01       	movw	r18, r14
    1f5a:	86 01       	movw	r16, r12
    1f5c:	5d cf       	rjmp	.-326    	; 0x1e18 <async+0x17c>
    1f5e:	80 91 84 00 	lds	r24, 0x0084	; 0x800084 <__TEXT_REGION_LENGTH__+0x7fc084>
    1f62:	90 91 85 00 	lds	r25, 0x0085	; 0x800085 <__TEXT_REGION_LENGTH__+0x7fc085>
    1f66:	01 96       	adiw	r24, 0x01	; 1
    1f68:	e4 cf       	rjmp	.-56     	; 0x1f32 <async+0x296>
    1f6a:	b9 83       	std	Y+1, r27	; 0x01
    1f6c:	a8 83       	st	Y, r26
    1f6e:	d0 93 41 01 	sts	0x0141, r29	; 0x800141 <msgQ+0x1>
    1f72:	c0 93 40 01 	sts	0x0140, r28	; 0x800140 <msgQ>
    1f76:	96 cf       	rjmp	.-212    	; 0x1ea4 <async+0x208>
    1f78:	0e 94 68 05 	call	0xad0	; 0xad0 <dequeue.part.0>

00001f7c <sync>:
    1f7c:	cf 92       	push	r12
    1f7e:	df 92       	push	r13
    1f80:	ef 92       	push	r14
    1f82:	ff 92       	push	r15
    1f84:	0f 93       	push	r16
    1f86:	1f 93       	push	r17
    1f88:	cf 93       	push	r28
    1f8a:	df 93       	push	r29
    1f8c:	ec 01       	movw	r28, r24
    1f8e:	7b 01       	movw	r14, r22
    1f90:	6a 01       	movw	r12, r20
    1f92:	1f b7       	in	r17, 0x3f	; 63
    1f94:	10 78       	andi	r17, 0x80	; 128
    1f96:	f8 94       	cli
    1f98:	a8 81       	ld	r26, Y
    1f9a:	b9 81       	ldd	r27, Y+1	; 0x01
    1f9c:	10 97       	sbiw	r26, 0x00	; 0
    1f9e:	19 f4       	brne	.+6      	; 0x1fa6 <sync+0x2a>
    1fa0:	62 c0       	rjmp	.+196    	; 0x2066 <sync+0xea>
    1fa2:	a0 81       	ld	r26, Z
    1fa4:	b1 81       	ldd	r27, Z+1	; 0x01
    1fa6:	14 96       	adiw	r26, 0x04	; 4
    1fa8:	ed 91       	ld	r30, X+
    1faa:	fc 91       	ld	r31, X
    1fac:	15 97       	sbiw	r26, 0x05	; 5
    1fae:	30 97       	sbiw	r30, 0x00	; 0
    1fb0:	c1 f7       	brne	.-16     	; 0x1fa2 <sync+0x26>
    1fb2:	20 91 00 01 	lds	r18, 0x0100	; 0x800100 <__DATA_REGION_ORIGIN__>
    1fb6:	30 91 01 01 	lds	r19, 0x0101	; 0x800101 <__DATA_REGION_ORIGIN__+0x1>
    1fba:	2a 17       	cp	r18, r26
    1fbc:	3b 07       	cpc	r19, r27
    1fbe:	09 f4       	brne	.+2      	; 0x1fc2 <sync+0x46>
    1fc0:	4c c0       	rjmp	.+152    	; 0x205a <sync+0xde>
    1fc2:	11 23       	and	r17, r17
    1fc4:	a1 f1       	breq	.+104    	; 0x202e <sync+0xb2>
    1fc6:	8a 81       	ldd	r24, Y+2	; 0x02
    1fc8:	9b 81       	ldd	r25, Y+3	; 0x03
    1fca:	00 97       	sbiw	r24, 0x00	; 0
    1fcc:	19 f0       	breq	.+6      	; 0x1fd4 <sync+0x58>
    1fce:	fc 01       	movw	r30, r24
    1fd0:	15 82       	std	Z+5, r1	; 0x05
    1fd2:	14 82       	std	Z+4, r1	; 0x04
    1fd4:	3b 83       	std	Y+3, r19	; 0x03
    1fd6:	2a 83       	std	Y+2, r18	; 0x02
    1fd8:	f9 01       	movw	r30, r18
    1fda:	d5 83       	std	Z+5, r29	; 0x05
    1fdc:	c4 83       	std	Z+4, r28	; 0x04
    1fde:	cd 01       	movw	r24, r26
    1fe0:	0e 94 08 05 	call	0xa10	; 0xa10 <dispatch>
    1fe4:	e0 91 00 01 	lds	r30, 0x0100	; 0x800100 <__DATA_REGION_ORIGIN__>
    1fe8:	f0 91 01 01 	lds	r31, 0x0101	; 0x800101 <__DATA_REGION_ORIGIN__+0x1>
    1fec:	82 81       	ldd	r24, Z+2	; 0x02
    1fee:	93 81       	ldd	r25, Z+3	; 0x03
    1ff0:	89 2b       	or	r24, r25
    1ff2:	09 f4       	brne	.+2      	; 0x1ff6 <sync+0x7a>
    1ff4:	41 c0       	rjmp	.+130    	; 0x2078 <sync+0xfc>
    1ff6:	f9 83       	std	Y+1, r31	; 0x01
    1ff8:	e8 83       	st	Y, r30
    1ffa:	8a 81       	ldd	r24, Y+2	; 0x02
    1ffc:	9b 81       	ldd	r25, Y+3	; 0x03
    1ffe:	01 97       	sbiw	r24, 0x01	; 1
    2000:	09 f0       	breq	.+2      	; 0x2004 <sync+0x88>
    2002:	78 94       	sei
    2004:	b6 01       	movw	r22, r12
    2006:	ce 01       	movw	r24, r28
    2008:	f7 01       	movw	r30, r14
    200a:	09 95       	icall
    200c:	f8 2e       	mov	r15, r24
    200e:	09 2f       	mov	r16, r25
    2010:	8f b7       	in	r24, 0x3f	; 63
    2012:	f8 94       	cli
    2014:	19 82       	std	Y+1, r1	; 0x01
    2016:	18 82       	st	Y, r1
    2018:	8a 81       	ldd	r24, Y+2	; 0x02
    201a:	9b 81       	ldd	r25, Y+3	; 0x03
    201c:	82 30       	cpi	r24, 0x02	; 2
    201e:	91 05       	cpc	r25, r1
    2020:	a0 f4       	brcc	.+40     	; 0x204a <sync+0xce>
    2022:	11 23       	and	r17, r17
    2024:	79 f0       	breq	.+30     	; 0x2044 <sync+0xc8>
    2026:	78 94       	sei
    2028:	8f 2d       	mov	r24, r15
    202a:	90 2f       	mov	r25, r16
    202c:	02 c0       	rjmp	.+4      	; 0x2032 <sync+0xb6>
    202e:	8f ef       	ldi	r24, 0xFF	; 255
    2030:	9f ef       	ldi	r25, 0xFF	; 255
    2032:	df 91       	pop	r29
    2034:	cf 91       	pop	r28
    2036:	1f 91       	pop	r17
    2038:	0f 91       	pop	r16
    203a:	ff 90       	pop	r15
    203c:	ef 90       	pop	r14
    203e:	df 90       	pop	r13
    2040:	cf 90       	pop	r12
    2042:	08 95       	ret
    2044:	8f 2d       	mov	r24, r15
    2046:	90 2f       	mov	r25, r16
    2048:	f4 cf       	rjmp	.-24     	; 0x2032 <sync+0xb6>
    204a:	1b 82       	std	Y+3, r1	; 0x03
    204c:	1a 82       	std	Y+2, r1	; 0x02
    204e:	fc 01       	movw	r30, r24
    2050:	15 82       	std	Z+5, r1	; 0x05
    2052:	14 82       	std	Z+4, r1	; 0x04
    2054:	0e 94 08 05 	call	0xa10	; 0xa10 <dispatch>
    2058:	e4 cf       	rjmp	.-56     	; 0x2022 <sync+0xa6>
    205a:	11 23       	and	r17, r17
    205c:	41 f3       	breq	.-48     	; 0x202e <sync+0xb2>
    205e:	78 94       	sei
    2060:	8f ef       	ldi	r24, 0xFF	; 255
    2062:	9f ef       	ldi	r25, 0xFF	; 255
    2064:	e6 cf       	rjmp	.-52     	; 0x2032 <sync+0xb6>
    2066:	80 91 00 01 	lds	r24, 0x0100	; 0x800100 <__DATA_REGION_ORIGIN__>
    206a:	90 91 01 01 	lds	r25, 0x0101	; 0x800101 <__DATA_REGION_ORIGIN__+0x1>
    206e:	99 83       	std	Y+1, r25	; 0x01
    2070:	88 83       	st	Y, r24
    2072:	11 23       	and	r17, r17
    2074:	39 f2       	breq	.-114    	; 0x2004 <sync+0x88>
    2076:	c1 cf       	rjmp	.-126    	; 0x1ffa <sync+0x7e>
    2078:	78 94       	sei
    207a:	80 e0       	ldi	r24, 0x00	; 0
    207c:	90 e0       	ldi	r25, 0x00	; 0
    207e:	d9 cf       	rjmp	.-78     	; 0x2032 <sync+0xb6>

00002080 <run>:
    2080:	c0 91 40 01 	lds	r28, 0x0140	; 0x800140 <msgQ>
    2084:	d0 91 41 01 	lds	r29, 0x0141	; 0x800141 <msgQ+0x1>
    2088:	e0 91 00 01 	lds	r30, 0x0100	; 0x800100 <__DATA_REGION_ORIGIN__>
    208c:	f0 91 01 01 	lds	r31, 0x0101	; 0x800101 <__DATA_REGION_ORIGIN__+0x1>
    2090:	20 97       	sbiw	r28, 0x00	; 0
    2092:	09 f4       	brne	.+2      	; 0x2096 <run+0x16>
    2094:	6e c0       	rjmp	.+220    	; 0x2172 <run+0xf2>
    2096:	88 81       	ld	r24, Y
    2098:	99 81       	ldd	r25, Y+1	; 0x01
    209a:	90 93 41 01 	sts	0x0141, r25	; 0x800141 <msgQ+0x1>
    209e:	80 93 40 01 	sts	0x0140, r24	; 0x800140 <msgQ>
    20a2:	d3 83       	std	Z+3, r29	; 0x03
    20a4:	c2 83       	std	Z+2, r28	; 0x02
    20a6:	78 94       	sei
    20a8:	4e 85       	ldd	r20, Y+14	; 0x0e
    20aa:	5f 85       	ldd	r21, Y+15	; 0x0f
    20ac:	6c 85       	ldd	r22, Y+12	; 0x0c
    20ae:	7d 85       	ldd	r23, Y+13	; 0x0d
    20b0:	8a 85       	ldd	r24, Y+10	; 0x0a
    20b2:	9b 85       	ldd	r25, Y+11	; 0x0b
    20b4:	0e 94 be 0f 	call	0x1f7c	; 0x1f7c <sync>
    20b8:	8f b7       	in	r24, 0x3f	; 63
    20ba:	f8 94       	cli
    20bc:	80 91 06 01 	lds	r24, 0x0106	; 0x800106 <msgPool>
    20c0:	90 91 07 01 	lds	r25, 0x0107	; 0x800107 <msgPool+0x1>
    20c4:	99 83       	std	Y+1, r25	; 0x01
    20c6:	88 83       	st	Y, r24
    20c8:	d0 93 07 01 	sts	0x0107, r29	; 0x800107 <msgPool+0x1>
    20cc:	c0 93 06 01 	sts	0x0106, r28	; 0x800106 <msgPool>
    20d0:	e0 90 02 01 	lds	r14, 0x0102	; 0x800102 <activeStack>
    20d4:	f0 90 03 01 	lds	r15, 0x0103	; 0x800103 <activeStack+0x1>
    20d8:	f7 01       	movw	r30, r14
    20da:	a0 81       	ld	r26, Z
    20dc:	b1 81       	ldd	r27, Z+1	; 0x01
    20de:	12 96       	adiw	r26, 0x02	; 2
    20e0:	8d 91       	ld	r24, X+
    20e2:	9c 91       	ld	r25, X
    20e4:	13 97       	sbiw	r26, 0x03	; 3
    20e6:	c0 91 40 01 	lds	r28, 0x0140	; 0x800140 <msgQ>
    20ea:	d0 91 41 01 	lds	r29, 0x0141	; 0x800141 <msgQ+0x1>
    20ee:	20 97       	sbiw	r28, 0x00	; 0
    20f0:	a9 f0       	breq	.+42     	; 0x211c <run+0x9c>
    20f2:	00 97       	sbiw	r24, 0x00	; 0
    20f4:	49 f2       	breq	.-110    	; 0x2088 <run+0x8>
    20f6:	4e 81       	ldd	r20, Y+6	; 0x06
    20f8:	5f 81       	ldd	r21, Y+7	; 0x07
    20fa:	68 85       	ldd	r22, Y+8	; 0x08
    20fc:	79 85       	ldd	r23, Y+9	; 0x09
    20fe:	fc 01       	movw	r30, r24
    2100:	06 81       	ldd	r16, Z+6	; 0x06
    2102:	17 81       	ldd	r17, Z+7	; 0x07
    2104:	20 85       	ldd	r18, Z+8	; 0x08
    2106:	31 85       	ldd	r19, Z+9	; 0x09
    2108:	40 1b       	sub	r20, r16
    210a:	51 0b       	sbc	r21, r17
    210c:	62 0b       	sbc	r22, r18
    210e:	73 0b       	sbc	r23, r19
    2110:	14 16       	cp	r1, r20
    2112:	15 06       	cpc	r1, r21
    2114:	16 06       	cpc	r1, r22
    2116:	17 06       	cpc	r1, r23
    2118:	0c f0       	brlt	.+2      	; 0x211c <run+0x9c>
    211a:	b6 cf       	rjmp	.-148    	; 0x2088 <run+0x8>
    211c:	b0 93 03 01 	sts	0x0103, r27	; 0x800103 <activeStack+0x1>
    2120:	a0 93 02 01 	sts	0x0102, r26	; 0x800102 <activeStack>
    2124:	80 91 04 01 	lds	r24, 0x0104	; 0x800104 <threadPool>
    2128:	90 91 05 01 	lds	r25, 0x0105	; 0x800105 <threadPool+0x1>
    212c:	f7 01       	movw	r30, r14
    212e:	91 83       	std	Z+1, r25	; 0x01
    2130:	80 83       	st	Z, r24
    2132:	f0 92 05 01 	sts	0x0105, r15	; 0x800105 <threadPool+0x1>
    2136:	e0 92 04 01 	sts	0x0104, r14	; 0x800104 <threadPool>
    213a:	14 96       	adiw	r26, 0x04	; 4
    213c:	ed 91       	ld	r30, X+
    213e:	fc 91       	ld	r31, X
    2140:	15 97       	sbiw	r26, 0x05	; 5
    2142:	30 97       	sbiw	r30, 0x00	; 0
    2144:	41 f0       	breq	.+16     	; 0x2156 <run+0xd6>
    2146:	a0 81       	ld	r26, Z
    2148:	b1 81       	ldd	r27, Z+1	; 0x01
    214a:	14 96       	adiw	r26, 0x04	; 4
    214c:	ed 91       	ld	r30, X+
    214e:	fc 91       	ld	r31, X
    2150:	15 97       	sbiw	r26, 0x05	; 5
    2152:	30 97       	sbiw	r30, 0x00	; 0
    2154:	c1 f7       	brne	.-16     	; 0x2146 <run+0xc6>
    2156:	cd 01       	movw	r24, r26
    2158:	0e 94 08 05 	call	0xa10	; 0xa10 <dispatch>
    215c:	c0 91 40 01 	lds	r28, 0x0140	; 0x800140 <msgQ>
    2160:	d0 91 41 01 	lds	r29, 0x0141	; 0x800141 <msgQ+0x1>
    2164:	e0 91 00 01 	lds	r30, 0x0100	; 0x800100 <__DATA_REGION_ORIGIN__>
    2168:	f0 91 01 01 	lds	r31, 0x0101	; 0x800101 <__DATA_REGION_ORIGIN__+0x1>
    216c:	20 97       	sbiw	r28, 0x00	; 0
    216e:	09 f0       	breq	.+2      	; 0x2172 <run+0xf2>
    2170:	92 cf       	rjmp	.-220    	; 0x2096 <run+0x16>
    2172:	0e 94 68 05 	call	0xad0	; 0xad0 <dequeue.part.0>

00002176 <install>:
    2176:	42 31       	cpi	r20, 0x12	; 18
    2178:	b8 f4       	brcc	.+46     	; 0x21a8 <install+0x32>
    217a:	2f b7       	in	r18, 0x3f	; 63
    217c:	f8 94       	cli
    217e:	50 e0       	ldi	r21, 0x00	; 0
    2180:	44 0f       	add	r20, r20
    2182:	55 1f       	adc	r21, r21
    2184:	fa 01       	movw	r30, r20
    2186:	ee 5b       	subi	r30, 0xBE	; 190
    2188:	fe 4f       	sbci	r31, 0xFE	; 254
    218a:	91 83       	std	Z+1, r25	; 0x01
    218c:	80 83       	st	Z, r24
    218e:	fa 01       	movw	r30, r20
    2190:	e6 52       	subi	r30, 0x26	; 38
    2192:	fe 4f       	sbci	r31, 0xFE	; 254
    2194:	71 83       	std	Z+1, r23	; 0x01
    2196:	60 83       	st	Z, r22
    2198:	41 e0       	ldi	r20, 0x01	; 1
    219a:	50 e0       	ldi	r21, 0x00	; 0
    219c:	fc 01       	movw	r30, r24
    219e:	53 83       	std	Z+3, r21	; 0x03
    21a0:	42 83       	std	Z+2, r20	; 0x02
    21a2:	27 ff       	sbrs	r18, 7
    21a4:	01 c0       	rjmp	.+2      	; 0x21a8 <install+0x32>
    21a6:	78 94       	sei
    21a8:	08 95       	ret

000021aa <tinytimber>:
    21aa:	8c 01       	movw	r16, r24
    21ac:	7b 01       	movw	r14, r22
    21ae:	6a 01       	movw	r12, r20
    21b0:	8f b7       	in	r24, 0x3f	; 63
    21b2:	f8 94       	cli
    21b4:	0e 94 9d 04 	call	0x93a	; 0x93a <initialize>
    21b8:	78 94       	sei
    21ba:	e1 14       	cp	r14, r1
    21bc:	f1 04       	cpc	r15, r1
    21be:	41 f0       	breq	.+16     	; 0x21d0 <tinytimber+0x26>
    21c0:	20 e0       	ldi	r18, 0x00	; 0
    21c2:	30 e0       	ldi	r19, 0x00	; 0
    21c4:	a9 01       	movw	r20, r18
    21c6:	60 e0       	ldi	r22, 0x00	; 0
    21c8:	70 e0       	ldi	r23, 0x00	; 0
    21ca:	cb 01       	movw	r24, r22
    21cc:	0e 94 4e 0e 	call	0x1c9c	; 0x1c9c <async>
    21d0:	8f b7       	in	r24, 0x3f	; 63
    21d2:	f8 94       	cli
    21d4:	0e 94 28 05 	call	0xa50	; 0xa50 <schedule>
    21d8:	78 94       	sei
    21da:	81 e0       	ldi	r24, 0x01	; 1
    21dc:	83 bf       	out	0x33, r24	; 51
    21de:	88 95       	sleep
    21e0:	fd cf       	rjmp	.-6      	; 0x21dc <tinytimber+0x32>

000021e2 <__divmodhi4>:
    21e2:	97 fb       	bst	r25, 7
    21e4:	07 2e       	mov	r0, r23
    21e6:	16 f4       	brtc	.+4      	; 0x21ec <__divmodhi4+0xa>
    21e8:	00 94       	com	r0
    21ea:	07 d0       	rcall	.+14     	; 0x21fa <__divmodhi4_neg1>
    21ec:	77 fd       	sbrc	r23, 7
    21ee:	09 d0       	rcall	.+18     	; 0x2202 <__divmodhi4_neg2>
    21f0:	0e 94 0c 11 	call	0x2218	; 0x2218 <__udivmodhi4>
    21f4:	07 fc       	sbrc	r0, 7
    21f6:	05 d0       	rcall	.+10     	; 0x2202 <__divmodhi4_neg2>
    21f8:	3e f4       	brtc	.+14     	; 0x2208 <__divmodhi4_exit>

000021fa <__divmodhi4_neg1>:
    21fa:	90 95       	com	r25
    21fc:	81 95       	neg	r24
    21fe:	9f 4f       	sbci	r25, 0xFF	; 255
    2200:	08 95       	ret

00002202 <__divmodhi4_neg2>:
    2202:	70 95       	com	r23
    2204:	61 95       	neg	r22
    2206:	7f 4f       	sbci	r23, 0xFF	; 255

00002208 <__divmodhi4_exit>:
    2208:	08 95       	ret

0000220a <__usmulhisi3>:
    220a:	0e 94 20 11 	call	0x2240	; 0x2240 <__umulhisi3>

0000220e <__usmulhisi3_tail>:
    220e:	b7 ff       	sbrs	r27, 7
    2210:	08 95       	ret
    2212:	82 1b       	sub	r24, r18
    2214:	93 0b       	sbc	r25, r19
    2216:	08 95       	ret

00002218 <__udivmodhi4>:
    2218:	aa 1b       	sub	r26, r26
    221a:	bb 1b       	sub	r27, r27
    221c:	51 e1       	ldi	r21, 0x11	; 17
    221e:	07 c0       	rjmp	.+14     	; 0x222e <__udivmodhi4_ep>

00002220 <__udivmodhi4_loop>:
    2220:	aa 1f       	adc	r26, r26
    2222:	bb 1f       	adc	r27, r27
    2224:	a6 17       	cp	r26, r22
    2226:	b7 07       	cpc	r27, r23
    2228:	10 f0       	brcs	.+4      	; 0x222e <__udivmodhi4_ep>
    222a:	a6 1b       	sub	r26, r22
    222c:	b7 0b       	sbc	r27, r23

0000222e <__udivmodhi4_ep>:
    222e:	88 1f       	adc	r24, r24
    2230:	99 1f       	adc	r25, r25
    2232:	5a 95       	dec	r21
    2234:	a9 f7       	brne	.-22     	; 0x2220 <__udivmodhi4_loop>
    2236:	80 95       	com	r24
    2238:	90 95       	com	r25
    223a:	bc 01       	movw	r22, r24
    223c:	cd 01       	movw	r24, r26
    223e:	08 95       	ret

00002240 <__umulhisi3>:
    2240:	a2 9f       	mul	r26, r18
    2242:	b0 01       	movw	r22, r0
    2244:	b3 9f       	mul	r27, r19
    2246:	c0 01       	movw	r24, r0
    2248:	a3 9f       	mul	r26, r19
    224a:	70 0d       	add	r23, r0
    224c:	81 1d       	adc	r24, r1
    224e:	11 24       	eor	r1, r1
    2250:	91 1d       	adc	r25, r1
    2252:	b2 9f       	mul	r27, r18
    2254:	70 0d       	add	r23, r0
    2256:	81 1d       	adc	r24, r1
    2258:	11 24       	eor	r1, r1
    225a:	91 1d       	adc	r25, r1
    225c:	08 95       	ret

0000225e <setjmp>:
    225e:	dc 01       	movw	r26, r24
    2260:	2d 92       	st	X+, r2
    2262:	3d 92       	st	X+, r3
    2264:	4d 92       	st	X+, r4
    2266:	5d 92       	st	X+, r5
    2268:	6d 92       	st	X+, r6
    226a:	7d 92       	st	X+, r7
    226c:	8d 92       	st	X+, r8
    226e:	9d 92       	st	X+, r9
    2270:	ad 92       	st	X+, r10
    2272:	bd 92       	st	X+, r11
    2274:	cd 92       	st	X+, r12
    2276:	dd 92       	st	X+, r13
    2278:	ed 92       	st	X+, r14
    227a:	fd 92       	st	X+, r15
    227c:	0d 93       	st	X+, r16
    227e:	1d 93       	st	X+, r17
    2280:	cd 93       	st	X+, r28
    2282:	dd 93       	st	X+, r29
    2284:	ff 91       	pop	r31
    2286:	ef 91       	pop	r30
    2288:	8d b7       	in	r24, 0x3d	; 61
    228a:	8d 93       	st	X+, r24
    228c:	8e b7       	in	r24, 0x3e	; 62
    228e:	8d 93       	st	X+, r24
    2290:	8f b7       	in	r24, 0x3f	; 63
    2292:	8d 93       	st	X+, r24
    2294:	ed 93       	st	X+, r30
    2296:	fd 93       	st	X+, r31
    2298:	88 27       	eor	r24, r24
    229a:	99 27       	eor	r25, r25
    229c:	09 94       	ijmp

0000229e <longjmp>:
    229e:	dc 01       	movw	r26, r24
    22a0:	cb 01       	movw	r24, r22
    22a2:	81 30       	cpi	r24, 0x01	; 1
    22a4:	91 05       	cpc	r25, r1
    22a6:	81 1d       	adc	r24, r1
    22a8:	2d 90       	ld	r2, X+
    22aa:	3d 90       	ld	r3, X+
    22ac:	4d 90       	ld	r4, X+
    22ae:	5d 90       	ld	r5, X+
    22b0:	6d 90       	ld	r6, X+
    22b2:	7d 90       	ld	r7, X+
    22b4:	8d 90       	ld	r8, X+
    22b6:	9d 90       	ld	r9, X+
    22b8:	ad 90       	ld	r10, X+
    22ba:	bd 90       	ld	r11, X+
    22bc:	cd 90       	ld	r12, X+
    22be:	dd 90       	ld	r13, X+
    22c0:	ed 90       	ld	r14, X+
    22c2:	fd 90       	ld	r15, X+
    22c4:	0d 91       	ld	r16, X+
    22c6:	1d 91       	ld	r17, X+
    22c8:	cd 91       	ld	r28, X+
    22ca:	dd 91       	ld	r29, X+
    22cc:	ed 91       	ld	r30, X+
    22ce:	fd 91       	ld	r31, X+
    22d0:	0d 90       	ld	r0, X+
    22d2:	f8 94       	cli
    22d4:	fe bf       	out	0x3e, r31	; 62
    22d6:	0f be       	out	0x3f, r0	; 63
    22d8:	ed bf       	out	0x3d, r30	; 61
    22da:	ed 91       	ld	r30, X+
    22dc:	fd 91       	ld	r31, X+
    22de:	09 94       	ijmp

000022e0 <_exit>:
    22e0:	f8 94       	cli

000022e2 <__stop_program>:
    22e2:	ff cf       	rjmp	.-2      	; 0x22e2 <__stop_program>
