
Lab1-Proj.elf:     file format elf32-avr

Sections:
Idx Name          Size      VMA       LMA       File off  Algn
  0 .data         00000000  00800100  0000022a  000002be  2**0
                  ALLOC, LOAD, DATA
  1 .text         000000b4  00000000  00000000  00000094  2**1
                  CONTENTS, ALLOC, LOAD, READONLY, CODE
  2 .comment      0000002f  00000000  00000000  000002be  2**0
                  CONTENTS, READONLY
  3 .stack.descriptors.hdr 0000000e  00000000  00000000  000002ed  2**0
                  CONTENTS, READONLY
  4 .debug_info   000007b6  00000000  00000000  000002fb  2**0
                  CONTENTS, READONLY, DEBUGGING
  5 .debug_abbrev 0000074b  00000000  00000000  00000ab1  2**0
                  CONTENTS, READONLY, DEBUGGING
  6 .debug_line   00000125  00000000  00000000  000011fc  2**0
                  CONTENTS, READONLY, DEBUGGING
  7 .debug_str    000002b3  00000000  00000000  00001321  2**0
                  CONTENTS, READONLY, DEBUGGING
  8 .text         00000002  000001fa  000001fa  0000028e  2**1
                  CONTENTS, ALLOC, LOAD, READONLY, CODE
  9 .note.gnu.avr.deviceinfo 00000040  00000000  00000000  000015d4  2**2
                  CONTENTS, READONLY, DEBUGGING
 10 .text.LCD_Init 0000001a  00000100  00000100  00000194  2**1
                  CONTENTS, ALLOC, LOAD, READONLY, CODE
 11 .text.writeChar 000000d4  0000011a  0000011a  000001ae  2**1
                  CONTENTS, ALLOC, LOAD, READONLY, CODE
 12 .data.offsetPos 00000006  00800100  000001fc  00000290  2**0
                  CONTENTS, ALLOC, LOAD, DATA
 13 .data.charCodes 00000028  00800106  00000202  00000296  2**0
                  CONTENTS, ALLOC, LOAD, DATA
 14 .text.CLK_init 0000000c  000001ee  000001ee  00000282  2**1
                  CONTENTS, ALLOC, LOAD, READONLY, CODE
 15 .text.main    00000036  000000c2  000000c2  00000156  2**1
                  CONTENTS, ALLOC, LOAD, READONLY, CODE
 16 .text.__dummy_fini 00000002  000000f8  000000f8  0000018c  2**1
                  CONTENTS, ALLOC, LOAD, READONLY, CODE
 17 .text.__dummy_funcs_on_exit 00000002  000000fe  000000fe  00000192  2**1
                  CONTENTS, ALLOC, LOAD, READONLY, CODE
 18 .text.__dummy_simulator_exit 00000002  000000fa  000000fa  0000018e  2**1
                  CONTENTS, ALLOC, LOAD, READONLY, CODE
 19 .text.exit    0000000e  000000b4  000000b4  00000148  2**1
                  CONTENTS, ALLOC, LOAD, READONLY, CODE
 20 .text._Exit   00000002  000000fc  000000fc  00000190  2**1
                  CONTENTS, ALLOC, LOAD, READONLY, CODE

Disassembly of section .text:

00000000 <__vectors>:
   0:	31 c0       	rjmp	.+98     	; 0x64 <__ctors_end>
   2:	00 00       	nop
   4:	fa c0       	rjmp	.+500    	; 0x1fa <__bad_interrupt>
   6:	00 00       	nop
   8:	f8 c0       	rjmp	.+496    	; 0x1fa <__bad_interrupt>
   a:	00 00       	nop
   c:	f6 c0       	rjmp	.+492    	; 0x1fa <__bad_interrupt>
   e:	00 00       	nop
  10:	f4 c0       	rjmp	.+488    	; 0x1fa <__bad_interrupt>
  12:	00 00       	nop
  14:	f2 c0       	rjmp	.+484    	; 0x1fa <__bad_interrupt>
  16:	00 00       	nop
  18:	f0 c0       	rjmp	.+480    	; 0x1fa <__bad_interrupt>
  1a:	00 00       	nop
  1c:	ee c0       	rjmp	.+476    	; 0x1fa <__bad_interrupt>
  1e:	00 00       	nop
  20:	ec c0       	rjmp	.+472    	; 0x1fa <__bad_interrupt>
  22:	00 00       	nop
  24:	ea c0       	rjmp	.+468    	; 0x1fa <__bad_interrupt>
  26:	00 00       	nop
  28:	e8 c0       	rjmp	.+464    	; 0x1fa <__bad_interrupt>
  2a:	00 00       	nop
  2c:	e6 c0       	rjmp	.+460    	; 0x1fa <__bad_interrupt>
  2e:	00 00       	nop
  30:	e4 c0       	rjmp	.+456    	; 0x1fa <__bad_interrupt>
  32:	00 00       	nop
  34:	e2 c0       	rjmp	.+452    	; 0x1fa <__bad_interrupt>
  36:	00 00       	nop
  38:	e0 c0       	rjmp	.+448    	; 0x1fa <__bad_interrupt>
  3a:	00 00       	nop
  3c:	de c0       	rjmp	.+444    	; 0x1fa <__bad_interrupt>
  3e:	00 00       	nop
  40:	dc c0       	rjmp	.+440    	; 0x1fa <__bad_interrupt>
  42:	00 00       	nop
  44:	da c0       	rjmp	.+436    	; 0x1fa <__bad_interrupt>
  46:	00 00       	nop
  48:	d8 c0       	rjmp	.+432    	; 0x1fa <__bad_interrupt>
  4a:	00 00       	nop
  4c:	d6 c0       	rjmp	.+428    	; 0x1fa <__bad_interrupt>
  4e:	00 00       	nop
  50:	d4 c0       	rjmp	.+424    	; 0x1fa <__bad_interrupt>
  52:	00 00       	nop
  54:	d2 c0       	rjmp	.+420    	; 0x1fa <__bad_interrupt>
  56:	00 00       	nop
  58:	d0 c0       	rjmp	.+416    	; 0x1fa <__bad_interrupt>
	...

0000005c <.dinit>:
  5c:	01 00       	.word	0x0001	; ????
  5e:	01 2e       	mov	r0, r17
  60:	00 01       	movw	r0, r0
  62:	fc 00       	.word	0x00fc	; ????

00000064 <__ctors_end>:
  64:	11 24       	eor	r1, r1
  66:	1f be       	out	0x3f, r1	; 63
  68:	cf ef       	ldi	r28, 0xFF	; 255
  6a:	d4 e0       	ldi	r29, 0x04	; 4
  6c:	de bf       	out	0x3e, r29	; 62
  6e:	cd bf       	out	0x3d, r28	; 61

00000070 <__do_copy_data>:
  70:	ec e5       	ldi	r30, 0x5C	; 92
  72:	f0 e0       	ldi	r31, 0x00	; 0
  74:	40 e0       	ldi	r20, 0x00	; 0
  76:	17 c0       	rjmp	.+46     	; 0xa6 <__do_clear_bss+0x8>
  78:	b5 91       	lpm	r27, Z+
  7a:	a5 91       	lpm	r26, Z+
  7c:	35 91       	lpm	r19, Z+
  7e:	25 91       	lpm	r18, Z+
  80:	05 91       	lpm	r16, Z+
  82:	07 fd       	sbrc	r16, 7
  84:	0c c0       	rjmp	.+24     	; 0x9e <__do_clear_bss>
  86:	95 91       	lpm	r25, Z+
  88:	85 91       	lpm	r24, Z+
  8a:	ef 01       	movw	r28, r30
  8c:	f9 2f       	mov	r31, r25
  8e:	e8 2f       	mov	r30, r24
  90:	05 90       	lpm	r0, Z+
  92:	0d 92       	st	X+, r0
  94:	a2 17       	cp	r26, r18
  96:	b3 07       	cpc	r27, r19
  98:	d9 f7       	brne	.-10     	; 0x90 <__do_copy_data+0x20>
  9a:	fe 01       	movw	r30, r28
  9c:	04 c0       	rjmp	.+8      	; 0xa6 <__do_clear_bss+0x8>

0000009e <__do_clear_bss>:
  9e:	1d 92       	st	X+, r1
  a0:	a2 17       	cp	r26, r18
  a2:	b3 07       	cpc	r27, r19
  a4:	e1 f7       	brne	.-8      	; 0x9e <__do_clear_bss>
  a6:	e3 36       	cpi	r30, 0x63	; 99
  a8:	f4 07       	cpc	r31, r20
  aa:	31 f7       	brne	.-52     	; 0x78 <__do_copy_data+0x8>
  ac:	0a d0       	rcall	.+20     	; 0xc2 <main>
  ae:	02 c0       	rjmp	.+4      	; 0xb4 <_etext>

000000b0 <_exit>:
  b0:	f8 94       	cli

000000b2 <__stop_program>:
  b2:	ff cf       	rjmp	.-2      	; 0xb2 <__stop_program>

Disassembly of section .text:

000001fa <__bad_interrupt>:
 1fa:	02 cf       	rjmp	.-508    	; 0x0 <__TEXT_REGION_ORIGIN__>

Disassembly of section .text.LCD_Init:

00000100 <LCD_Init>:
 100:	87 eb       	ldi	r24, 0xB7	; 183
 102:	80 93 e5 00 	sts	0x00E5, r24	; 0x8000e5 <__TEXT_REGION_LENGTH__+0x7fc0e5>
 106:	87 e0       	ldi	r24, 0x07	; 7
 108:	80 93 e6 00 	sts	0x00E6, r24	; 0x8000e6 <__TEXT_REGION_LENGTH__+0x7fc0e6>
 10c:	8e e2       	ldi	r24, 0x2E	; 46
 10e:	80 93 e7 00 	sts	0x00E7, r24	; 0x8000e7 <__TEXT_REGION_LENGTH__+0x7fc0e7>
 112:	80 e8       	ldi	r24, 0x80	; 128
 114:	80 93 e4 00 	sts	0x00E4, r24	; 0x8000e4 <__TEXT_REGION_LENGTH__+0x7fc0e4>
 118:	08 95       	ret

Disassembly of section .text.writeChar:

0000011a <writeChar>:
 11a:	66 30       	cpi	r22, 0x06	; 6
 11c:	71 05       	cpc	r23, r1
 11e:	08 f0       	brcs	.+2      	; 0x122 <writeChar+0x8>
 120:	65 c0       	rjmp	.+202    	; 0x1ec <writeChar+0xd2>
 122:	90 ed       	ldi	r25, 0xD0	; 208
 124:	98 0f       	add	r25, r24
 126:	9a 30       	cpi	r25, 0x0A	; 10
 128:	08 f0       	brcs	.+2      	; 0x12c <writeChar+0x12>
 12a:	60 c0       	rjmp	.+192    	; 0x1ec <writeChar+0xd2>
 12c:	fb 01       	movw	r30, r22
 12e:	e0 50       	subi	r30, 0x00	; 0
 130:	ff 4f       	sbci	r31, 0xFF	; 255
 132:	e0 81       	ld	r30, Z
 134:	f0 e0       	ldi	r31, 0x00	; 0
 136:	e4 51       	subi	r30, 0x14	; 20
 138:	ff 4f       	sbci	r31, 0xFF	; 255
 13a:	a8 2f       	mov	r26, r24
 13c:	b0 e0       	ldi	r27, 0x00	; 0
 13e:	d0 97       	sbiw	r26, 0x30	; 48
 140:	61 70       	andi	r22, 0x01	; 1
 142:	70 78       	andi	r23, 0x80	; 128
 144:	77 23       	and	r23, r23
 146:	34 f4       	brge	.+12     	; 0x154 <writeChar+0x3a>
 148:	61 50       	subi	r22, 0x01	; 1
 14a:	71 09       	sbc	r23, r1
 14c:	6e 6f       	ori	r22, 0xFE	; 254
 14e:	7f 6f       	ori	r23, 0xFF	; 255
 150:	6f 5f       	subi	r22, 0xFF	; 255
 152:	7f 4f       	sbci	r23, 0xFF	; 255
 154:	61 30       	cpi	r22, 0x01	; 1
 156:	71 05       	cpc	r23, r1
 158:	71 f4       	brne	.+28     	; 0x176 <writeChar+0x5c>
 15a:	80 81       	ld	r24, Z
 15c:	8f 70       	andi	r24, 0x0F	; 15
 15e:	80 83       	st	Z, r24
 160:	85 81       	ldd	r24, Z+5	; 0x05
 162:	8f 70       	andi	r24, 0x0F	; 15
 164:	85 83       	std	Z+5, r24	; 0x05
 166:	82 85       	ldd	r24, Z+10	; 0x0a
 168:	8f 70       	andi	r24, 0x0F	; 15
 16a:	82 87       	std	Z+10, r24	; 0x0a
 16c:	87 85       	ldd	r24, Z+15	; 0x0f
 16e:	8f 70       	andi	r24, 0x0F	; 15
 170:	87 87       	std	Z+15, r24	; 0x0f
 172:	94 e0       	ldi	r25, 0x04	; 4
 174:	0d c0       	rjmp	.+26     	; 0x190 <writeChar+0x76>
 176:	80 81       	ld	r24, Z
 178:	80 7f       	andi	r24, 0xF0	; 240
 17a:	80 83       	st	Z, r24
 17c:	85 81       	ldd	r24, Z+5	; 0x05
 17e:	80 7f       	andi	r24, 0xF0	; 240
 180:	85 83       	std	Z+5, r24	; 0x05
 182:	82 85       	ldd	r24, Z+10	; 0x0a
 184:	80 7f       	andi	r24, 0xF0	; 240
 186:	82 87       	std	Z+10, r24	; 0x0a
 188:	87 85       	ldd	r24, Z+15	; 0x0f
 18a:	80 7f       	andi	r24, 0xF0	; 240
 18c:	87 87       	std	Z+15, r24	; 0x0f
 18e:	90 e0       	ldi	r25, 0x00	; 0
 190:	20 81       	ld	r18, Z
 192:	aa 0f       	add	r26, r26
 194:	bb 1f       	adc	r27, r27
 196:	aa 0f       	add	r26, r26
 198:	bb 1f       	adc	r27, r27
 19a:	aa 5f       	subi	r26, 0xFA	; 250
 19c:	be 4f       	sbci	r27, 0xFE	; 254
 19e:	8c 91       	ld	r24, X
 1a0:	09 2e       	mov	r0, r25
 1a2:	01 c0       	rjmp	.+2      	; 0x1a6 <writeChar+0x8c>
 1a4:	88 0f       	add	r24, r24
 1a6:	0a 94       	dec	r0
 1a8:	ea f7       	brpl	.-6      	; 0x1a4 <writeChar+0x8a>
 1aa:	82 2b       	or	r24, r18
 1ac:	80 83       	st	Z, r24
 1ae:	25 81       	ldd	r18, Z+5	; 0x05
 1b0:	11 96       	adiw	r26, 0x01	; 1
 1b2:	8c 91       	ld	r24, X
 1b4:	11 97       	sbiw	r26, 0x01	; 1
 1b6:	09 2e       	mov	r0, r25
 1b8:	01 c0       	rjmp	.+2      	; 0x1bc <writeChar+0xa2>
 1ba:	88 0f       	add	r24, r24
 1bc:	0a 94       	dec	r0
 1be:	ea f7       	brpl	.-6      	; 0x1ba <writeChar+0xa0>
 1c0:	82 2b       	or	r24, r18
 1c2:	85 83       	std	Z+5, r24	; 0x05
 1c4:	22 85       	ldd	r18, Z+10	; 0x0a
 1c6:	12 96       	adiw	r26, 0x02	; 2
 1c8:	8c 91       	ld	r24, X
 1ca:	12 97       	sbiw	r26, 0x02	; 2
 1cc:	09 2e       	mov	r0, r25
 1ce:	01 c0       	rjmp	.+2      	; 0x1d2 <writeChar+0xb8>
 1d0:	88 0f       	add	r24, r24
 1d2:	0a 94       	dec	r0
 1d4:	ea f7       	brpl	.-6      	; 0x1d0 <writeChar+0xb6>
 1d6:	82 2b       	or	r24, r18
 1d8:	82 87       	std	Z+10, r24	; 0x0a
 1da:	27 85       	ldd	r18, Z+15	; 0x0f
 1dc:	13 96       	adiw	r26, 0x03	; 3
 1de:	8c 91       	ld	r24, X
 1e0:	01 c0       	rjmp	.+2      	; 0x1e4 <writeChar+0xca>
 1e2:	88 0f       	add	r24, r24
 1e4:	9a 95       	dec	r25
 1e6:	ea f7       	brpl	.-6      	; 0x1e2 <writeChar+0xc8>
 1e8:	82 2b       	or	r24, r18
 1ea:	87 87       	std	Z+15, r24	; 0x0f
 1ec:	08 95       	ret

Disassembly of section .text.CLK_init:

000001ee <CLK_init>:
 1ee:	e1 e6       	ldi	r30, 0x61	; 97
 1f0:	f0 e0       	ldi	r31, 0x00	; 0
 1f2:	80 e8       	ldi	r24, 0x80	; 128
 1f4:	80 83       	st	Z, r24
 1f6:	10 82       	st	Z, r1
 1f8:	08 95       	ret

Disassembly of section .text.main:

000000c2 <main>:
  c2:	95 d0       	rcall	.+298    	; 0x1ee <CLK_init>
  c4:	1d d0       	rcall	.+58     	; 0x100 <LCD_Init>
  c6:	10 e3       	ldi	r17, 0x30	; 48
  c8:	13 c0       	rjmp	.+38     	; 0xf0 <main+0x2e>
  ca:	be 01       	movw	r22, r28
  cc:	81 2f       	mov	r24, r17
  ce:	25 d0       	rcall	.+74     	; 0x11a <writeChar>
  d0:	2f e3       	ldi	r18, 0x3F	; 63
  d2:	8d e0       	ldi	r24, 0x0D	; 13
  d4:	93 e0       	ldi	r25, 0x03	; 3
  d6:	21 50       	subi	r18, 0x01	; 1
  d8:	80 40       	sbci	r24, 0x00	; 0
  da:	90 40       	sbci	r25, 0x00	; 0
  dc:	e1 f7       	brne	.-8      	; 0xd6 <main+0x14>
  de:	00 c0       	rjmp	.+0      	; 0xe0 <main+0x1e>
  e0:	00 00       	nop
  e2:	21 96       	adiw	r28, 0x01	; 1
  e4:	c7 30       	cpi	r28, 0x07	; 7
  e6:	d1 05       	cpc	r29, r1
  e8:	81 f7       	brne	.-32     	; 0xca <main+0x8>
  ea:	1f 5f       	subi	r17, 0xFF	; 255
  ec:	1a 33       	cpi	r17, 0x3A	; 58
  ee:	19 f0       	breq	.+6      	; 0xf6 <main+0x34>
  f0:	c0 e0       	ldi	r28, 0x00	; 0
  f2:	d0 e0       	ldi	r29, 0x00	; 0
  f4:	ea cf       	rjmp	.-44     	; 0xca <main+0x8>
  f6:	ff cf       	rjmp	.-2      	; 0xf6 <main+0x34>

Disassembly of section .text.__dummy_fini:

000000f8 <_fini>:
  f8:	08 95       	ret

Disassembly of section .text.__dummy_funcs_on_exit:

000000fe <__funcs_on_exit>:
  fe:	08 95       	ret

Disassembly of section .text.__dummy_simulator_exit:

000000fa <__simulator_exit>:
  fa:	08 95       	ret

Disassembly of section .text.exit:

000000b4 <exit>:
  b4:	ec 01       	movw	r28, r24
  b6:	23 d0       	rcall	.+70     	; 0xfe <__funcs_on_exit>
  b8:	1f d0       	rcall	.+62     	; 0xf8 <_fini>
  ba:	ce 01       	movw	r24, r28
  bc:	1e d0       	rcall	.+60     	; 0xfa <__simulator_exit>
  be:	ce 01       	movw	r24, r28
  c0:	1d d0       	rcall	.+58     	; 0xfc <_Exit>

Disassembly of section .text._Exit:

000000fc <_Exit>:
  fc:	d9 df       	rcall	.-78     	; 0xb0 <_exit>
